---
triple:          'arm64-apple-darwin'
binary-path:     a.out
relocations:
  - { offsetInCU: 0x3B, offset: 0x3B, size: 0x8, addend: 0x0, symName: _.str, symObjAddr: 0xB2420, symBinAddr: 0x1000B4880, symSize: 0x0 }
  - { offsetInCU: 0x6B, offset: 0x6B, size: 0x8, addend: 0x0, symName: _.str.1, symObjAddr: 0xB2480, symBinAddr: 0x1000B48E0, symSize: 0x0 }
  - { offsetInCU: 0x88, offset: 0x88, size: 0x8, addend: 0x0, symName: ___func__.main, symObjAddr: 0xB24A0, symBinAddr: 0x1000B4900, symSize: 0x0 }
  - { offsetInCU: 0xA5, offset: 0xA5, size: 0x8, addend: 0x0, symName: _.str.2, symObjAddr: 0xB24C0, symBinAddr: 0x1000B4920, symSize: 0x0 }
  - { offsetInCU: 0xC2, offset: 0xC2, size: 0x8, addend: 0x0, symName: _.str.3, symObjAddr: 0xB24E0, symBinAddr: 0x1000B4940, symSize: 0x0 }
  - { offsetInCU: 0xDF, offset: 0xDF, size: 0x8, addend: 0x0, symName: _.str.4, symObjAddr: 0xB2520, symBinAddr: 0x1000B4980, symSize: 0x0 }
  - { offsetInCU: 0xFC, offset: 0xFC, size: 0x8, addend: 0x0, symName: _.str.5, symObjAddr: 0xB25A0, symBinAddr: 0x1000B4A00, symSize: 0x0 }
  - { offsetInCU: 0x10D, offset: 0x10D, size: 0x8, addend: 0x0, symName: _.str.6, symObjAddr: 0xB25C0, symBinAddr: 0x1000B4A20, symSize: 0x0 }
  - { offsetInCU: 0x12A, offset: 0x12A, size: 0x8, addend: 0x0, symName: _.str.7, symObjAddr: 0xB2600, symBinAddr: 0x1000B4A60, symSize: 0x0 }
  - { offsetInCU: 0x13B, offset: 0x13B, size: 0x8, addend: 0x0, symName: _.str.8, symObjAddr: 0xB2680, symBinAddr: 0x1000B4AE0, symSize: 0x0 }
  - { offsetInCU: 0x158, offset: 0x158, size: 0x8, addend: 0x0, symName: _.str.9, symObjAddr: 0xB26A0, symBinAddr: 0x1000B4B00, symSize: 0x0 }
  - { offsetInCU: 0x169, offset: 0x169, size: 0x8, addend: 0x0, symName: _.str.10, symObjAddr: 0xB26E0, symBinAddr: 0x1000B4B40, symSize: 0x0 }
  - { offsetInCU: 0x17A, offset: 0x17A, size: 0x8, addend: 0x0, symName: _.str.11, symObjAddr: 0xB2760, symBinAddr: 0x1000B4BC0, symSize: 0x0 }
  - { offsetInCU: 0x18B, offset: 0x18B, size: 0x8, addend: 0x0, symName: _.str.12, symObjAddr: 0xB27A0, symBinAddr: 0x1000B4C00, symSize: 0x0 }
  - { offsetInCU: 0x1A8, offset: 0x1A8, size: 0x8, addend: 0x0, symName: _.str.13, symObjAddr: 0xB2820, symBinAddr: 0x1000B4C80, symSize: 0x0 }
  - { offsetInCU: 0x1B9, offset: 0x1B9, size: 0x8, addend: 0x0, symName: _.str.15, symObjAddr: 0xB2860, symBinAddr: 0x1000B4CC0, symSize: 0x0 }
  - { offsetInCU: 0x1CA, offset: 0x1CA, size: 0x8, addend: 0x0, symName: _.str.16, symObjAddr: 0xB28E0, symBinAddr: 0x1000B4D40, symSize: 0x0 }
  - { offsetInCU: 0x1DB, offset: 0x1DB, size: 0x8, addend: 0x0, symName: _.str.18, symObjAddr: 0xB2920, symBinAddr: 0x1000B4D80, symSize: 0x0 }
  - { offsetInCU: 0x1EC, offset: 0x1EC, size: 0x8, addend: 0x0, symName: _.str.19, symObjAddr: 0xB29A0, symBinAddr: 0x1000B4E00, symSize: 0x0 }
  - { offsetInCU: 0x209, offset: 0x209, size: 0x8, addend: 0x0, symName: _.str.20, symObjAddr: 0xB29C0, symBinAddr: 0x1000B4E20, symSize: 0x0 }
  - { offsetInCU: 0x21A, offset: 0x21A, size: 0x8, addend: 0x0, symName: _.str.21, symObjAddr: 0xB2A00, symBinAddr: 0x1000B4E60, symSize: 0x0 }
  - { offsetInCU: 0x237, offset: 0x237, size: 0x8, addend: 0x0, symName: _.str.22, symObjAddr: 0xB2A80, symBinAddr: 0x1000B4EE0, symSize: 0x0 }
  - { offsetInCU: 0x248, offset: 0x248, size: 0x8, addend: 0x0, symName: _.str.23, symObjAddr: 0xB2AC0, symBinAddr: 0x1000B4F20, symSize: 0x0 }
  - { offsetInCU: 0x259, offset: 0x259, size: 0x8, addend: 0x0, symName: _.str.24, symObjAddr: 0xB2B40, symBinAddr: 0x1000B4FA0, symSize: 0x0 }
  - { offsetInCU: 0x276, offset: 0x276, size: 0x8, addend: 0x0, symName: _.str.25, symObjAddr: 0xB2B80, symBinAddr: 0x1000B4FE0, symSize: 0x0 }
  - { offsetInCU: 0x287, offset: 0x287, size: 0x8, addend: 0x0, symName: _.str.27, symObjAddr: 0xB2BC0, symBinAddr: 0x1000B5020, symSize: 0x0 }
  - { offsetInCU: 0x2A4, offset: 0x2A4, size: 0x8, addend: 0x0, symName: _.str.28, symObjAddr: 0xB2C80, symBinAddr: 0x1000B50E0, symSize: 0x0 }
  - { offsetInCU: 0x2C1, offset: 0x2C1, size: 0x8, addend: 0x0, symName: _.str.29, symObjAddr: 0xB2CA0, symBinAddr: 0x1000B5100, symSize: 0x0 }
  - { offsetInCU: 0x2D2, offset: 0x2D2, size: 0x8, addend: 0x0, symName: _.str.31, symObjAddr: 0xB2CE0, symBinAddr: 0x1000B5140, symSize: 0x0 }
  - { offsetInCU: 0x2EF, offset: 0x2EF, size: 0x8, addend: 0x0, symName: _.str.32, symObjAddr: 0xB2D80, symBinAddr: 0x1000B51E0, symSize: 0x0 }
  - { offsetInCU: 0x300, offset: 0x300, size: 0x8, addend: 0x0, symName: _.str.33, symObjAddr: 0xB2DA0, symBinAddr: 0x1000B5200, symSize: 0x0 }
  - { offsetInCU: 0x311, offset: 0x311, size: 0x8, addend: 0x0, symName: _.str.34, symObjAddr: 0xB2DE0, symBinAddr: 0x1000B5240, symSize: 0x0 }
  - { offsetInCU: 0x32E, offset: 0x32E, size: 0x8, addend: 0x0, symName: _.str.35, symObjAddr: 0xB2E60, symBinAddr: 0x1000B52C0, symSize: 0x0 }
  - { offsetInCU: 0x34B, offset: 0x34B, size: 0x8, addend: 0x0, symName: _.str.36, symObjAddr: 0xB2EA0, symBinAddr: 0x1000B5300, symSize: 0x0 }
  - { offsetInCU: 0x35C, offset: 0x35C, size: 0x8, addend: 0x0, symName: _.str.38, symObjAddr: 0xB2EE0, symBinAddr: 0x1000B5340, symSize: 0x0 }
  - { offsetInCU: 0x379, offset: 0x379, size: 0x8, addend: 0x0, symName: _.str.40, symObjAddr: 0xB2F80, symBinAddr: 0x1000B53E0, symSize: 0x0 }
  - { offsetInCU: 0x38A, offset: 0x38A, size: 0x8, addend: 0x0, symName: _.str.42, symObjAddr: 0xB2FC0, symBinAddr: 0x1000B5420, symSize: 0x0 }
  - { offsetInCU: 0x3A7, offset: 0x3A7, size: 0x8, addend: 0x0, symName: _.str.43, symObjAddr: 0xB3060, symBinAddr: 0x1000B54C0, symSize: 0x0 }
  - { offsetInCU: 0x3B8, offset: 0x3B8, size: 0x8, addend: 0x0, symName: _.str.45, symObjAddr: 0xB30A0, symBinAddr: 0x1000B5500, symSize: 0x0 }
  - { offsetInCU: 0x3C9, offset: 0x3C9, size: 0x8, addend: 0x0, symName: _.str.46, symObjAddr: 0xB3140, symBinAddr: 0x1000B55A0, symSize: 0x0 }
  - { offsetInCU: 0x3DA, offset: 0x3DA, size: 0x8, addend: 0x0, symName: _.str.48, symObjAddr: 0xB3180, symBinAddr: 0x1000B55E0, symSize: 0x0 }
  - { offsetInCU: 0x3F7, offset: 0x3F7, size: 0x8, addend: 0x0, symName: _.str.50, symObjAddr: 0xB3220, symBinAddr: 0x1000B5680, symSize: 0x0 }
  - { offsetInCU: 0x408, offset: 0x408, size: 0x8, addend: 0x0, symName: _.str.52, symObjAddr: 0xB3260, symBinAddr: 0x1000B56C0, symSize: 0x0 }
  - { offsetInCU: 0x425, offset: 0x425, size: 0x8, addend: 0x0, symName: _.str.54, symObjAddr: 0xB3300, symBinAddr: 0x1000B5760, symSize: 0x0 }
  - { offsetInCU: 0x436, offset: 0x436, size: 0x8, addend: 0x0, symName: _.str.56, symObjAddr: 0xB3340, symBinAddr: 0x1000B57A0, symSize: 0x0 }
  - { offsetInCU: 0x454, offset: 0x454, size: 0x8, addend: 0x0, symName: _.str.57, symObjAddr: 0xB33E0, symBinAddr: 0x1000B5840, symSize: 0x0 }
  - { offsetInCU: 0x471, offset: 0x471, size: 0x8, addend: 0x0, symName: _.str.58, symObjAddr: 0xB3400, symBinAddr: 0x1000B5860, symSize: 0x0 }
  - { offsetInCU: 0xC7D2, offset: 0xC7D2, size: 0x8, addend: 0x0, symName: __ZNSt3__17advanceB7v160006IPcllvEEvRT_T0_, symObjAddr: 0x272AC, symBinAddr: 0x100028F00, symSize: 0x50 }
  - { offsetInCU: 0xE153, offset: 0xE153, size: 0x8, addend: 0x0, symName: __ZNSt3__17advanceB7v160006IPNS_6vectorIcNS_9allocatorIcEEEEllvEEvRT_T0_, symObjAddr: 0x2F368, symBinAddr: 0x100030FBC, symSize: 0x50 }
  - { offsetInCU: 0xE3D3, offset: 0xE3D3, size: 0x8, addend: 0x0, symName: __ZNSt3__17advanceB7v160006INS_16reverse_iteratorIPNS_6vectorIcNS_9allocatorIcEEEEEEllvEEvRT_T0_, symObjAddr: 0x30684, symBinAddr: 0x1000322D8, symSize: 0x50 }
  - { offsetInCU: 0x119BB, offset: 0x119BB, size: 0x8, addend: 0x0, symName: __ZNSt3__17advanceB7v160006IPNS_4pairINS_6vectorIcNS_9allocatorIcEEEENS2_ImNS3_ImEEEEEEllvEEvRT_T0_, symObjAddr: 0x458BC, symBinAddr: 0x100047510, symSize: 0x50 }
  - { offsetInCU: 0x11C3B, offset: 0x11C3B, size: 0x8, addend: 0x0, symName: __ZNSt3__17advanceB7v160006INS_16reverse_iteratorIPNS_4pairINS_6vectorIcNS_9allocatorIcEEEENS3_ImNS4_ImEEEEEEEEllvEEvRT_T0_, symObjAddr: 0x46C3C, symBinAddr: 0x100048890, symSize: 0x50 }
  - { offsetInCU: 0x11D73, offset: 0x11D73, size: 0x8, addend: 0x0, symName: __ZNSt3__16copy_nB7v160006INS_11__wrap_iterIPmEEmS2_EENS_9enable_ifIXsr33__is_cpp17_random_access_iteratorIT_EE5valueET1_E4typeES5_T0_S6_, symObjAddr: 0x4B864, symBinAddr: 0x10004D4B8, symSize: 0x350 }
  - { offsetInCU: 0x1200D, offset: 0x1200D, size: 0x8, addend: 0x0, symName: __ZNSt3__111__introsortINS_17_ClassicAlgPolicyERNS_6__lessINS_5arrayImLm2EEES4_EEPS4_EEvT1_S8_T0_NS_15iterator_traitsIS8_E15difference_typeE, symObjAddr: 0x57DD0, symBinAddr: 0x100059A24, symSize: 0x1E84 }
  - { offsetInCU: 0x1217E, offset: 0x1217E, size: 0x8, addend: 0x0, symName: __ZNSt3__118__insertion_sort_3B7v160006INS_17_ClassicAlgPolicyERNS_6__lessINS_5arrayImLm2EEES4_EEPS4_EEvT1_S8_T0_, symObjAddr: 0x59E38, symBinAddr: 0x10005BA8C, symSize: 0x574 }
  - { offsetInCU: 0x12259, offset: 0x12259, size: 0x8, addend: 0x0, symName: __ZNSt3__111__sift_downB7v160006INS_17_ClassicAlgPolicyERNS_6__lessINS_5arrayImLm2EEES4_EEPS4_EEvT1_OT0_NS_15iterator_traitsIS8_E15difference_typeES8_, symObjAddr: 0x5D114, symBinAddr: 0x10005ED68, symSize: 0x758 }
  - { offsetInCU: 0x12316, offset: 0x12316, size: 0x8, addend: 0x0, symName: __ZNSt3__117__floyd_sift_downB7v160006INS_17_ClassicAlgPolicyERNS_6__lessINS_5arrayImLm2EEES4_EEPS4_EET1_S8_OT0_NS_15iterator_traitsIS8_E15difference_typeE, symObjAddr: 0x5DD6C, symBinAddr: 0x10005F9C0, symSize: 0x3D0 }
  - { offsetInCU: 0x123B7, offset: 0x123B7, size: 0x8, addend: 0x0, symName: __ZNSt3__127__insertion_sort_incompleteIRNS_6__lessINS_5arrayImLm2EEES3_EEPS3_EEbT0_S7_T_, symObjAddr: 0x5AB00, symBinAddr: 0x10005C754, symSize: 0xC1C }
  - { offsetInCU: 0x126C1, offset: 0x126C1, size: 0x8, addend: 0x0, symName: __ZNSt3__111__introsortINS_17_ClassicAlgPolicyERNS_6__lessINS_5arrayImLm3EEES4_EEPS4_EEvT1_S8_T0_NS_15iterator_traitsIS8_E15difference_typeE, symObjAddr: 0x6858C, symBinAddr: 0x10006A1E0, symSize: 0x1EA0 }
  - { offsetInCU: 0x12832, offset: 0x12832, size: 0x8, addend: 0x0, symName: __ZNSt3__118__insertion_sort_3B7v160006INS_17_ClassicAlgPolicyERNS_6__lessINS_5arrayImLm3EEES4_EEPS4_EEvT1_S8_T0_, symObjAddr: 0x6A5F4, symBinAddr: 0x10006C248, symSize: 0x5AC }
  - { offsetInCU: 0x1290E, offset: 0x1290E, size: 0x8, addend: 0x0, symName: __ZNSt3__111__sift_downB7v160006INS_17_ClassicAlgPolicyERNS_6__lessINS_5arrayImLm3EEES4_EEPS4_EEvT1_OT0_NS_15iterator_traitsIS8_E15difference_typeES8_, symObjAddr: 0x6CDC8, symBinAddr: 0x10006EA1C, symSize: 0x7A0 }
  - { offsetInCU: 0x129CB, offset: 0x129CB, size: 0x8, addend: 0x0, symName: __ZNSt3__117__floyd_sift_downB7v160006INS_17_ClassicAlgPolicyERNS_6__lessINS_5arrayImLm3EEES4_EEPS4_EET1_S8_OT0_NS_15iterator_traitsIS8_E15difference_typeE, symObjAddr: 0x6DA94, symBinAddr: 0x10006F6E8, symSize: 0x3D8 }
  - { offsetInCU: 0x12A6C, offset: 0x12A6C, size: 0x8, addend: 0x0, symName: __ZNSt3__127__insertion_sort_incompleteIRNS_6__lessINS_5arrayImLm3EEES3_EEPS3_EEbT0_S7_T_, symObjAddr: 0x6B2F4, symBinAddr: 0x10006CF48, symSize: 0xC2C }
  - { offsetInCU: 0x12D76, offset: 0x12D76, size: 0x8, addend: 0x0, symName: __ZNSt3__111__introsortINS_17_ClassicAlgPolicyERNS_6__lessINS_5arrayImLm1EEES4_EEPS4_EEvT1_S8_T0_NS_15iterator_traitsIS8_E15difference_typeE, symObjAddr: 0x77FB0, symBinAddr: 0x100079C04, symSize: 0x1E84 }
  - { offsetInCU: 0x12EE7, offset: 0x12EE7, size: 0x8, addend: 0x0, symName: __ZNSt3__118__insertion_sort_3B7v160006INS_17_ClassicAlgPolicyERNS_6__lessINS_5arrayImLm1EEES4_EEPS4_EEvT1_S8_T0_, symObjAddr: 0x79FFC, symBinAddr: 0x10007BC50, symSize: 0x578 }
  - { offsetInCU: 0x12FC2, offset: 0x12FC2, size: 0x8, addend: 0x0, symName: __ZNSt3__111__sift_downB7v160006INS_17_ClassicAlgPolicyERNS_6__lessINS_5arrayImLm1EEES4_EEPS4_EEvT1_OT0_NS_15iterator_traitsIS8_E15difference_typeES8_, symObjAddr: 0x7C778, symBinAddr: 0x10007E3CC, symSize: 0x758 }
  - { offsetInCU: 0x1307F, offset: 0x1307F, size: 0x8, addend: 0x0, symName: __ZNSt3__117__floyd_sift_downB7v160006INS_17_ClassicAlgPolicyERNS_6__lessINS_5arrayImLm1EEES4_EEPS4_EET1_S8_OT0_NS_15iterator_traitsIS8_E15difference_typeE, symObjAddr: 0x7D3D0, symBinAddr: 0x10007F024, symSize: 0x3D0 }
  - { offsetInCU: 0x13120, offset: 0x13120, size: 0x8, addend: 0x0, symName: __ZNSt3__127__insertion_sort_incompleteIRNS_6__lessINS_5arrayImLm1EEES3_EEPS3_EEbT0_S7_T_, symObjAddr: 0x7ACC8, symBinAddr: 0x10007C91C, symSize: 0xC10 }
  - { offsetInCU: 0x13449, offset: 0x13449, size: 0x8, addend: 0x0, symName: __ZNSt3__17advanceB7v160006IPillvEEvRT_T0_, symObjAddr: 0x87AC4, symBinAddr: 0x100089718, symSize: 0x50 }
  - { offsetInCU: 0x14DCA, offset: 0x14DCA, size: 0x8, addend: 0x0, symName: __ZNSt3__17advanceB7v160006IPNS_6vectorIiNS_9allocatorIiEEEEllvEEvRT_T0_, symObjAddr: 0x8D638, symBinAddr: 0x10008F28C, symSize: 0x50 }
  - { offsetInCU: 0x1504A, offset: 0x1504A, size: 0x8, addend: 0x0, symName: __ZNSt3__17advanceB7v160006INS_16reverse_iteratorIPNS_6vectorIiNS_9allocatorIiEEEEEEllvEEvRT_T0_, symObjAddr: 0x8E954, symBinAddr: 0x1000905A8, symSize: 0x50 }
  - { offsetInCU: 0x16CA1, offset: 0x16CA1, size: 0x8, addend: 0x0, symName: __ZNSt3__17advanceB7v160006IPNS_4pairINS_6vectorIiNS_9allocatorIiEEEENS2_ImNS3_ImEEEEEEllvEEvRT_T0_, symObjAddr: 0x94FA4, symBinAddr: 0x100096BF8, symSize: 0x50 }
  - { offsetInCU: 0x16F21, offset: 0x16F21, size: 0x8, addend: 0x0, symName: __ZNSt3__17advanceB7v160006INS_16reverse_iteratorIPNS_4pairINS_6vectorIiNS_9allocatorIiEEEENS3_ImNS4_ImEEEEEEEEllvEEvRT_T0_, symObjAddr: 0x96324, symBinAddr: 0x100097F78, symSize: 0x50 }
  - { offsetInCU: 0x1738B, offset: 0x1738B, size: 0x8, addend: 0x0, symName: __ZNSt3__17advanceB7v160006IP6CDummyllvEEvRT_T0_, symObjAddr: 0x9FD40, symBinAddr: 0x1000A1994, symSize: 0x50 }
  - { offsetInCU: 0x18D0C, offset: 0x18D0C, size: 0x8, addend: 0x0, symName: __ZNSt3__17advanceB7v160006IPNS_6vectorI6CDummyNS_9allocatorIS2_EEEEllvEEvRT_T0_, symObjAddr: 0xA58CC, symBinAddr: 0x1000A7520, symSize: 0x50 }
  - { offsetInCU: 0x18F8C, offset: 0x18F8C, size: 0x8, addend: 0x0, symName: __ZNSt3__17advanceB7v160006INS_16reverse_iteratorIPNS_6vectorI6CDummyNS_9allocatorIS3_EEEEEEllvEEvRT_T0_, symObjAddr: 0xA6BE8, symBinAddr: 0x1000A883C, symSize: 0x50 }
  - { offsetInCU: 0x1ABE3, offset: 0x1ABE3, size: 0x8, addend: 0x0, symName: __ZNSt3__17advanceB7v160006IPNS_4pairINS_6vectorI6CDummyNS_9allocatorIS3_EEEENS2_ImNS4_ImEEEEEEllvEEvRT_T0_, symObjAddr: 0xADB60, symBinAddr: 0x1000AF7B4, symSize: 0x50 }
  - { offsetInCU: 0x1AE63, offset: 0x1AE63, size: 0x8, addend: 0x0, symName: __ZNSt3__17advanceB7v160006INS_16reverse_iteratorIPNS_4pairINS_6vectorI6CDummyNS_9allocatorIS4_EEEENS3_ImNS5_ImEEEEEEEEllvEEvRT_T0_, symObjAddr: 0xAEEE0, symBinAddr: 0x1000B0B34, symSize: 0x50 }
  - { offsetInCU: 0x1B5DA, offset: 0x1B5DA, size: 0x8, addend: 0x0, symName: __ZNSt3__18literals15string_literalsli1sB7v160006EPKcm, symObjAddr: 0x4A24, symBinAddr: 0x100006678, symSize: 0x40 }
  - { offsetInCU: 0x1BDF4, offset: 0x1BDF4, size: 0x8, addend: 0x0, symName: __ZNSt3__119__debug_db_insert_cB7v160006INS_12basic_stringIcNS_11char_traitsIcEENS_9allocatorIcEEEEEEvPT_, symObjAddr: 0xF228, symBinAddr: 0x100010E7C, symSize: 0x10 }
  - { offsetInCU: 0x1BE25, offset: 0x1BE25, size: 0x8, addend: 0x0, symName: __ZNSt3__122__make_exception_guardB7v160006INS_6vectorINS_5arrayImLm2EEENS_9allocatorIS3_EEE16__destroy_vectorEEENS_28__exception_guard_exceptionsIT_EES9_, symObjAddr: 0xF864, symBinAddr: 0x1000114B8, symSize: 0x278 }
  - { offsetInCU: 0x1BE5E, offset: 0x1BE5E, size: 0x8, addend: 0x0, symName: __ZNSt3__119__debug_db_insert_cB7v160006INS_6vectorINS_5arrayImLm2EEENS_9allocatorIS3_EEEEEEvPT_, symObjAddr: 0xFB10, symBinAddr: 0x100011764, symSize: 0x10 }
  - { offsetInCU: 0x1BE8F, offset: 0x1BE8F, size: 0x8, addend: 0x0, symName: __ZNSt3__119__allocate_at_leastB7v160006INS_9allocatorINS_5arrayImLm2EEEEEEENS_19__allocation_resultINS_16allocator_traitsIT_E7pointerEEERS7_m, symObjAddr: 0x10E1C, symBinAddr: 0x100012A70, symSize: 0x28C }
  - { offsetInCU: 0x1BED4, offset: 0x1BED4, size: 0x8, addend: 0x0, symName: __ZNSt3__13minB7v160006ImEERKT_S3_S3_, symObjAddr: 0x111B8, symBinAddr: 0x100012E0C, symSize: 0x2C }
  - { offsetInCU: 0x1C101, offset: 0x1C101, size: 0x8, addend: 0x0, symName: __ZNSt3__13minB7v160006ImNS_6__lessImmEEEERKT_S5_S5_T0_, symObjAddr: 0x11254, symBinAddr: 0x100012EA8, symSize: 0x1E8 }
  - { offsetInCU: 0x1C388, offset: 0x1C388, size: 0x8, addend: 0x0, symName: __ZNSt3__120__throw_length_errorB7v160006EPKc, symObjAddr: 0x11554, symBinAddr: 0x1000131A8, symSize: 0x68 }
  - { offsetInCU: 0x1C3B0, offset: 0x1C3B0, size: 0x8, addend: 0x0, symName: __ZNSt3__117__libcpp_allocateB7v160006Emm, symObjAddr: 0x11710, symBinAddr: 0x100013364, symSize: 0x60 }
  - { offsetInCU: 0x1C40A, offset: 0x1C40A, size: 0x8, addend: 0x0, symName: __ZNSt3__124__is_overaligned_for_newB7v160006Em, symObjAddr: 0x11770, symBinAddr: 0x1000133C4, symSize: 0x20 }
  - { offsetInCU: 0x1C438, offset: 0x1C438, size: 0x8, addend: 0x0, symName: __ZNSt3__121__libcpp_operator_newB7v160006IJmSt11align_val_tEEEPvDpT_, symObjAddr: 0x11790, symBinAddr: 0x1000133E4, symSize: 0x2C }
  - { offsetInCU: 0x1C485, offset: 0x1C485, size: 0x8, addend: 0x0, symName: __ZNSt3__121__libcpp_operator_newB7v160006IJmEEEPvDpT_, symObjAddr: 0x117BC, symBinAddr: 0x100013410, symSize: 0x24 }
  - { offsetInCU: 0x1C4BE, offset: 0x1C4BE, size: 0x8, addend: 0x0, symName: __ZNSt3__112__to_addressB7v160006INS_5arrayImLm2EEEEEPT_S4_, symObjAddr: 0x119C8, symBinAddr: 0x10001361C, symSize: 0x14 }
  - { offsetInCU: 0x1C4F3, offset: 0x1C4F3, size: 0x8, addend: 0x0, symName: __ZNSt3__130__uninitialized_allocator_copyB7v160006INS_9allocatorINS_5arrayImLm2EEEEES3_S3_LPv0EEEPT0_RT_PKS6_SB_S7_, symObjAddr: 0x11A78, symBinAddr: 0x1000136CC, symSize: 0x38 }
  - { offsetInCU: 0x1C56B, offset: 0x1C56B, size: 0x8, addend: 0x0, symName: __ZNSt3__14copyB7v160006IPKNS_5arrayImLm2EEEPS2_EET0_T_S7_S6_, symObjAddr: 0x11E34, symBinAddr: 0x100013A88, symSize: 0x26C }
  - { offsetInCU: 0x1C5C8, offset: 0x1C5C8, size: 0x8, addend: 0x0, symName: __ZNSt3__16__copyB7v160006INS_17_ClassicAlgPolicyEPKNS_5arrayImLm2EEES5_PS3_EENS_4pairIT0_T2_EES8_T1_S9_, symObjAddr: 0x120A0, symBinAddr: 0x100013CF4, symSize: 0x22C }
  - { offsetInCU: 0x1C637, offset: 0x1C637, size: 0x8, addend: 0x0, symName: __ZNSt3__123__dispatch_copy_or_moveB7v160006INS_17_ClassicAlgPolicyENS_11__copy_loopIS1_EENS_14__copy_trivialEPKNS_5arrayImLm2EEES8_PS6_EENS_4pairIT2_T4_EESB_T3_SC_, symObjAddr: 0x122CC, symBinAddr: 0x100013F20, symSize: 0x22C }
  - { offsetInCU: 0x1C6B8, offset: 0x1C6B8, size: 0x8, addend: 0x0, symName: __ZNSt3__121__unwrap_and_dispatchB7v160006INS_10__overloadINS_11__copy_loopINS_17_ClassicAlgPolicyEEENS_14__copy_trivialEEEPKNS_5arrayImLm2EEESA_PS8_Li0EEENS_4pairIT0_T2_EESD_T1_SE_, symObjAddr: 0x124F8, symBinAddr: 0x10001414C, symSize: 0x5A4 }
  - { offsetInCU: 0x1C751, offset: 0x1C751, size: 0x8, addend: 0x0, symName: __ZNSt3__114__unwrap_rangeB7v160006IPKNS_5arrayImLm2EEES4_EEDaT_T0_, symObjAddr: 0x12A9C, symBinAddr: 0x1000146F0, symSize: 0x224 }
  - { offsetInCU: 0x1CA50, offset: 0x1CA50, size: 0x8, addend: 0x0, symName: __ZNSt3__113__unwrap_iterB7v160006IPNS_5arrayImLm2EEENS_18__unwrap_iter_implIS3_Lb1EEELi0EEEDTclsrT0_8__unwrapclsr3stdE7declvalIT_EEEES7_, symObjAddr: 0x12EF0, symBinAddr: 0x100014B44, symSize: 0x24 }
  - { offsetInCU: 0x1CA94, offset: 0x1CA94, size: 0x8, addend: 0x0, symName: __ZNSt3__19make_pairB7v160006IPKNS_5arrayImLm2EEEPS2_EENS_4pairINS_18__unwrap_ref_decayIT_E4typeENS7_IT0_E4typeEEEOS8_OSB_, symObjAddr: 0x12F14, symBinAddr: 0x100014B68, symSize: 0x20C }
  - { offsetInCU: 0x1CAE5, offset: 0x1CAE5, size: 0x8, addend: 0x0, symName: __ZNSt3__114__rewrap_rangeB7v160006IPKNS_5arrayImLm2EEES4_S4_EET0_S5_T1_, symObjAddr: 0x13120, symBinAddr: 0x100014D74, symSize: 0x2C }
  - { offsetInCU: 0x1CB3A, offset: 0x1CB3A, size: 0x8, addend: 0x0, symName: __ZNSt3__113__rewrap_iterB7v160006IPNS_5arrayImLm2EEES3_NS_18__unwrap_iter_implIS3_Lb1EEEEET_S6_T0_, symObjAddr: 0x1314C, symBinAddr: 0x100014DA0, symSize: 0x48 }
  - { offsetInCU: 0x1CCAB, offset: 0x1CCAB, size: 0x8, addend: 0x0, symName: __ZNSt3__113__unwrap_iterB7v160006IPKNS_5arrayImLm2EEENS_18__unwrap_iter_implIS4_Lb1EEELi0EEEDTclsrT0_8__unwrapclsr3stdE7declvalIT_EEEES8_, symObjAddr: 0x134A0, symBinAddr: 0x1000150F4, symSize: 0x24 }
  - { offsetInCU: 0x1CD42, offset: 0x1CD42, size: 0x8, addend: 0x0, symName: __ZNSt3__112__to_addressB7v160006IKNS_5arrayImLm2EEEEEPT_S5_, symObjAddr: 0x13524, symBinAddr: 0x100015178, symSize: 0x14 }
  - { offsetInCU: 0x1CD77, offset: 0x1CD77, size: 0x8, addend: 0x0, symName: __ZNSt3__119__copy_trivial_implB7v160006IKNS_5arrayImLm2EEES2_EENS_4pairIPT_PT0_EES6_S6_S8_, symObjAddr: 0x13670, symBinAddr: 0x1000152C4, symSize: 0x3B8 }
  - { offsetInCU: 0x1CDE6, offset: 0x1CDE6, size: 0x8, addend: 0x0, symName: __ZNSt3__19make_pairB7v160006IRPKNS_5arrayImLm2EEEPS2_EENS_4pairINS_18__unwrap_ref_decayIT_E4typeENS8_IT0_E4typeEEEOS9_OSC_, symObjAddr: 0x13A28, symBinAddr: 0x10001567C, symSize: 0x20C }
  - { offsetInCU: 0x1CE8A, offset: 0x1CE8A, size: 0x8, addend: 0x0, symName: __ZNSt3__113__rewrap_iterB7v160006IPKNS_5arrayImLm2EEES4_NS_18__unwrap_iter_implIS4_Lb1EEEEET_S7_T0_, symObjAddr: 0x13F6C, symBinAddr: 0x100015BC0, symSize: 0x48 }
  - { offsetInCU: 0x1CEDF, offset: 0x1CEDF, size: 0x8, addend: 0x0, symName: __ZNSt3__118__debug_db_erase_cB7v160006INS_6vectorINS_5arrayImLm2EEENS_9allocatorIS3_EEEEEEvPT_, symObjAddr: 0x14780, symBinAddr: 0x1000163D4, symSize: 0x10 }
  - { offsetInCU: 0x1CF10, offset: 0x1CF10, size: 0x8, addend: 0x0, symName: __ZNSt3__110destroy_atB7v160006INS_5arrayImLm2EEELi0EEEvPT_, symObjAddr: 0x14964, symBinAddr: 0x1000165B8, symSize: 0x24 }
  - { offsetInCU: 0x1CF47, offset: 0x1CF47, size: 0x8, addend: 0x0, symName: __ZNSt3__112__destroy_atB7v160006INS_5arrayImLm2EEELi0EEEvPT_, symObjAddr: 0x14988, symBinAddr: 0x1000165DC, symSize: 0x10 }
  - { offsetInCU: 0x1CF7E, offset: 0x1CF7E, size: 0x8, addend: 0x0, symName: __ZNSt3__119__libcpp_deallocateB7v160006EPvmm, symObjAddr: 0x149E4, symBinAddr: 0x100016638, symSize: 0x60 }
  - { offsetInCU: 0x1CFE3, offset: 0x1CFE3, size: 0x8, addend: 0x0, symName: __ZNSt3__127__do_deallocate_handle_sizeB7v160006IJSt11align_val_tEEEvPvmDpT_, symObjAddr: 0x14A44, symBinAddr: 0x100016698, symSize: 0x30 }
  - { offsetInCU: 0x1D036, offset: 0x1D036, size: 0x8, addend: 0x0, symName: __ZNSt3__127__do_deallocate_handle_sizeB7v160006IJEEEvPvmDpT_, symObjAddr: 0x14A74, symBinAddr: 0x1000166C8, symSize: 0x28 }
  - { offsetInCU: 0x1D074, offset: 0x1D074, size: 0x8, addend: 0x0, symName: __ZNSt3__124__libcpp_operator_deleteB7v160006IJPvSt11align_val_tEEEvDpT_, symObjAddr: 0x14A9C, symBinAddr: 0x1000166F0, symSize: 0x2C }
  - { offsetInCU: 0x1D0BD, offset: 0x1D0BD, size: 0x8, addend: 0x0, symName: __ZNSt3__124__libcpp_operator_deleteB7v160006IJPvEEEvDpT_, symObjAddr: 0x14AC8, symBinAddr: 0x10001671C, symSize: 0x24 }
  - { offsetInCU: 0x1D0F2, offset: 0x1D0F2, size: 0x8, addend: 0x0, symName: __ZNSt3__122__make_exception_guardB7v160006INS_6vectorINS_5arrayImLm3EEENS_9allocatorIS3_EEE16__destroy_vectorEEENS_28__exception_guard_exceptionsIT_EES9_, symObjAddr: 0x15254, symBinAddr: 0x100016EA8, symSize: 0x278 }
  - { offsetInCU: 0x1D12B, offset: 0x1D12B, size: 0x8, addend: 0x0, symName: __ZNSt3__119__debug_db_insert_cB7v160006INS_6vectorINS_5arrayImLm3EEENS_9allocatorIS3_EEEEEEvPT_, symObjAddr: 0x15500, symBinAddr: 0x100017154, symSize: 0x10 }
  - { offsetInCU: 0x1D15C, offset: 0x1D15C, size: 0x8, addend: 0x0, symName: __ZNSt3__119__allocate_at_leastB7v160006INS_9allocatorINS_5arrayImLm3EEEEEEENS_19__allocation_resultINS_16allocator_traitsIT_E7pointerEEERS7_m, symObjAddr: 0x1681C, symBinAddr: 0x100018470, symSize: 0x28C }
  - { offsetInCU: 0x1D1A1, offset: 0x1D1A1, size: 0x8, addend: 0x0, symName: __ZNSt3__112__to_addressB7v160006INS_5arrayImLm3EEEEEPT_S4_, symObjAddr: 0x16EA4, symBinAddr: 0x100018AF8, symSize: 0x14 }
  - { offsetInCU: 0x1D1D6, offset: 0x1D1D6, size: 0x8, addend: 0x0, symName: __ZNSt3__130__uninitialized_allocator_copyB7v160006INS_9allocatorINS_5arrayImLm3EEEEES3_S3_LPv0EEEPT0_RT_PKS6_SB_S7_, symObjAddr: 0x16F54, symBinAddr: 0x100018BA8, symSize: 0x38 }
  - { offsetInCU: 0x1D24E, offset: 0x1D24E, size: 0x8, addend: 0x0, symName: __ZNSt3__14copyB7v160006IPKNS_5arrayImLm3EEEPS2_EET0_T_S7_S6_, symObjAddr: 0x17338, symBinAddr: 0x100018F8C, symSize: 0x26C }
  - { offsetInCU: 0x1D2AB, offset: 0x1D2AB, size: 0x8, addend: 0x0, symName: __ZNSt3__16__copyB7v160006INS_17_ClassicAlgPolicyEPKNS_5arrayImLm3EEES5_PS3_EENS_4pairIT0_T2_EES8_T1_S9_, symObjAddr: 0x175A4, symBinAddr: 0x1000191F8, symSize: 0x22C }
  - { offsetInCU: 0x1D31A, offset: 0x1D31A, size: 0x8, addend: 0x0, symName: __ZNSt3__123__dispatch_copy_or_moveB7v160006INS_17_ClassicAlgPolicyENS_11__copy_loopIS1_EENS_14__copy_trivialEPKNS_5arrayImLm3EEES8_PS6_EENS_4pairIT2_T4_EESB_T3_SC_, symObjAddr: 0x177D0, symBinAddr: 0x100019424, symSize: 0x22C }
  - { offsetInCU: 0x1D39B, offset: 0x1D39B, size: 0x8, addend: 0x0, symName: __ZNSt3__121__unwrap_and_dispatchB7v160006INS_10__overloadINS_11__copy_loopINS_17_ClassicAlgPolicyEEENS_14__copy_trivialEEEPKNS_5arrayImLm3EEESA_PS8_Li0EEENS_4pairIT0_T2_EESD_T1_SE_, symObjAddr: 0x179FC, symBinAddr: 0x100019650, symSize: 0x5A4 }
  - { offsetInCU: 0x1D434, offset: 0x1D434, size: 0x8, addend: 0x0, symName: __ZNSt3__114__unwrap_rangeB7v160006IPKNS_5arrayImLm3EEES4_EEDaT_T0_, symObjAddr: 0x17FA0, symBinAddr: 0x100019BF4, symSize: 0x224 }
  - { offsetInCU: 0x1D585, offset: 0x1D585, size: 0x8, addend: 0x0, symName: __ZNSt3__113__unwrap_iterB7v160006IPNS_5arrayImLm3EEENS_18__unwrap_iter_implIS3_Lb1EEELi0EEEDTclsrT0_8__unwrapclsr3stdE7declvalIT_EEEES7_, symObjAddr: 0x183F4, symBinAddr: 0x10001A048, symSize: 0x24 }
  - { offsetInCU: 0x1D5C9, offset: 0x1D5C9, size: 0x8, addend: 0x0, symName: __ZNSt3__19make_pairB7v160006IPKNS_5arrayImLm3EEEPS2_EENS_4pairINS_18__unwrap_ref_decayIT_E4typeENS7_IT0_E4typeEEEOS8_OSB_, symObjAddr: 0x18418, symBinAddr: 0x10001A06C, symSize: 0x20C }
  - { offsetInCU: 0x1D61A, offset: 0x1D61A, size: 0x8, addend: 0x0, symName: __ZNSt3__114__rewrap_rangeB7v160006IPKNS_5arrayImLm3EEES4_S4_EET0_S5_T1_, symObjAddr: 0x18624, symBinAddr: 0x10001A278, symSize: 0x2C }
  - { offsetInCU: 0x1D66F, offset: 0x1D66F, size: 0x8, addend: 0x0, symName: __ZNSt3__113__rewrap_iterB7v160006IPNS_5arrayImLm3EEES3_NS_18__unwrap_iter_implIS3_Lb1EEEEET_S6_T0_, symObjAddr: 0x18650, symBinAddr: 0x10001A2A4, symSize: 0x48 }
  - { offsetInCU: 0x1D7E0, offset: 0x1D7E0, size: 0x8, addend: 0x0, symName: __ZNSt3__113__unwrap_iterB7v160006IPKNS_5arrayImLm3EEENS_18__unwrap_iter_implIS4_Lb1EEELi0EEEDTclsrT0_8__unwrapclsr3stdE7declvalIT_EEEES8_, symObjAddr: 0x189A4, symBinAddr: 0x10001A5F8, symSize: 0x24 }
  - { offsetInCU: 0x1D877, offset: 0x1D877, size: 0x8, addend: 0x0, symName: __ZNSt3__112__to_addressB7v160006IKNS_5arrayImLm3EEEEEPT_S5_, symObjAddr: 0x18A28, symBinAddr: 0x10001A67C, symSize: 0x14 }
  - { offsetInCU: 0x1D8AC, offset: 0x1D8AC, size: 0x8, addend: 0x0, symName: __ZNSt3__119__copy_trivial_implB7v160006IKNS_5arrayImLm3EEES2_EENS_4pairIPT_PT0_EES6_S6_S8_, symObjAddr: 0x18B74, symBinAddr: 0x10001A7C8, symSize: 0x3C0 }
  - { offsetInCU: 0x1D91B, offset: 0x1D91B, size: 0x8, addend: 0x0, symName: __ZNSt3__19make_pairB7v160006IRPKNS_5arrayImLm3EEEPS2_EENS_4pairINS_18__unwrap_ref_decayIT_E4typeENS8_IT0_E4typeEEEOS9_OSC_, symObjAddr: 0x18F34, symBinAddr: 0x10001AB88, symSize: 0x20C }
  - { offsetInCU: 0x1D9BF, offset: 0x1D9BF, size: 0x8, addend: 0x0, symName: __ZNSt3__113__rewrap_iterB7v160006IPKNS_5arrayImLm3EEES4_NS_18__unwrap_iter_implIS4_Lb1EEEEET_S7_T0_, symObjAddr: 0x19478, symBinAddr: 0x10001B0CC, symSize: 0x48 }
  - { offsetInCU: 0x1DA14, offset: 0x1DA14, size: 0x8, addend: 0x0, symName: __ZNSt3__118__debug_db_erase_cB7v160006INS_6vectorINS_5arrayImLm3EEENS_9allocatorIS3_EEEEEEvPT_, symObjAddr: 0x19CD4, symBinAddr: 0x10001B928, symSize: 0x10 }
  - { offsetInCU: 0x1DA45, offset: 0x1DA45, size: 0x8, addend: 0x0, symName: __ZNSt3__110destroy_atB7v160006INS_5arrayImLm3EEELi0EEEvPT_, symObjAddr: 0x19EB8, symBinAddr: 0x10001BB0C, symSize: 0x24 }
  - { offsetInCU: 0x1DA7C, offset: 0x1DA7C, size: 0x8, addend: 0x0, symName: __ZNSt3__112__destroy_atB7v160006INS_5arrayImLm3EEELi0EEEvPT_, symObjAddr: 0x19EDC, symBinAddr: 0x10001BB30, symSize: 0x10 }
  - { offsetInCU: 0x1DAB3, offset: 0x1DAB3, size: 0x8, addend: 0x0, symName: __ZNSt3__122__make_exception_guardB7v160006INS_6vectorINS_5arrayImLm1EEENS_9allocatorIS3_EEE16__destroy_vectorEEENS_28__exception_guard_exceptionsIT_EES9_, symObjAddr: 0x1A6A4, symBinAddr: 0x10001C2F8, symSize: 0x278 }
  - { offsetInCU: 0x1DAEC, offset: 0x1DAEC, size: 0x8, addend: 0x0, symName: __ZNSt3__119__debug_db_insert_cB7v160006INS_6vectorINS_5arrayImLm1EEENS_9allocatorIS3_EEEEEEvPT_, symObjAddr: 0x1A950, symBinAddr: 0x10001C5A4, symSize: 0x10 }
  - { offsetInCU: 0x1DB1D, offset: 0x1DB1D, size: 0x8, addend: 0x0, symName: __ZNSt3__119__allocate_at_leastB7v160006INS_9allocatorINS_5arrayImLm1EEEEEEENS_19__allocation_resultINS_16allocator_traitsIT_E7pointerEEERS7_m, symObjAddr: 0x1BC5C, symBinAddr: 0x10001D8B0, symSize: 0x28C }
  - { offsetInCU: 0x1DB62, offset: 0x1DB62, size: 0x8, addend: 0x0, symName: __ZNSt3__112__to_addressB7v160006INS_5arrayImLm1EEEEEPT_S4_, symObjAddr: 0x1C2C4, symBinAddr: 0x10001DF18, symSize: 0x14 }
  - { offsetInCU: 0x1DB97, offset: 0x1DB97, size: 0x8, addend: 0x0, symName: __ZNSt3__130__uninitialized_allocator_copyB7v160006INS_9allocatorINS_5arrayImLm1EEEEES3_S3_LPv0EEEPT0_RT_PKS6_SB_S7_, symObjAddr: 0x1C374, symBinAddr: 0x10001DFC8, symSize: 0x38 }
  - { offsetInCU: 0x1DC0F, offset: 0x1DC0F, size: 0x8, addend: 0x0, symName: __ZNSt3__14copyB7v160006IPKNS_5arrayImLm1EEEPS2_EET0_T_S7_S6_, symObjAddr: 0x1C730, symBinAddr: 0x10001E384, symSize: 0x26C }
  - { offsetInCU: 0x1DC6C, offset: 0x1DC6C, size: 0x8, addend: 0x0, symName: __ZNSt3__16__copyB7v160006INS_17_ClassicAlgPolicyEPKNS_5arrayImLm1EEES5_PS3_EENS_4pairIT0_T2_EES8_T1_S9_, symObjAddr: 0x1C99C, symBinAddr: 0x10001E5F0, symSize: 0x22C }
  - { offsetInCU: 0x1DCDB, offset: 0x1DCDB, size: 0x8, addend: 0x0, symName: __ZNSt3__123__dispatch_copy_or_moveB7v160006INS_17_ClassicAlgPolicyENS_11__copy_loopIS1_EENS_14__copy_trivialEPKNS_5arrayImLm1EEES8_PS6_EENS_4pairIT2_T4_EESB_T3_SC_, symObjAddr: 0x1CBC8, symBinAddr: 0x10001E81C, symSize: 0x22C }
  - { offsetInCU: 0x1DD5C, offset: 0x1DD5C, size: 0x8, addend: 0x0, symName: __ZNSt3__121__unwrap_and_dispatchB7v160006INS_10__overloadINS_11__copy_loopINS_17_ClassicAlgPolicyEEENS_14__copy_trivialEEEPKNS_5arrayImLm1EEESA_PS8_Li0EEENS_4pairIT0_T2_EESD_T1_SE_, symObjAddr: 0x1CDF4, symBinAddr: 0x10001EA48, symSize: 0x5A4 }
  - { offsetInCU: 0x1DDF5, offset: 0x1DDF5, size: 0x8, addend: 0x0, symName: __ZNSt3__114__unwrap_rangeB7v160006IPKNS_5arrayImLm1EEES4_EEDaT_T0_, symObjAddr: 0x1D398, symBinAddr: 0x10001EFEC, symSize: 0x224 }
  - { offsetInCU: 0x1DF46, offset: 0x1DF46, size: 0x8, addend: 0x0, symName: __ZNSt3__113__unwrap_iterB7v160006IPNS_5arrayImLm1EEENS_18__unwrap_iter_implIS3_Lb1EEELi0EEEDTclsrT0_8__unwrapclsr3stdE7declvalIT_EEEES7_, symObjAddr: 0x1D7EC, symBinAddr: 0x10001F440, symSize: 0x24 }
  - { offsetInCU: 0x1DF8A, offset: 0x1DF8A, size: 0x8, addend: 0x0, symName: __ZNSt3__19make_pairB7v160006IPKNS_5arrayImLm1EEEPS2_EENS_4pairINS_18__unwrap_ref_decayIT_E4typeENS7_IT0_E4typeEEEOS8_OSB_, symObjAddr: 0x1D810, symBinAddr: 0x10001F464, symSize: 0x20C }
  - { offsetInCU: 0x1DFDB, offset: 0x1DFDB, size: 0x8, addend: 0x0, symName: __ZNSt3__114__rewrap_rangeB7v160006IPKNS_5arrayImLm1EEES4_S4_EET0_S5_T1_, symObjAddr: 0x1DA1C, symBinAddr: 0x10001F670, symSize: 0x2C }
  - { offsetInCU: 0x1E030, offset: 0x1E030, size: 0x8, addend: 0x0, symName: __ZNSt3__113__rewrap_iterB7v160006IPNS_5arrayImLm1EEES3_NS_18__unwrap_iter_implIS3_Lb1EEEEET_S6_T0_, symObjAddr: 0x1DA48, symBinAddr: 0x10001F69C, symSize: 0x48 }
  - { offsetInCU: 0x1E1A1, offset: 0x1E1A1, size: 0x8, addend: 0x0, symName: __ZNSt3__113__unwrap_iterB7v160006IPKNS_5arrayImLm1EEENS_18__unwrap_iter_implIS4_Lb1EEELi0EEEDTclsrT0_8__unwrapclsr3stdE7declvalIT_EEEES8_, symObjAddr: 0x1DD9C, symBinAddr: 0x10001F9F0, symSize: 0x24 }
  - { offsetInCU: 0x1E238, offset: 0x1E238, size: 0x8, addend: 0x0, symName: __ZNSt3__112__to_addressB7v160006IKNS_5arrayImLm1EEEEEPT_S5_, symObjAddr: 0x1DE20, symBinAddr: 0x10001FA74, symSize: 0x14 }
  - { offsetInCU: 0x1E26D, offset: 0x1E26D, size: 0x8, addend: 0x0, symName: __ZNSt3__119__copy_trivial_implB7v160006IKNS_5arrayImLm1EEES2_EENS_4pairIPT_PT0_EES6_S6_S8_, symObjAddr: 0x1DF6C, symBinAddr: 0x10001FBC0, symSize: 0x3B8 }
  - { offsetInCU: 0x1E2DC, offset: 0x1E2DC, size: 0x8, addend: 0x0, symName: __ZNSt3__19make_pairB7v160006IRPKNS_5arrayImLm1EEEPS2_EENS_4pairINS_18__unwrap_ref_decayIT_E4typeENS8_IT0_E4typeEEEOS9_OSC_, symObjAddr: 0x1E324, symBinAddr: 0x10001FF78, symSize: 0x20C }
  - { offsetInCU: 0x1E380, offset: 0x1E380, size: 0x8, addend: 0x0, symName: __ZNSt3__113__rewrap_iterB7v160006IPKNS_5arrayImLm1EEES4_NS_18__unwrap_iter_implIS4_Lb1EEEEET_S7_T0_, symObjAddr: 0x1E868, symBinAddr: 0x1000204BC, symSize: 0x48 }
  - { offsetInCU: 0x1E3D5, offset: 0x1E3D5, size: 0x8, addend: 0x0, symName: __ZNSt3__118__debug_db_erase_cB7v160006INS_6vectorINS_5arrayImLm1EEENS_9allocatorIS3_EEEEEEvPT_, symObjAddr: 0x1F07C, symBinAddr: 0x100020CD0, symSize: 0x10 }
  - { offsetInCU: 0x1E406, offset: 0x1E406, size: 0x8, addend: 0x0, symName: __ZNSt3__110destroy_atB7v160006INS_5arrayImLm1EEELi0EEEvPT_, symObjAddr: 0x1F260, symBinAddr: 0x100020EB4, symSize: 0x24 }
  - { offsetInCU: 0x1E43D, offset: 0x1E43D, size: 0x8, addend: 0x0, symName: __ZNSt3__112__destroy_atB7v160006INS_5arrayImLm1EEELi0EEEvPT_, symObjAddr: 0x1F284, symBinAddr: 0x100020ED8, symSize: 0x10 }
  - { offsetInCU: 0x1E474, offset: 0x1E474, size: 0x8, addend: 0x0, symName: __ZNSt3__118__debug_db_erase_cB7v160006INS_6vectorIiNS_9allocatorIiEEEEEEvPT_, symObjAddr: 0x1FE80, symBinAddr: 0x100021AD4, symSize: 0x10 }
  - { offsetInCU: 0x1E4A5, offset: 0x1E4A5, size: 0x8, addend: 0x0, symName: __ZNSt3__112__to_addressB7v160006IiEEPT_S2_, symObjAddr: 0x20178, symBinAddr: 0x100021DCC, symSize: 0x14 }
  - { offsetInCU: 0x1E4DA, offset: 0x1E4DA, size: 0x8, addend: 0x0, symName: __ZNSt3__110destroy_atB7v160006IiLi0EEEvPT_, symObjAddr: 0x202C8, symBinAddr: 0x100021F1C, symSize: 0x24 }
  - { offsetInCU: 0x1E511, offset: 0x1E511, size: 0x8, addend: 0x0, symName: __ZNSt3__112__destroy_atB7v160006IiLi0EEEvPT_, symObjAddr: 0x202EC, symBinAddr: 0x100021F40, symSize: 0x10 }
  - { offsetInCU: 0x1E548, offset: 0x1E548, size: 0x8, addend: 0x0, symName: __ZNSt3__118__debug_db_erase_cB7v160006INS_6vectorI6CDummyNS_9allocatorIS2_EEEEEEvPT_, symObjAddr: 0x20A04, symBinAddr: 0x100022658, symSize: 0x10 }
  - { offsetInCU: 0x1E579, offset: 0x1E579, size: 0x8, addend: 0x0, symName: __ZNSt3__112__to_addressB7v160006I6CDummyEEPT_S3_, symObjAddr: 0x20CEC, symBinAddr: 0x100022940, symSize: 0x14 }
  - { offsetInCU: 0x1E5AE, offset: 0x1E5AE, size: 0x8, addend: 0x0, symName: __ZNSt3__110destroy_atB7v160006I6CDummyLi0EEEvPT_, symObjAddr: 0x20E3C, symBinAddr: 0x100022A90, symSize: 0x24 }
  - { offsetInCU: 0x1E5E5, offset: 0x1E5E5, size: 0x8, addend: 0x0, symName: __ZNSt3__112__destroy_atB7v160006I6CDummyLi0EEEvPT_, symObjAddr: 0x20E60, symBinAddr: 0x100022AB4, symSize: 0x10 }
  - { offsetInCU: 0x1E61C, offset: 0x1E61C, size: 0x8, addend: 0x0, symName: __ZNSt3__118__debug_db_erase_cB7v160006INS_6vectorIcNS_9allocatorIcEEEEEEvPT_, symObjAddr: 0x21578, symBinAddr: 0x1000231CC, symSize: 0x10 }
  - { offsetInCU: 0x1E64D, offset: 0x1E64D, size: 0x8, addend: 0x0, symName: __ZNSt3__112__to_addressB7v160006IcEEPT_S2_, symObjAddr: 0x21860, symBinAddr: 0x1000234B4, symSize: 0x14 }
  - { offsetInCU: 0x1E682, offset: 0x1E682, size: 0x8, addend: 0x0, symName: __ZNSt3__110destroy_atB7v160006IcLi0EEEvPT_, symObjAddr: 0x219B0, symBinAddr: 0x100023604, symSize: 0x24 }
  - { offsetInCU: 0x1E6B9, offset: 0x1E6B9, size: 0x8, addend: 0x0, symName: __ZNSt3__112__destroy_atB7v160006IcLi0EEEvPT_, symObjAddr: 0x219D4, symBinAddr: 0x100023628, symSize: 0x10 }
  - { offsetInCU: 0x1E6F0, offset: 0x1E6F0, size: 0x8, addend: 0x0, symName: __ZNSt3__15beginB7v160006INS_12basic_stringIcNS_11char_traitsIcEENS_9allocatorIcEEEEEEDTcldtfp_5beginEERKT_, symObjAddr: 0x21DD8, symBinAddr: 0x100023A2C, symSize: 0x234 }
  - { offsetInCU: 0x1E726, offset: 0x1E726, size: 0x8, addend: 0x0, symName: __ZNSt3__13endB7v160006INS_12basic_stringIcNS_11char_traitsIcEENS_9allocatorIcEEEEEEDTcldtfp_3endEERKT_, symObjAddr: 0x2200C, symBinAddr: 0x100023C60, symSize: 0x234 }
  - { offsetInCU: 0x1E78F, offset: 0x1E78F, size: 0x8, addend: 0x0, symName: __ZNSt3__122__make_exception_guardB7v160006INS_6vectorIcNS_9allocatorIcEEE16__destroy_vectorEEENS_28__exception_guard_exceptionsIT_EES7_, symObjAddr: 0x23718, symBinAddr: 0x10002536C, symSize: 0x278 }
  - { offsetInCU: 0x1E7C8, offset: 0x1E7C8, size: 0x8, addend: 0x0, symName: __ZNSt3__119__debug_db_insert_cB7v160006INS_6vectorIcNS_9allocatorIcEEEEEEvPT_, symObjAddr: 0x23990, symBinAddr: 0x1000255E4, symSize: 0x10 }
  - { offsetInCU: 0x1E7F9, offset: 0x1E7F9, size: 0x8, addend: 0x0, symName: __ZNSt3__18distanceB7v160006INS_11__wrap_iterIPKcEEEENS_15iterator_traitsIT_E15difference_typeES6_S6_, symObjAddr: 0x239A0, symBinAddr: 0x1000255F4, symSize: 0x350 }
  - { offsetInCU: 0x1E844, offset: 0x1E844, size: 0x8, addend: 0x0, symName: __ZNSt3__110__distanceB7v160006INS_11__wrap_iterIPKcEEEENS_15iterator_traitsIT_E15difference_typeES6_S6_NS_26random_access_iterator_tagE, symObjAddr: 0x24C50, symBinAddr: 0x1000268A4, symSize: 0x274 }
  - { offsetInCU: 0x1E89A, offset: 0x1E89A, size: 0x8, addend: 0x0, symName: __ZNSt3__1miB7v160006IPKcS2_EEDTmicldtfp_4baseEcldtfp0_4baseEERKNS_11__wrap_iterIT_EERKNS4_IT0_EE, symObjAddr: 0x24EC4, symBinAddr: 0x100026B18, symSize: 0x40 }
  - { offsetInCU: 0x1E8E6, offset: 0x1E8E6, size: 0x8, addend: 0x0, symName: __ZNSt3__119__allocate_at_leastB7v160006INS_9allocatorIcEEEENS_19__allocation_resultINS_16allocator_traitsIT_E7pointerEEERS5_m, symObjAddr: 0x25280, symBinAddr: 0x100026ED4, symSize: 0x28C }
  - { offsetInCU: 0x1E92B, offset: 0x1E92B, size: 0x8, addend: 0x0, symName: __ZNSt3__130__uninitialized_allocator_copyB7v160006INS_9allocatorIcEENS_11__wrap_iterIPKcEES6_PcEET2_RT_T0_T1_S8_, symObjAddr: 0x2574C, symBinAddr: 0x1000273A0, symSize: 0x5BC }
  - { offsetInCU: 0x1E9DF, offset: 0x1E9DF, size: 0x8, addend: 0x0, symName: __ZNSt3__122__make_exception_guardB7v160006INS_29_AllocatorDestroyRangeReverseINS_9allocatorIcEEPcEEEENS_28__exception_guard_exceptionsIT_EES7_, symObjAddr: 0x25FDC, symBinAddr: 0x100027C30, symSize: 0x1F8 }
  - { offsetInCU: 0x1EA16, offset: 0x1EA16, size: 0x8, addend: 0x0, symName: __ZNSt3__1neB7v160006IPKcEEbRKNS_11__wrap_iterIT_EES7_, symObjAddr: 0x26218, symBinAddr: 0x100027E6C, symSize: 0x34 }
  - { offsetInCU: 0x1EA59, offset: 0x1EA59, size: 0x8, addend: 0x0, symName: __ZNSt3__1eqB7v160006IPKcEEbRKNS_11__wrap_iterIT_EES7_, symObjAddr: 0x265D8, symBinAddr: 0x10002822C, symSize: 0x48 }
  - { offsetInCU: 0x1EAC1, offset: 0x1EAC1, size: 0x8, addend: 0x0, symName: __ZNSt3__112construct_atB7v160006IcJRKcEPcEEPT_S5_DpOT0_, symObjAddr: 0x26620, symBinAddr: 0x100028274, symSize: 0x100 }
  - { offsetInCU: 0x1EB31, offset: 0x1EB31, size: 0x8, addend: 0x0, symName: __ZNSt3__119__allocator_destroyB7v160006INS_9allocatorIcEENS_16reverse_iteratorIPcEES5_EEvRT_T0_T1_, symObjAddr: 0x26B78, symBinAddr: 0x1000287CC, symSize: 0x2B8 }
  - { offsetInCU: 0x1EB9D, offset: 0x1EB9D, size: 0x8, addend: 0x0, symName: __ZNSt3__1neB7v160006IPcS1_EEbRKNS_16reverse_iteratorIT_EERKNS2_IT0_EE, symObjAddr: 0x26E64, symBinAddr: 0x100028AB8, symSize: 0x48 }
  - { offsetInCU: 0x1EBE9, offset: 0x1EBE9, size: 0x8, addend: 0x0, symName: __ZNSt3__112__to_addressB7v160006INS_16reverse_iteratorIPcEEvEENS_5decayIDTclsr19__to_address_helperIT_EE6__callclsr3stdE7declvalIRKS5_EEEEE4typeES7_, symObjAddr: 0x26EAC, symBinAddr: 0x100028B00, symSize: 0x24 }
  - { offsetInCU: 0x1EC48, offset: 0x1EC48, size: 0x8, addend: 0x0, symName: __ZNSt3__14prevB7v160006IPcEENS_9enable_ifIXsr25__is_cpp17_input_iteratorIT_EE5valueES3_E4typeES3_NS_15iterator_traitsIS3_E15difference_typeE, symObjAddr: 0x27050, symBinAddr: 0x100028CA4, symSize: 0x25C }
  - { offsetInCU: 0x1EC90, offset: 0x1EC90, size: 0x8, addend: 0x0, symName: __ZNSt3__121__convert_to_integralB7v160006El, symObjAddr: 0x272FC, symBinAddr: 0x100028F50, symSize: 0x14 }
  - { offsetInCU: 0x1ECBC, offset: 0x1ECBC, size: 0x8, addend: 0x0, symName: __ZNSt3__19__advanceB7v160006IPcEEvRT_NS_15iterator_traitsIS2_E15difference_typeENS_26random_access_iterator_tagE, symObjAddr: 0x27310, symBinAddr: 0x100028F64, symSize: 0x78 }
  - { offsetInCU: 0x1ED05, offset: 0x1ED05, size: 0x8, addend: 0x0, symName: __ZNSt3__1eqB7v160006IcNS_9allocatorIcEEEEbRKNS_6vectorIT_T0_EES8_, symObjAddr: 0x27DE4, symBinAddr: 0x100029A38, symSize: 0x3FC }
  - { offsetInCU: 0x1ED66, offset: 0x1ED66, size: 0x8, addend: 0x0, symName: __ZNSt3__1neB7v160006IPiEEbRKNS_11__wrap_iterIT_EES6_, symObjAddr: 0x28954, symBinAddr: 0x10002A5A8, symSize: 0x34 }
  - { offsetInCU: 0x1EDA9, offset: 0x1EDA9, size: 0x8, addend: 0x0, symName: __ZNSt3__119__debug_db_insert_cB7v160006INS_6vectorINS1_IcNS_9allocatorIcEEEENS2_IS4_EEEEEEvPT_, symObjAddr: 0x28ED0, symBinAddr: 0x10002AB24, symSize: 0x10 }
  - { offsetInCU: 0x1EDDA, offset: 0x1EDDA, size: 0x8, addend: 0x0, symName: __ZNSt3__119__debug_db_insert_cB7v160006INS_6vectorIiNS_9allocatorIiEEEEEEvPT_, symObjAddr: 0x29320, symBinAddr: 0x10002AF74, symSize: 0x10 }
  - { offsetInCU: 0x1EE0B, offset: 0x1EE0B, size: 0x8, addend: 0x0, symName: __ZNSt3__15equalB7v160006INS_11__wrap_iterIPKcEES4_EEbT_S5_T0_, symObjAddr: 0x296B8, symBinAddr: 0x10002B30C, symSize: 0x40C }
  - { offsetInCU: 0x1EE71, offset: 0x1EE71, size: 0x8, addend: 0x0, symName: __ZNSt3__15equalB7v160006INS_11__wrap_iterIPKcEES4_NS_10__equal_toEEEbT_S6_T0_T1_, symObjAddr: 0x29D30, symBinAddr: 0x10002B984, symSize: 0x380 }
  - { offsetInCU: 0x1F054, offset: 0x1F054, size: 0x8, addend: 0x0, symName: __ZNSt3__112__to_addressB7v160006INS_6vectorIcNS_9allocatorIcEEEEEEPT_S6_, symObjAddr: 0x2A9D4, symBinAddr: 0x10002C628, symSize: 0x14 }
  - { offsetInCU: 0x1F0AE, offset: 0x1F0AE, size: 0x8, addend: 0x0, symName: __ZNSt3__112construct_atB7v160006INS_6vectorIcNS_9allocatorIcEEEEJRKS4_EPS4_EEPT_S9_DpOT0_, symObjAddr: 0x2AEBC, symBinAddr: 0x10002CB10, symSize: 0x3C }
  - { offsetInCU: 0x1F11E, offset: 0x1F11E, size: 0x8, addend: 0x0, symName: __ZNSt3__130__uninitialized_allocator_copyB7v160006INS_9allocatorIcEEPcS3_S3_EET2_RT_T0_T1_S4_, symObjAddr: 0x2B88C, symBinAddr: 0x10002D4E0, symSize: 0x520 }
  - { offsetInCU: 0x1F1CA, offset: 0x1F1CA, size: 0x8, addend: 0x0, symName: __ZNSt3__112construct_atB7v160006IcJRcEPcEEPT_S4_DpOT0_, symObjAddr: 0x2BDDC, symBinAddr: 0x10002DA30, symSize: 0x100 }
  - { offsetInCU: 0x1F23A, offset: 0x1F23A, size: 0x8, addend: 0x0, symName: __ZNSt3__13maxB7v160006ImEERKT_S3_S3_, symObjAddr: 0x2CEF4, symBinAddr: 0x10002EB48, symSize: 0x2C }
  - { offsetInCU: 0x1F27D, offset: 0x1F27D, size: 0x8, addend: 0x0, symName: __ZNSt3__13maxB7v160006ImNS_6__lessImmEEEERKT_S5_S5_T0_, symObjAddr: 0x2CFA8, symBinAddr: 0x10002EBFC, symSize: 0x1E8 }
  - { offsetInCU: 0x1F2DD, offset: 0x1F2DD, size: 0x8, addend: 0x0, symName: __ZNSt3__119__allocate_at_leastB7v160006INS_9allocatorINS_6vectorIcNS1_IcEEEEEEEENS_19__allocation_resultINS_16allocator_traitsIT_E7pointerEEERS8_m, symObjAddr: 0x2D6FC, symBinAddr: 0x10002F350, symSize: 0x28C }
  - { offsetInCU: 0x1F322, offset: 0x1F322, size: 0x8, addend: 0x0, symName: __ZNSt3__142__uninitialized_allocator_move_if_noexceptB7v160006INS_9allocatorINS_6vectorIcNS1_IcEEEEEENS_16reverse_iteratorIPS4_EES8_S8_EET2_RT_T0_T1_S9_, symObjAddr: 0x2DC84, symBinAddr: 0x10002F8D8, symSize: 0x544 }
  - { offsetInCU: 0x1F3D7, offset: 0x1F3D7, size: 0x8, addend: 0x0, symName: __ZNSt3__14swapB7v160006IPNS_6vectorIcNS_9allocatorIcEEEEEENS_9enable_ifIXaasr21is_move_constructibleIT_EE5valuesr18is_move_assignableIS7_EE5valueEvE4typeERS7_SA_, symObjAddr: 0x2E260, symBinAddr: 0x10002FEB4, symSize: 0x134 }
  - { offsetInCU: 0x1F428, offset: 0x1F428, size: 0x8, addend: 0x0, symName: __ZNSt3__125__debug_db_invalidate_allB7v160006INS_6vectorINS1_IcNS_9allocatorIcEEEENS2_IS4_EEEEEEvPT_, symObjAddr: 0x2E470, symBinAddr: 0x1000300C4, symSize: 0x10 }
  - { offsetInCU: 0x1F459, offset: 0x1F459, size: 0x8, addend: 0x0, symName: __ZNSt3__122__make_exception_guardB7v160006INS_29_AllocatorDestroyRangeReverseINS_9allocatorINS_6vectorIcNS2_IcEEEEEENS_16reverse_iteratorIPS5_EEEEEENS_28__exception_guard_exceptionsIT_EESC_, symObjAddr: 0x2E480, symBinAddr: 0x1000300D4, symSize: 0x1F8 }
  - { offsetInCU: 0x1F490, offset: 0x1F490, size: 0x8, addend: 0x0, symName: __ZNSt3__1neB7v160006IPNS_6vectorIcNS_9allocatorIcEEEES5_EEbRKNS_16reverse_iteratorIT_EERKNS6_IT0_EE, symObjAddr: 0x2E6BC, symBinAddr: 0x100030310, symSize: 0x48 }
  - { offsetInCU: 0x1F4DC, offset: 0x1F4DC, size: 0x8, addend: 0x0, symName: __ZNSt3__112__to_addressB7v160006INS_16reverse_iteratorIPNS_6vectorIcNS_9allocatorIcEEEEEEvEENS_5decayIDTclsr19__to_address_helperIT_EE6__callclsr3stdE7declvalIRKS9_EEEEE4typeESB_, symObjAddr: 0x2E734, symBinAddr: 0x100030388, symSize: 0x24 }
  - { offsetInCU: 0x1F512, offset: 0x1F512, size: 0x8, addend: 0x0, symName: __ZNSt3__112construct_atB7v160006INS_6vectorIcNS_9allocatorIcEEEEJS4_EPS4_EEPT_S7_DpOT0_, symObjAddr: 0x2EACC, symBinAddr: 0x100030720, symSize: 0x3C }
  - { offsetInCU: 0x1F582, offset: 0x1F582, size: 0x8, addend: 0x0, symName: __ZNSt3__115__debug_db_swapB7v160006INS_6vectorIcNS_9allocatorIcEEEEEEvPT_S6_, symObjAddr: 0x2F048, symBinAddr: 0x100030C9C, symSize: 0x14 }
  - { offsetInCU: 0x1F5EA, offset: 0x1F5EA, size: 0x8, addend: 0x0, symName: __ZNSt3__14prevB7v160006IPNS_6vectorIcNS_9allocatorIcEEEEEENS_9enable_ifIXsr25__is_cpp17_input_iteratorIT_EE5valueES7_E4typeES7_NS_15iterator_traitsIS7_E15difference_typeE, symObjAddr: 0x2F10C, symBinAddr: 0x100030D60, symSize: 0x25C }
  - { offsetInCU: 0x1F632, offset: 0x1F632, size: 0x8, addend: 0x0, symName: __ZNSt3__19__advanceB7v160006IPNS_6vectorIcNS_9allocatorIcEEEEEEvRT_NS_15iterator_traitsIS6_E15difference_typeENS_26random_access_iterator_tagE, symObjAddr: 0x2F3B8, symBinAddr: 0x10003100C, symSize: 0x80 }
  - { offsetInCU: 0x1F67B, offset: 0x1F67B, size: 0x8, addend: 0x0, symName: __ZNSt3__119__allocator_destroyB7v160006INS_9allocatorINS_6vectorIcNS1_IcEEEEEENS_16reverse_iteratorINS6_IPS4_EEEES9_EEvRT_T0_T1_, symObjAddr: 0x2F89C, symBinAddr: 0x1000314F0, symSize: 0x70 }
  - { offsetInCU: 0x1F6E0, offset: 0x1F6E0, size: 0x8, addend: 0x0, symName: __ZNSt3__1neB7v160006INS_16reverse_iteratorIPNS_6vectorIcNS_9allocatorIcEEEEEES7_EEbRKNS1_IT_EERKNS1_IT0_EE, symObjAddr: 0x2FB54, symBinAddr: 0x1000317A8, symSize: 0x2CC }
  - { offsetInCU: 0x1F72E, offset: 0x1F72E, size: 0x8, addend: 0x0, symName: __ZNSt3__112__to_addressB7v160006INS_16reverse_iteratorINS1_IPNS_6vectorIcNS_9allocatorIcEEEEEEEEvEENS_5decayIDTclsr19__to_address_helperIT_EE6__callclsr3stdE7declvalIRKSA_EEEEE4typeESC_, symObjAddr: 0x2FE48, symBinAddr: 0x100031A9C, symSize: 0x24 }
  - { offsetInCU: 0x1F764, offset: 0x1F764, size: 0x8, addend: 0x0, symName: __ZNSt3__110destroy_atB7v160006INS_6vectorIcNS_9allocatorIcEEEELi0EEEvPT_, symObjAddr: 0x300A8, symBinAddr: 0x100031CFC, symSize: 0x24 }
  - { offsetInCU: 0x1F79B, offset: 0x1F79B, size: 0x8, addend: 0x0, symName: __ZNSt3__112__destroy_atB7v160006INS_6vectorIcNS_9allocatorIcEEEELi0EEEvPT_, symObjAddr: 0x300CC, symBinAddr: 0x100031D20, symSize: 0x24 }
  - { offsetInCU: 0x1F7FB, offset: 0x1F7FB, size: 0x8, addend: 0x0, symName: __ZNSt3__14prevB7v160006INS_16reverse_iteratorIPNS_6vectorIcNS_9allocatorIcEEEEEEEENS_9enable_ifIXsr25__is_cpp17_input_iteratorIT_EE5valueES9_E4typeES9_NS_15iterator_traitsIS9_E15difference_typeE, symObjAddr: 0x303D4, symBinAddr: 0x100032028, symSize: 0x2B0 }
  - { offsetInCU: 0x1F843, offset: 0x1F843, size: 0x8, addend: 0x0, symName: __ZNSt3__19__advanceB7v160006INS_16reverse_iteratorIPNS_6vectorIcNS_9allocatorIcEEEEEEEEvRT_NS_15iterator_traitsIS8_E15difference_typeENS_26random_access_iterator_tagE, symObjAddr: 0x306D4, symBinAddr: 0x100032328, symSize: 0x2C }
  - { offsetInCU: 0x1F8B1, offset: 0x1F8B1, size: 0x8, addend: 0x0, symName: __ZNSt3__112construct_atB7v160006IiJiEPiEEPT_S3_DpOT0_, symObjAddr: 0x319D0, symBinAddr: 0x100033624, symSize: 0x108 }
  - { offsetInCU: 0x1F921, offset: 0x1F921, size: 0x8, addend: 0x0, symName: __ZNSt3__119__allocate_at_leastB7v160006INS_9allocatorIiEEEENS_19__allocation_resultINS_16allocator_traitsIT_E7pointerEEERS5_m, symObjAddr: 0x33080, symBinAddr: 0x100034CD4, symSize: 0x28C }
  - { offsetInCU: 0x1F966, offset: 0x1F966, size: 0x8, addend: 0x0, symName: __ZNSt3__142__uninitialized_allocator_move_if_noexceptB7v160006INS_9allocatorIiEENS_16reverse_iteratorIPiEES5_ivEET1_RT_T0_S9_S6_, symObjAddr: 0x3351C, symBinAddr: 0x100035170, symSize: 0x4A8 }
  - { offsetInCU: 0x1F9F0, offset: 0x1F9F0, size: 0x8, addend: 0x0, symName: __ZNSt3__14swapB7v160006IPiEENS_9enable_ifIXaasr21is_move_constructibleIT_EE5valuesr18is_move_assignableIS3_EE5valueEvE4typeERS3_S6_, symObjAddr: 0x33A5C, symBinAddr: 0x1000356B0, symSize: 0x134 }
  - { offsetInCU: 0x1FA41, offset: 0x1FA41, size: 0x8, addend: 0x0, symName: __ZNSt3__125__debug_db_invalidate_allB7v160006INS_6vectorIiNS_9allocatorIiEEEEEEvPT_, symObjAddr: 0x33C50, symBinAddr: 0x1000358A4, symSize: 0x10 }
  - { offsetInCU: 0x1FA72, offset: 0x1FA72, size: 0x8, addend: 0x0, symName: __ZNSt3__14moveB7v160006INS_16reverse_iteratorIPiEES3_EET0_T_S5_S4_, symObjAddr: 0x33C60, symBinAddr: 0x1000358B4, symSize: 0x4B0 }
  - { offsetInCU: 0x1FAD9, offset: 0x1FAD9, size: 0x8, addend: 0x0, symName: __ZNSt3__16__moveB7v160006INS_17_ClassicAlgPolicyENS_16reverse_iteratorIPiEES4_S4_EENS_4pairIT0_T2_EES6_T1_S7_, symObjAddr: 0x34110, symBinAddr: 0x100035D64, symSize: 0x424 }
  - { offsetInCU: 0x1FB51, offset: 0x1FB51, size: 0x8, addend: 0x0, symName: __ZNSt3__123__dispatch_copy_or_moveB7v160006INS_17_ClassicAlgPolicyENS_11__move_loopIS1_EENS_14__move_trivialENS_16reverse_iteratorIPiEES7_S7_EENS_4pairIT2_T4_EES9_T3_SA_, symObjAddr: 0x34534, symBinAddr: 0x100036188, symSize: 0x424 }
  - { offsetInCU: 0x1FBDB, offset: 0x1FBDB, size: 0x8, addend: 0x0, symName: __ZNSt3__121__unwrap_and_dispatchB7v160006INS_10__overloadINS_11__move_loopINS_17_ClassicAlgPolicyEEENS_14__move_trivialEEENS_16reverse_iteratorIPiEES9_S9_Li0EEENS_4pairIT0_T2_EESB_T1_SC_, symObjAddr: 0x34958, symBinAddr: 0x1000365AC, symSize: 0x880 }
  - { offsetInCU: 0x1FC7F, offset: 0x1FC7F, size: 0x8, addend: 0x0, symName: __ZNSt3__114__unwrap_rangeB7v160006INS_16reverse_iteratorIPiEES3_EEDaT_T0_, symObjAddr: 0x351D8, symBinAddr: 0x100036E2C, symSize: 0x35C }
  - { offsetInCU: 0x1FEFE, offset: 0x1FEFE, size: 0x8, addend: 0x0, symName: __ZNSt3__113__unwrap_iterB7v160006INS_16reverse_iteratorIPiEENS_18__unwrap_iter_implIS3_Lb0EEELi0EEEDTclsrT0_8__unwrapclsr3stdE7declvalIT_EEEES7_, symObjAddr: 0x3592C, symBinAddr: 0x100037580, symSize: 0x2EC }
  - { offsetInCU: 0x1FF46, offset: 0x1FF46, size: 0x8, addend: 0x0, symName: __ZNSt3__19make_pairB7v160006INS_16reverse_iteratorIPiEES3_EENS_4pairINS_18__unwrap_ref_decayIT_E4typeENS5_IT0_E4typeEEEOS6_OS9_, symObjAddr: 0x35C18, symBinAddr: 0x10003786C, symSize: 0x38 }
  - { offsetInCU: 0x1FF95, offset: 0x1FF95, size: 0x8, addend: 0x0, symName: __ZNSt3__114__rewrap_rangeB7v160006INS_16reverse_iteratorIPiEES3_S3_EET0_S4_T1_, symObjAddr: 0x35C50, symBinAddr: 0x1000378A4, symSize: 0x3D4 }
  - { offsetInCU: 0x1FFF2, offset: 0x1FFF2, size: 0x8, addend: 0x0, symName: __ZNSt3__113__rewrap_iterB7v160006INS_16reverse_iteratorIPiEES3_NS_18__unwrap_iter_implIS3_Lb0EEEEET_S6_T0_, symObjAddr: 0x36024, symBinAddr: 0x100037C78, symSize: 0x3E8 }
  - { offsetInCU: 0x2009F, offset: 0x2009F, size: 0x8, addend: 0x0, symName: __ZNSt3__1neB7v160006IPiS1_EEbRKNS_16reverse_iteratorIT_EERKNS2_IT0_EE, symObjAddr: 0x368E4, symBinAddr: 0x100038538, symSize: 0x48 }
  - { offsetInCU: 0x2040B, offset: 0x2040B, size: 0x8, addend: 0x0, symName: __ZNSt3__1eqB7v160006IPiEEbRKNS_11__wrap_iterIT_EES6_, symObjAddr: 0x37A74, symBinAddr: 0x1000396C8, symSize: 0x48 }
  - { offsetInCU: 0x2044E, offset: 0x2044E, size: 0x8, addend: 0x0, symName: __ZNSt3__118__debug_db_erase_cB7v160006INS_6vectorINS1_IcNS_9allocatorIcEEEENS2_IS4_EEEEEEvPT_, symObjAddr: 0x38194, symBinAddr: 0x100039DE8, symSize: 0x10 }
  - { offsetInCU: 0x2047F, offset: 0x2047F, size: 0x8, addend: 0x0, symName: __ZNSt3__1neB7v160006IPNS_4pairINS_6vectorIcNS_9allocatorIcEEEENS2_ImNS3_ImEEEEEEEEbRKNS_11__wrap_iterIT_EESE_, symObjAddr: 0x386A4, symBinAddr: 0x10003A2F8, symSize: 0x34 }
  - { offsetInCU: 0x204C2, offset: 0x204C2, size: 0x8, addend: 0x0, symName: __ZNSt3__13getB7v160006ILm0ENS_6vectorIcNS_9allocatorIcEEEENS1_ImNS2_ImEEEEEERNS_13tuple_elementIXT_ENS_4pairIT0_T1_EEE4typeERSB_, symObjAddr: 0x38738, symBinAddr: 0x10003A38C, symSize: 0x24 }
  - { offsetInCU: 0x2050C, offset: 0x2050C, size: 0x8, addend: 0x0, symName: __ZNSt3__13getB7v160006ILm1ENS_6vectorIcNS_9allocatorIcEEEENS1_ImNS2_ImEEEEEERNS_13tuple_elementIXT_ENS_4pairIT0_T1_EEE4typeERSB_, symObjAddr: 0x3875C, symBinAddr: 0x10003A3B0, symSize: 0x24 }
  - { offsetInCU: 0x20556, offset: 0x20556, size: 0x8, addend: 0x0, symName: __ZNSt3__15equalB7v160006INS_11__wrap_iterIPcEES3_EEbT_S4_T0_, symObjAddr: 0x38780, symBinAddr: 0x10003A3D4, symSize: 0x40C }
  - { offsetInCU: 0x205BC, offset: 0x205BC, size: 0x8, addend: 0x0, symName: __ZNSt3__13getB7v160006ILm0ENS_6vectorIcNS_9allocatorIcEEEENS1_ImNS2_ImEEEEEERKNS_13tuple_elementIXT_ENS_4pairIT0_T1_EEE4typeERKSB_, symObjAddr: 0x39510, symBinAddr: 0x10003B164, symSize: 0x24 }
  - { offsetInCU: 0x20606, offset: 0x20606, size: 0x8, addend: 0x0, symName: __ZNSt3__13getB7v160006ILm1ENS_6vectorIcNS_9allocatorIcEEEENS1_ImNS2_ImEEEEEERKNS_13tuple_elementIXT_ENS_4pairIT0_T1_EEE4typeERKSB_, symObjAddr: 0x39534, symBinAddr: 0x10003B188, symSize: 0x24 }
  - { offsetInCU: 0x20650, offset: 0x20650, size: 0x8, addend: 0x0, symName: __ZNSt3__119__debug_db_insert_cB7v160006INS_6vectorINS_4pairINS1_IcNS_9allocatorIcEEEENS1_ImNS3_ImEEEEEENS3_IS8_EEEEEEvPT_, symObjAddr: 0x39D2C, symBinAddr: 0x10003B980, symSize: 0x10 }
  - { offsetInCU: 0x20681, offset: 0x20681, size: 0x8, addend: 0x0, symName: __ZNSt3__1eqB7v160006IPNS_4pairINS_6vectorIcNS_9allocatorIcEEEENS2_ImNS3_ImEEEEEEEEbRKNS_11__wrap_iterIT_EESE_, symObjAddr: 0x3A0FC, symBinAddr: 0x10003BD50, symSize: 0x48 }
  - { offsetInCU: 0x208CE, offset: 0x208CE, size: 0x8, addend: 0x0, symName: __ZNSt3__15equalB7v160006INS_11__wrap_iterIPcEES3_NS_10__equal_toEEEbT_S5_T0_T1_, symObjAddr: 0x3A1D0, symBinAddr: 0x10003BE24, symSize: 0x380 }
  - { offsetInCU: 0x20950, offset: 0x20950, size: 0x8, addend: 0x0, symName: __ZNSt3__1neB7v160006IPcEEbRKNS_11__wrap_iterIT_EES6_, symObjAddr: 0x3A550, symBinAddr: 0x10003C1A4, symSize: 0x34 }
  - { offsetInCU: 0x20993, offset: 0x20993, size: 0x8, addend: 0x0, symName: __ZNSt3__1eqB7v160006IPcEEbRKNS_11__wrap_iterIT_EES6_, symObjAddr: 0x3A64C, symBinAddr: 0x10003C2A0, symSize: 0x48 }
  - { offsetInCU: 0x209D6, offset: 0x209D6, size: 0x8, addend: 0x0, symName: __ZNSt3__112__to_addressB7v160006ImEEPT_S2_, symObjAddr: 0x3B1C4, symBinAddr: 0x10003CE18, symSize: 0x14 }
  - { offsetInCU: 0x20A30, offset: 0x20A30, size: 0x8, addend: 0x0, symName: __ZNSt3__112construct_atB7v160006ImJRKmEPmEEPT_S5_DpOT0_, symObjAddr: 0x3B684, symBinAddr: 0x10003D2D8, symSize: 0xB8 }
  - { offsetInCU: 0x20AA0, offset: 0x20AA0, size: 0x8, addend: 0x0, symName: __ZNSt3__119__allocate_at_leastB7v160006INS_9allocatorImEEEENS_19__allocation_resultINS_16allocator_traitsIT_E7pointerEEERS5_m, symObjAddr: 0x3CD1C, symBinAddr: 0x10003E970, symSize: 0x28C }
  - { offsetInCU: 0x20AE5, offset: 0x20AE5, size: 0x8, addend: 0x0, symName: __ZNSt3__142__uninitialized_allocator_move_if_noexceptB7v160006INS_9allocatorImEENS_16reverse_iteratorIPmEES5_mvEET1_RT_T0_S9_S6_, symObjAddr: 0x3D2E8, symBinAddr: 0x10003EF3C, symSize: 0x4A8 }
  - { offsetInCU: 0x20B6F, offset: 0x20B6F, size: 0x8, addend: 0x0, symName: __ZNSt3__14swapB7v160006IPmEENS_9enable_ifIXaasr21is_move_constructibleIT_EE5valuesr18is_move_assignableIS3_EE5valueEvE4typeERS3_S6_, symObjAddr: 0x3D828, symBinAddr: 0x10003F47C, symSize: 0x134 }
  - { offsetInCU: 0x20BC0, offset: 0x20BC0, size: 0x8, addend: 0x0, symName: __ZNSt3__125__debug_db_invalidate_allB7v160006INS_6vectorImNS_9allocatorImEEEEEEvPT_, symObjAddr: 0x3DA1C, symBinAddr: 0x10003F670, symSize: 0x10 }
  - { offsetInCU: 0x20BF1, offset: 0x20BF1, size: 0x8, addend: 0x0, symName: __ZNSt3__14moveB7v160006INS_16reverse_iteratorIPmEES3_EET0_T_S5_S4_, symObjAddr: 0x3DA2C, symBinAddr: 0x10003F680, symSize: 0x4B0 }
  - { offsetInCU: 0x20C58, offset: 0x20C58, size: 0x8, addend: 0x0, symName: __ZNSt3__16__moveB7v160006INS_17_ClassicAlgPolicyENS_16reverse_iteratorIPmEES4_S4_EENS_4pairIT0_T2_EES6_T1_S7_, symObjAddr: 0x3DEDC, symBinAddr: 0x10003FB30, symSize: 0x424 }
  - { offsetInCU: 0x20CD0, offset: 0x20CD0, size: 0x8, addend: 0x0, symName: __ZNSt3__123__dispatch_copy_or_moveB7v160006INS_17_ClassicAlgPolicyENS_11__move_loopIS1_EENS_14__move_trivialENS_16reverse_iteratorIPmEES7_S7_EENS_4pairIT2_T4_EES9_T3_SA_, symObjAddr: 0x3E300, symBinAddr: 0x10003FF54, symSize: 0x424 }
  - { offsetInCU: 0x20D5A, offset: 0x20D5A, size: 0x8, addend: 0x0, symName: __ZNSt3__121__unwrap_and_dispatchB7v160006INS_10__overloadINS_11__move_loopINS_17_ClassicAlgPolicyEEENS_14__move_trivialEEENS_16reverse_iteratorIPmEES9_S9_Li0EEENS_4pairIT0_T2_EESB_T1_SC_, symObjAddr: 0x3E724, symBinAddr: 0x100040378, symSize: 0x880 }
  - { offsetInCU: 0x20DFE, offset: 0x20DFE, size: 0x8, addend: 0x0, symName: __ZNSt3__114__unwrap_rangeB7v160006INS_16reverse_iteratorIPmEES3_EEDaT_T0_, symObjAddr: 0x3EFA4, symBinAddr: 0x100040BF8, symSize: 0x35C }
  - { offsetInCU: 0x20F26, offset: 0x20F26, size: 0x8, addend: 0x0, symName: __ZNSt3__113__unwrap_iterB7v160006INS_16reverse_iteratorIPmEENS_18__unwrap_iter_implIS3_Lb0EEELi0EEEDTclsrT0_8__unwrapclsr3stdE7declvalIT_EEEES7_, symObjAddr: 0x3F6A8, symBinAddr: 0x1000412FC, symSize: 0x2EC }
  - { offsetInCU: 0x20F6E, offset: 0x20F6E, size: 0x8, addend: 0x0, symName: __ZNSt3__19make_pairB7v160006INS_16reverse_iteratorIPmEES3_EENS_4pairINS_18__unwrap_ref_decayIT_E4typeENS5_IT0_E4typeEEEOS6_OS9_, symObjAddr: 0x3F994, symBinAddr: 0x1000415E8, symSize: 0x38 }
  - { offsetInCU: 0x20FBD, offset: 0x20FBD, size: 0x8, addend: 0x0, symName: __ZNSt3__114__rewrap_rangeB7v160006INS_16reverse_iteratorIPmEES3_S3_EET0_S4_T1_, symObjAddr: 0x3F9CC, symBinAddr: 0x100041620, symSize: 0x3D4 }
  - { offsetInCU: 0x2101A, offset: 0x2101A, size: 0x8, addend: 0x0, symName: __ZNSt3__113__rewrap_iterB7v160006INS_16reverse_iteratorIPmEES3_NS_18__unwrap_iter_implIS3_Lb0EEEEET_S6_T0_, symObjAddr: 0x3FDA0, symBinAddr: 0x1000419F4, symSize: 0x3E8 }
  - { offsetInCU: 0x210C7, offset: 0x210C7, size: 0x8, addend: 0x0, symName: __ZNSt3__1neB7v160006IPmS1_EEbRKNS_16reverse_iteratorIT_EERKNS2_IT0_EE, symObjAddr: 0x40660, symBinAddr: 0x1000422B4, symSize: 0x48 }
  - { offsetInCU: 0x2117F, offset: 0x2117F, size: 0x8, addend: 0x0, symName: __ZNSt3__110destroy_atB7v160006ImLi0EEEvPT_, symObjAddr: 0x41550, symBinAddr: 0x1000431A4, symSize: 0x24 }
  - { offsetInCU: 0x211B6, offset: 0x211B6, size: 0x8, addend: 0x0, symName: __ZNSt3__112__destroy_atB7v160006ImLi0EEEvPT_, symObjAddr: 0x41574, symBinAddr: 0x1000431C8, symSize: 0x10 }
  - { offsetInCU: 0x211ED, offset: 0x211ED, size: 0x8, addend: 0x0, symName: __ZNSt3__112__to_addressB7v160006INS_4pairINS_6vectorIcNS_9allocatorIcEEEENS2_ImNS3_ImEEEEEEEEPT_SA_, symObjAddr: 0x41EBC, symBinAddr: 0x100043B10, symSize: 0x14 }
  - { offsetInCU: 0x21247, offset: 0x21247, size: 0x8, addend: 0x0, symName: __ZNSt3__112construct_atB7v160006INS_4pairINS_6vectorIcNS_9allocatorIcEEEENS2_ImNS3_ImEEEEEEJRS5_S7_EPS8_EEPT_SC_DpOT0_, symObjAddr: 0x42454, symBinAddr: 0x1000440A8, symSize: 0x44 }
  - { offsetInCU: 0x212CA, offset: 0x212CA, size: 0x8, addend: 0x0, symName: __ZNSt3__119__debug_db_insert_cB7v160006INS_6vectorImNS_9allocatorImEEEEEEvPT_, symObjAddr: 0x42A9C, symBinAddr: 0x1000446F0, symSize: 0x10 }
  - { offsetInCU: 0x212FB, offset: 0x212FB, size: 0x8, addend: 0x0, symName: __ZNSt3__115__debug_db_swapB7v160006INS_6vectorImNS_9allocatorImEEEEEEvPT_S6_, symObjAddr: 0x42AAC, symBinAddr: 0x100044700, symSize: 0x14 }
  - { offsetInCU: 0x2133A, offset: 0x2133A, size: 0x8, addend: 0x0, symName: __ZNSt3__119__allocate_at_leastB7v160006INS_9allocatorINS_4pairINS_6vectorIcNS1_IcEEEENS3_ImNS1_ImEEEEEEEEEENS_19__allocation_resultINS_16allocator_traitsIT_E7pointerEEERSC_m, symObjAddr: 0x44128, symBinAddr: 0x100045D7C, symSize: 0x28C }
  - { offsetInCU: 0x2137F, offset: 0x2137F, size: 0x8, addend: 0x0, symName: __ZNSt3__142__uninitialized_allocator_move_if_noexceptB7v160006INS_9allocatorINS_4pairINS_6vectorIcNS1_IcEEEENS3_ImNS1_ImEEEEEEEENS_16reverse_iteratorIPS8_EESC_SC_EET2_RT_T0_T1_SD_, symObjAddr: 0x446B0, symBinAddr: 0x100046304, symSize: 0x544 }
  - { offsetInCU: 0x21434, offset: 0x21434, size: 0x8, addend: 0x0, symName: __ZNSt3__14swapB7v160006IPNS_4pairINS_6vectorIcNS_9allocatorIcEEEENS2_ImNS3_ImEEEEEEEENS_9enable_ifIXaasr21is_move_constructibleIT_EE5valuesr18is_move_assignableISB_EE5valueEvE4typeERSB_SE_, symObjAddr: 0x44C8C, symBinAddr: 0x1000468E0, symSize: 0x134 }
  - { offsetInCU: 0x21485, offset: 0x21485, size: 0x8, addend: 0x0, symName: __ZNSt3__125__debug_db_invalidate_allB7v160006INS_6vectorINS_4pairINS1_IcNS_9allocatorIcEEEENS1_ImNS3_ImEEEEEENS3_IS8_EEEEEEvPT_, symObjAddr: 0x44E9C, symBinAddr: 0x100046AF0, symSize: 0x10 }
  - { offsetInCU: 0x214B6, offset: 0x214B6, size: 0x8, addend: 0x0, symName: __ZNSt3__122__make_exception_guardB7v160006INS_29_AllocatorDestroyRangeReverseINS_9allocatorINS_4pairINS_6vectorIcNS2_IcEEEENS4_ImNS2_ImEEEEEEEENS_16reverse_iteratorIPS9_EEEEEENS_28__exception_guard_exceptionsIT_EESG_, symObjAddr: 0x44EAC, symBinAddr: 0x100046B00, symSize: 0x1F8 }
  - { offsetInCU: 0x214ED, offset: 0x214ED, size: 0x8, addend: 0x0, symName: __ZNSt3__1neB7v160006IPNS_4pairINS_6vectorIcNS_9allocatorIcEEEENS2_ImNS3_ImEEEEEES9_EEbRKNS_16reverse_iteratorIT_EERKNSA_IT0_EE, symObjAddr: 0x450E8, symBinAddr: 0x100046D3C, symSize: 0x48 }
  - { offsetInCU: 0x21539, offset: 0x21539, size: 0x8, addend: 0x0, symName: __ZNSt3__112__to_addressB7v160006INS_16reverse_iteratorIPNS_4pairINS_6vectorIcNS_9allocatorIcEEEENS3_ImNS4_ImEEEEEEEEvEENS_5decayIDTclsr19__to_address_helperIT_EE6__callclsr3stdE7declvalIRKSD_EEEEE4typeESF_, symObjAddr: 0x45160, symBinAddr: 0x100046DB4, symSize: 0x24 }
  - { offsetInCU: 0x2156F, offset: 0x2156F, size: 0x8, addend: 0x0, symName: __ZNSt3__112construct_atB7v160006INS_4pairINS_6vectorIcNS_9allocatorIcEEEENS2_ImNS3_ImEEEEEEJS8_EPS8_EEPT_SB_DpOT0_, symObjAddr: 0x454F8, symBinAddr: 0x10004714C, symSize: 0x3C }
  - { offsetInCU: 0x21608, offset: 0x21608, size: 0x8, addend: 0x0, symName: __ZNSt3__14prevB7v160006IPNS_4pairINS_6vectorIcNS_9allocatorIcEEEENS2_ImNS3_ImEEEEEEEENS_9enable_ifIXsr25__is_cpp17_input_iteratorIT_EE5valueESB_E4typeESB_NS_15iterator_traitsISB_E15difference_typeE, symObjAddr: 0x45660, symBinAddr: 0x1000472B4, symSize: 0x25C }
  - { offsetInCU: 0x21650, offset: 0x21650, size: 0x8, addend: 0x0, symName: __ZNSt3__19__advanceB7v160006IPNS_4pairINS_6vectorIcNS_9allocatorIcEEEENS2_ImNS3_ImEEEEEEEEvRT_NS_15iterator_traitsISA_E15difference_typeENS_26random_access_iterator_tagE, symObjAddr: 0x4590C, symBinAddr: 0x100047560, symSize: 0x80 }
  - { offsetInCU: 0x21699, offset: 0x21699, size: 0x8, addend: 0x0, symName: __ZNSt3__119__allocator_destroyB7v160006INS_9allocatorINS_4pairINS_6vectorIcNS1_IcEEEENS3_ImNS1_ImEEEEEEEENS_16reverse_iteratorINSA_IPS8_EEEESD_EEvRT_T0_T1_, symObjAddr: 0x45DF0, symBinAddr: 0x100047A44, symSize: 0x70 }
  - { offsetInCU: 0x216FE, offset: 0x216FE, size: 0x8, addend: 0x0, symName: __ZNSt3__1neB7v160006INS_16reverse_iteratorIPNS_4pairINS_6vectorIcNS_9allocatorIcEEEENS3_ImNS4_ImEEEEEEEESB_EEbRKNS1_IT_EERKNS1_IT0_EE, symObjAddr: 0x460A8, symBinAddr: 0x100047CFC, symSize: 0x2CC }
  - { offsetInCU: 0x2174C, offset: 0x2174C, size: 0x8, addend: 0x0, symName: __ZNSt3__112__to_addressB7v160006INS_16reverse_iteratorINS1_IPNS_4pairINS_6vectorIcNS_9allocatorIcEEEENS3_ImNS4_ImEEEEEEEEEEvEENS_5decayIDTclsr19__to_address_helperIT_EE6__callclsr3stdE7declvalIRKSE_EEEEE4typeESG_, symObjAddr: 0x4639C, symBinAddr: 0x100047FF0, symSize: 0x24 }
  - { offsetInCU: 0x21782, offset: 0x21782, size: 0x8, addend: 0x0, symName: __ZNSt3__110destroy_atB7v160006INS_4pairINS_6vectorIcNS_9allocatorIcEEEENS2_ImNS3_ImEEEEEELi0EEEvPT_, symObjAddr: 0x465FC, symBinAddr: 0x100048250, symSize: 0x24 }
  - { offsetInCU: 0x217B9, offset: 0x217B9, size: 0x8, addend: 0x0, symName: __ZNSt3__112__destroy_atB7v160006INS_4pairINS_6vectorIcNS_9allocatorIcEEEENS2_ImNS3_ImEEEEEELi0EEEvPT_, symObjAddr: 0x46620, symBinAddr: 0x100048274, symSize: 0x24 }
  - { offsetInCU: 0x21819, offset: 0x21819, size: 0x8, addend: 0x0, symName: __ZNSt3__14prevB7v160006INS_16reverse_iteratorIPNS_4pairINS_6vectorIcNS_9allocatorIcEEEENS3_ImNS4_ImEEEEEEEEEENS_9enable_ifIXsr25__is_cpp17_input_iteratorIT_EE5valueESD_E4typeESD_NS_15iterator_traitsISD_E15difference_typeE, symObjAddr: 0x4698C, symBinAddr: 0x1000485E0, symSize: 0x2B0 }
  - { offsetInCU: 0x21861, offset: 0x21861, size: 0x8, addend: 0x0, symName: __ZNSt3__19__advanceB7v160006INS_16reverse_iteratorIPNS_4pairINS_6vectorIcNS_9allocatorIcEEEENS3_ImNS4_ImEEEEEEEEEEvRT_NS_15iterator_traitsISC_E15difference_typeENS_26random_access_iterator_tagE, symObjAddr: 0x46C8C, symBinAddr: 0x1000488E0, symSize: 0x2C }
  - { offsetInCU: 0x218AA, offset: 0x218AA, size: 0x8, addend: 0x0, symName: __ZNSt3__122__make_exception_guardB7v160006INS_6vectorImNS_9allocatorImEEE16__destroy_vectorEEENS_28__exception_guard_exceptionsIT_EES7_, symObjAddr: 0x47A28, symBinAddr: 0x10004967C, symSize: 0x278 }
  - { offsetInCU: 0x218E3, offset: 0x218E3, size: 0x8, addend: 0x0, symName: __ZNSt3__130__uninitialized_allocator_copyB7v160006INS_9allocatorImEEmmLPv0EEEPT0_RT_PKS4_S9_S5_, symObjAddr: 0x48C50, symBinAddr: 0x10004A8A4, symSize: 0x38 }
  - { offsetInCU: 0x2195B, offset: 0x2195B, size: 0x8, addend: 0x0, symName: __ZNSt3__14copyB7v160006IPKmPmEET0_T_S5_S4_, symObjAddr: 0x48C88, symBinAddr: 0x10004A8DC, symSize: 0x26C }
  - { offsetInCU: 0x219B8, offset: 0x219B8, size: 0x8, addend: 0x0, symName: __ZNSt3__16__copyB7v160006INS_17_ClassicAlgPolicyEPKmS3_PmEENS_4pairIT0_T2_EES6_T1_S7_, symObjAddr: 0x48EF4, symBinAddr: 0x10004AB48, symSize: 0x22C }
  - { offsetInCU: 0x21A27, offset: 0x21A27, size: 0x8, addend: 0x0, symName: __ZNSt3__123__dispatch_copy_or_moveB7v160006INS_17_ClassicAlgPolicyENS_11__copy_loopIS1_EENS_14__copy_trivialEPKmS6_PmEENS_4pairIT2_T4_EES9_T3_SA_, symObjAddr: 0x49120, symBinAddr: 0x10004AD74, symSize: 0x22C }
  - { offsetInCU: 0x21AA8, offset: 0x21AA8, size: 0x8, addend: 0x0, symName: __ZNSt3__121__unwrap_and_dispatchB7v160006INS_10__overloadINS_11__copy_loopINS_17_ClassicAlgPolicyEEENS_14__copy_trivialEEEPKmS8_PmLi0EEENS_4pairIT0_T2_EESB_T1_SC_, symObjAddr: 0x4934C, symBinAddr: 0x10004AFA0, symSize: 0x5A4 }
  - { offsetInCU: 0x21B41, offset: 0x21B41, size: 0x8, addend: 0x0, symName: __ZNSt3__114__unwrap_rangeB7v160006IPKmS2_EEDaT_T0_, symObjAddr: 0x498F0, symBinAddr: 0x10004B544, symSize: 0x224 }
  - { offsetInCU: 0x21C92, offset: 0x21C92, size: 0x8, addend: 0x0, symName: __ZNSt3__113__unwrap_iterB7v160006IPmNS_18__unwrap_iter_implIS1_Lb1EEELi0EEEDTclsrT0_8__unwrapclsr3stdE7declvalIT_EEEES5_, symObjAddr: 0x49D44, symBinAddr: 0x10004B998, symSize: 0x24 }
  - { offsetInCU: 0x21CD6, offset: 0x21CD6, size: 0x8, addend: 0x0, symName: __ZNSt3__19make_pairB7v160006IPKmPmEENS_4pairINS_18__unwrap_ref_decayIT_E4typeENS5_IT0_E4typeEEEOS6_OS9_, symObjAddr: 0x49D68, symBinAddr: 0x10004B9BC, symSize: 0x20C }
  - { offsetInCU: 0x21D27, offset: 0x21D27, size: 0x8, addend: 0x0, symName: __ZNSt3__114__rewrap_rangeB7v160006IPKmS2_S2_EET0_S3_T1_, symObjAddr: 0x49F74, symBinAddr: 0x10004BBC8, symSize: 0x2C }
  - { offsetInCU: 0x21D7C, offset: 0x21D7C, size: 0x8, addend: 0x0, symName: __ZNSt3__113__rewrap_iterB7v160006IPmS1_NS_18__unwrap_iter_implIS1_Lb1EEEEET_S4_T0_, symObjAddr: 0x49FA0, symBinAddr: 0x10004BBF4, symSize: 0x48 }
  - { offsetInCU: 0x21EED, offset: 0x21EED, size: 0x8, addend: 0x0, symName: __ZNSt3__113__unwrap_iterB7v160006IPKmNS_18__unwrap_iter_implIS2_Lb1EEELi0EEEDTclsrT0_8__unwrapclsr3stdE7declvalIT_EEEES6_, symObjAddr: 0x4A2F4, symBinAddr: 0x10004BF48, symSize: 0x24 }
  - { offsetInCU: 0x21F84, offset: 0x21F84, size: 0x8, addend: 0x0, symName: __ZNSt3__112__to_addressB7v160006IKmEEPT_S3_, symObjAddr: 0x4A378, symBinAddr: 0x10004BFCC, symSize: 0x14 }
  - { offsetInCU: 0x21FB9, offset: 0x21FB9, size: 0x8, addend: 0x0, symName: __ZNSt3__119__copy_trivial_implB7v160006IKmmEENS_4pairIPT_PT0_EES4_S4_S6_, symObjAddr: 0x4A4C4, symBinAddr: 0x10004C118, symSize: 0x3B8 }
  - { offsetInCU: 0x22028, offset: 0x22028, size: 0x8, addend: 0x0, symName: __ZNSt3__19make_pairB7v160006IRPKmPmEENS_4pairINS_18__unwrap_ref_decayIT_E4typeENS6_IT0_E4typeEEEOS7_OSA_, symObjAddr: 0x4A87C, symBinAddr: 0x10004C4D0, symSize: 0x20C }
  - { offsetInCU: 0x220CC, offset: 0x220CC, size: 0x8, addend: 0x0, symName: __ZNSt3__113__rewrap_iterB7v160006IPKmS2_NS_18__unwrap_iter_implIS2_Lb1EEEEET_S5_T0_, symObjAddr: 0x4ADC0, symBinAddr: 0x10004CA14, symSize: 0x48 }
  - { offsetInCU: 0x22121, offset: 0x22121, size: 0x8, addend: 0x0, symName: __ZNSt3__118__debug_db_erase_cB7v160006INS_6vectorImNS_9allocatorImEEEEEEvPT_, symObjAddr: 0x4B1C8, symBinAddr: 0x10004CE1C, symSize: 0x10 }
  - { offsetInCU: 0x22152, offset: 0x22152, size: 0x8, addend: 0x0, symName: __ZNSt3__14copyB7v160006INS_11__wrap_iterIPmEES2_EET0_T_S5_S4_, symObjAddr: 0x4BFF8, symBinAddr: 0x10004DC4C, symSize: 0x428 }
  - { offsetInCU: 0x221B5, offset: 0x221B5, size: 0x8, addend: 0x0, symName: __ZNSt3__16__copyB7v160006INS_17_ClassicAlgPolicyENS_11__wrap_iterIPmEES4_S3_EENS_4pairIT0_T2_EES6_T1_S7_, symObjAddr: 0x4C62C, symBinAddr: 0x10004E280, symSize: 0x3E4 }
  - { offsetInCU: 0x2222A, offset: 0x2222A, size: 0x8, addend: 0x0, symName: __ZNSt3__123__dispatch_copy_or_moveB7v160006INS_17_ClassicAlgPolicyENS_11__copy_loopIS1_EENS_14__copy_trivialENS_11__wrap_iterIPmEES7_S6_EENS_4pairIT2_T4_EES9_T3_SA_, symObjAddr: 0x4CA10, symBinAddr: 0x10004E664, symSize: 0x3E4 }
  - { offsetInCU: 0x222B1, offset: 0x222B1, size: 0x8, addend: 0x0, symName: __ZNSt3__121__unwrap_and_dispatchB7v160006INS_10__overloadINS_11__copy_loopINS_17_ClassicAlgPolicyEEENS_14__copy_trivialEEENS_11__wrap_iterIPmEES9_S8_Li0EEENS_4pairIT0_T2_EESB_T1_SC_, symObjAddr: 0x4CDF4, symBinAddr: 0x10004EA48, symSize: 0x768 }
  - { offsetInCU: 0x22352, offset: 0x22352, size: 0x8, addend: 0x0, symName: __ZNSt3__114__unwrap_rangeB7v160006INS_11__wrap_iterIPmEES3_EEDaT_T0_, symObjAddr: 0x4D55C, symBinAddr: 0x10004F1B0, symSize: 0x3CC }
  - { offsetInCU: 0x224A1, offset: 0x224A1, size: 0x8, addend: 0x0, symName: __ZNSt3__19make_pairB7v160006INS_11__wrap_iterIPmEES2_EENS_4pairINS_18__unwrap_ref_decayIT_E4typeENS5_IT0_E4typeEEEOS6_OS9_, symObjAddr: 0x4DB58, symBinAddr: 0x10004F7AC, symSize: 0x20C }
  - { offsetInCU: 0x224F2, offset: 0x224F2, size: 0x8, addend: 0x0, symName: __ZNSt3__114__rewrap_rangeB7v160006INS_11__wrap_iterIPmEES3_S2_EET0_S4_T1_, symObjAddr: 0x4DD64, symBinAddr: 0x10004F9B8, symSize: 0x324 }
  - { offsetInCU: 0x2259C, offset: 0x2259C, size: 0x8, addend: 0x0, symName: __ZNSt3__113__unwrap_iterB7v160006INS_11__wrap_iterIPmEENS_18__unwrap_iter_implIS3_Lb1EEELi0EEEDTclsrT0_8__unwrapclsr3stdE7declvalIT_EEEES7_, symObjAddr: 0x4E518, symBinAddr: 0x10005016C, symSize: 0x274 }
  - { offsetInCU: 0x22637, offset: 0x22637, size: 0x8, addend: 0x0, symName: __ZNSt3__112__to_addressB7v160006INS_11__wrap_iterIPmEEvEENS_5decayIDTclsr19__to_address_helperIT_EE6__callclsr3stdE7declvalIRKS5_EEEEE4typeES7_, symObjAddr: 0x4E9B8, symBinAddr: 0x10005060C, symSize: 0x24 }
  - { offsetInCU: 0x226D8, offset: 0x226D8, size: 0x8, addend: 0x0, symName: __ZNSt3__119__copy_trivial_implB7v160006ImmEENS_4pairIPT_PT0_EES3_S3_S5_, symObjAddr: 0x4EF68, symBinAddr: 0x100050BBC, symSize: 0x3B8 }
  - { offsetInCU: 0x22747, offset: 0x22747, size: 0x8, addend: 0x0, symName: __ZNSt3__19make_pairB7v160006IRPmS1_EENS_4pairINS_18__unwrap_ref_decayIT_E4typeENS4_IT0_E4typeEEEOS5_OS8_, symObjAddr: 0x4F320, symBinAddr: 0x100050F74, symSize: 0x20C }
  - { offsetInCU: 0x2286C, offset: 0x2286C, size: 0x8, addend: 0x0, symName: __ZNSt3__113__rewrap_iterB7v160006INS_11__wrap_iterIPmEES2_NS_18__unwrap_iter_implIS3_Lb1EEEEET_S6_T0_, symObjAddr: 0x4FAD0, symBinAddr: 0x100051724, symSize: 0x338 }
  - { offsetInCU: 0x228EB, offset: 0x228EB, size: 0x8, addend: 0x0, symName: __ZNSt3__112construct_atB7v160006INS_5arrayImLm2EEEJRKS2_EPS2_EEPT_S7_DpOT0_, symObjAddr: 0x50B74, symBinAddr: 0x1000527C8, symSize: 0x40 }
  - { offsetInCU: 0x2295B, offset: 0x2295B, size: 0x8, addend: 0x0, symName: __ZNSt3__142__uninitialized_allocator_move_if_noexceptB7v160006INS_9allocatorINS_5arrayImLm2EEEEENS_16reverse_iteratorIPS3_EES7_S3_vEET1_RT_T0_SB_S8_, symObjAddr: 0x51C2C, symBinAddr: 0x100053880, symSize: 0x4A8 }
  - { offsetInCU: 0x229E5, offset: 0x229E5, size: 0x8, addend: 0x0, symName: __ZNSt3__14swapB7v160006IPNS_5arrayImLm2EEEEENS_9enable_ifIXaasr21is_move_constructibleIT_EE5valuesr18is_move_assignableIS5_EE5valueEvE4typeERS5_S8_, symObjAddr: 0x5216C, symBinAddr: 0x100053DC0, symSize: 0x134 }
  - { offsetInCU: 0x22A36, offset: 0x22A36, size: 0x8, addend: 0x0, symName: __ZNSt3__125__debug_db_invalidate_allB7v160006INS_6vectorINS_5arrayImLm2EEENS_9allocatorIS3_EEEEEEvPT_, symObjAddr: 0x522A0, symBinAddr: 0x100053EF4, symSize: 0x10 }
  - { offsetInCU: 0x22A67, offset: 0x22A67, size: 0x8, addend: 0x0, symName: __ZNSt3__14moveB7v160006INS_16reverse_iteratorIPNS_5arrayImLm2EEEEES5_EET0_T_S7_S6_, symObjAddr: 0x522B0, symBinAddr: 0x100053F04, symSize: 0x4B0 }
  - { offsetInCU: 0x22ACE, offset: 0x22ACE, size: 0x8, addend: 0x0, symName: __ZNSt3__16__moveB7v160006INS_17_ClassicAlgPolicyENS_16reverse_iteratorIPNS_5arrayImLm2EEEEES6_S6_EENS_4pairIT0_T2_EES8_T1_S9_, symObjAddr: 0x52760, symBinAddr: 0x1000543B4, symSize: 0x424 }
  - { offsetInCU: 0x22B46, offset: 0x22B46, size: 0x8, addend: 0x0, symName: __ZNSt3__123__dispatch_copy_or_moveB7v160006INS_17_ClassicAlgPolicyENS_11__move_loopIS1_EENS_14__move_trivialENS_16reverse_iteratorIPNS_5arrayImLm2EEEEES9_S9_EENS_4pairIT2_T4_EESB_T3_SC_, symObjAddr: 0x52B84, symBinAddr: 0x1000547D8, symSize: 0x424 }
  - { offsetInCU: 0x22BD0, offset: 0x22BD0, size: 0x8, addend: 0x0, symName: __ZNSt3__121__unwrap_and_dispatchB7v160006INS_10__overloadINS_11__move_loopINS_17_ClassicAlgPolicyEEENS_14__move_trivialEEENS_16reverse_iteratorIPNS_5arrayImLm2EEEEESB_SB_Li0EEENS_4pairIT0_T2_EESD_T1_SE_, symObjAddr: 0x52FA8, symBinAddr: 0x100054BFC, symSize: 0x880 }
  - { offsetInCU: 0x22C74, offset: 0x22C74, size: 0x8, addend: 0x0, symName: __ZNSt3__114__unwrap_rangeB7v160006INS_16reverse_iteratorIPNS_5arrayImLm2EEEEES5_EEDaT_T0_, symObjAddr: 0x53828, symBinAddr: 0x10005547C, symSize: 0x35C }
  - { offsetInCU: 0x22D9C, offset: 0x22D9C, size: 0x8, addend: 0x0, symName: __ZNSt3__113__unwrap_iterB7v160006INS_16reverse_iteratorIPNS_5arrayImLm2EEEEENS_18__unwrap_iter_implIS5_Lb0EEELi0EEEDTclsrT0_8__unwrapclsr3stdE7declvalIT_EEEES9_, symObjAddr: 0x53EC8, symBinAddr: 0x100055B1C, symSize: 0x2EC }
  - { offsetInCU: 0x22DE4, offset: 0x22DE4, size: 0x8, addend: 0x0, symName: __ZNSt3__19make_pairB7v160006INS_16reverse_iteratorIPNS_5arrayImLm2EEEEES5_EENS_4pairINS_18__unwrap_ref_decayIT_E4typeENS7_IT0_E4typeEEEOS8_OSB_, symObjAddr: 0x541B4, symBinAddr: 0x100055E08, symSize: 0x38 }
  - { offsetInCU: 0x22E33, offset: 0x22E33, size: 0x8, addend: 0x0, symName: __ZNSt3__114__rewrap_rangeB7v160006INS_16reverse_iteratorIPNS_5arrayImLm2EEEEES5_S5_EET0_S6_T1_, symObjAddr: 0x541EC, symBinAddr: 0x100055E40, symSize: 0x3D4 }
  - { offsetInCU: 0x22E90, offset: 0x22E90, size: 0x8, addend: 0x0, symName: __ZNSt3__113__rewrap_iterB7v160006INS_16reverse_iteratorIPNS_5arrayImLm2EEEEES5_NS_18__unwrap_iter_implIS5_Lb0EEEEET_S8_T0_, symObjAddr: 0x545C0, symBinAddr: 0x100056214, symSize: 0x3E8 }
  - { offsetInCU: 0x22F3D, offset: 0x22F3D, size: 0x8, addend: 0x0, symName: __ZNSt3__1neB7v160006IPNS_5arrayImLm2EEES3_EEbRKNS_16reverse_iteratorIT_EERKNS4_IT0_EE, symObjAddr: 0x54E80, symBinAddr: 0x100056AD4, symSize: 0x48 }
  - { offsetInCU: 0x22FF5, offset: 0x22FF5, size: 0x8, addend: 0x0, symName: __ZNSt3__118__debug_db_erase_cB7v160006INS_6vectorINS_4pairINS1_IcNS_9allocatorIcEEEENS1_ImNS3_ImEEEEEENS3_IS8_EEEEEEvPT_, symObjAddr: 0x562E0, symBinAddr: 0x100057F34, symSize: 0x10 }
  - { offsetInCU: 0x23026, offset: 0x23026, size: 0x8, addend: 0x0, symName: __ZNSt3__14sortB7v160006INS_11__wrap_iterIPNS_5arrayImLm2EEEEEEEvT_S6_, symObjAddr: 0x56468, symBinAddr: 0x1000580BC, symSize: 0x348 }
  - { offsetInCU: 0x23070, offset: 0x23070, size: 0x8, addend: 0x0, symName: __ZNSt3__1eqB7v160006INS_5arrayImLm2EEENS_9allocatorIS2_EEEEbRKNS_6vectorIT_T0_EESA_, symObjAddr: 0x56C84, symBinAddr: 0x1000588D8, symSize: 0x3FC }
  - { offsetInCU: 0x230D1, offset: 0x230D1, size: 0x8, addend: 0x0, symName: __ZNSt3__14sortB7v160006INS_11__wrap_iterIPNS_5arrayImLm2EEEEENS_6__lessIS3_S3_EEEEvT_S8_T0_, symObjAddr: 0x57080, symBinAddr: 0x100058CD4, symSize: 0x36C }
  - { offsetInCU: 0x23137, offset: 0x23137, size: 0x8, addend: 0x0, symName: __ZNSt3__111__sort_implB7v160006INS_17_ClassicAlgPolicyENS_11__wrap_iterIPNS_5arrayImLm2EEEEENS_6__lessIS4_S4_EEEEvT0_S9_RT1_, symObjAddr: 0x573EC, symBinAddr: 0x100059040, symSize: 0x43C }
  - { offsetInCU: 0x231E9, offset: 0x231E9, size: 0x8, addend: 0x0, symName: __ZNSt3__123__debug_randomize_rangeB7v160006INS_17_ClassicAlgPolicyENS_11__wrap_iterIPNS_5arrayImLm2EEEEES6_EEvT0_T1_, symObjAddr: 0x57828, symBinAddr: 0x10005947C, symSize: 0x264 }
  - { offsetInCU: 0x23242, offset: 0x23242, size: 0x8, addend: 0x0, symName: __ZNSt3__16__sortIRNS_6__lessINS_5arrayImLm2EEES3_EEPS3_EEvT0_S7_T_, symObjAddr: 0x57A8C, symBinAddr: 0x1000596E0, symSize: 0x68 }
  - { offsetInCU: 0x232D2, offset: 0x232D2, size: 0x8, addend: 0x0, symName: __ZNSt3__113__unwrap_iterB7v160006INS_11__wrap_iterIPNS_5arrayImLm2EEEEENS_18__unwrap_iter_implIS5_Lb1EEELi0EEEDTclsrT0_8__unwrapclsr3stdE7declvalIT_EEEES9_, symObjAddr: 0x57AF4, symBinAddr: 0x100059748, symSize: 0x274 }
  - { offsetInCU: 0x2331A, offset: 0x2331A, size: 0x8, addend: 0x0, symName: __ZNSt3__17__log2iB7v160006IlEET_S1_, symObjAddr: 0x57D68, symBinAddr: 0x1000599BC, symSize: 0x54 }
  - { offsetInCU: 0x233BF, offset: 0x233BF, size: 0x8, addend: 0x0, symName: __ZNSt3__112__libcpp_clzB7v160006Em, symObjAddr: 0x59C6C, symBinAddr: 0x10005B8C0, symSize: 0x1C }
  - { offsetInCU: 0x233EB, offset: 0x233EB, size: 0x8, addend: 0x0, symName: __ZNSt3__124__sort3_maybe_branchlessB7v160006INS_17_ClassicAlgPolicyERNS_6__lessINS_5arrayImLm2EEES4_EEPS4_EENS_9enable_ifIXntsr21__use_branchless_sortIT0_T1_EE5valueEvE4typeESA_SA_SA_S9_, symObjAddr: 0x59D6C, symBinAddr: 0x10005B9C0, symSize: 0x3C }
  - { offsetInCU: 0x2345C, offset: 0x2345C, size: 0x8, addend: 0x0, symName: __ZNSt3__124__sort4_maybe_branchlessB7v160006INS_17_ClassicAlgPolicyERNS_6__lessINS_5arrayImLm2EEES4_EEPS4_EENS_9enable_ifIXntsr21__use_branchless_sortIT0_T1_EE5valueEvE4typeESA_SA_SA_SA_S9_, symObjAddr: 0x59DA8, symBinAddr: 0x10005B9FC, symSize: 0x44 }
  - { offsetInCU: 0x234E1, offset: 0x234E1, size: 0x8, addend: 0x0, symName: __ZNSt3__124__sort5_maybe_branchlessB7v160006INS_17_ClassicAlgPolicyERNS_6__lessINS_5arrayImLm2EEES4_EEPS4_EENS_9enable_ifIXntsr21__use_branchless_sortIT0_T1_EE5valueEvE4typeESA_SA_SA_SA_SA_S9_, symObjAddr: 0x59DEC, symBinAddr: 0x10005BA40, symSize: 0x4C }
  - { offsetInCU: 0x23575, offset: 0x23575, size: 0x8, addend: 0x0, symName: __ZNSt3__114__partial_sortB7v160006INS_17_ClassicAlgPolicyERNS_6__lessINS_5arrayImLm2EEES4_EEPS4_S7_EET1_S8_S8_T2_RT0_, symObjAddr: 0x5A3AC, symBinAddr: 0x10005C000, symSize: 0x94 }
  - { offsetInCU: 0x235FD, offset: 0x235FD, size: 0x8, addend: 0x0, symName: __ZNSt3__119__sort5_wrap_policyB7v160006INS_17_ClassicAlgPolicyERNS_6__lessINS_5arrayImLm2EEES4_EEPS4_EEjT1_S8_S8_S8_S8_T0_, symObjAddr: 0x5A440, symBinAddr: 0x10005C094, symSize: 0x54 }
  - { offsetInCU: 0x236A3, offset: 0x236A3, size: 0x8, addend: 0x0, symName: __ZNSt3__17__sort3B7v160006INS_17_ClassicAlgPolicyERNS_6__lessINS_5arrayImLm2EEES4_EEPS4_EEjT1_S8_S8_T0_, symObjAddr: 0x5A494, symBinAddr: 0x10005C0E8, symSize: 0x66C }
  - { offsetInCU: 0x23730, offset: 0x23730, size: 0x8, addend: 0x0, symName: __ZNSt3__1ltB7v160006ImLm2EEEbRKNS_5arrayIT_XT0_EEES5_, symObjAddr: 0x5B734, symBinAddr: 0x10005D388, symSize: 0x64 }
  - { offsetInCU: 0x23780, offset: 0x23780, size: 0x8, addend: 0x0, symName: __ZNSt3__123lexicographical_compareB7v160006IPKmS2_EEbT_S3_T0_S4_, symObjAddr: 0x5B798, symBinAddr: 0x10005D3EC, symSize: 0x40 }
  - { offsetInCU: 0x237E8, offset: 0x237E8, size: 0x8, addend: 0x0, symName: __ZNSt3__123lexicographical_compareB7v160006IPKmS2_NS_6__lessImmEEEEbT_S5_T0_S6_T1_, symObjAddr: 0x5B824, symBinAddr: 0x10005D478, symSize: 0x1D8 }
  - { offsetInCU: 0x2386F, offset: 0x2386F, size: 0x8, addend: 0x0, symName: __ZNSt3__125__lexicographical_compareB7v160006IRNS_6__lessImmEEPKmS5_EEbT0_S6_T1_S7_T_, symObjAddr: 0x5B9FC, symBinAddr: 0x10005D650, symSize: 0xF4 }
  - { offsetInCU: 0x238EE, offset: 0x238EE, size: 0x8, addend: 0x0, symName: __ZNSt3__19iter_swapB7v160006IPNS_5arrayImLm2EEES3_EEvT_T0_, symObjAddr: 0x5BB04, symBinAddr: 0x10005D758, symSize: 0x2C }
  - { offsetInCU: 0x23936, offset: 0x23936, size: 0x8, addend: 0x0, symName: __ZNSt3__14swapB7v160006ImLm2EEENS_9enable_ifIXooeqT0_Li0Esr14__is_swappableIT_EE5valueEvE4typeERNS_5arrayIS2_XT0_EEES7_, symObjAddr: 0x5BB30, symBinAddr: 0x10005D784, symSize: 0x2C }
  - { offsetInCU: 0x23986, offset: 0x23986, size: 0x8, addend: 0x0, symName: __ZNSt3__111swap_rangesB7v160006IPmS1_EET0_T_S3_S2_, symObjAddr: 0x5BBCC, symBinAddr: 0x10005D820, symSize: 0x26C }
  - { offsetInCU: 0x239E3, offset: 0x239E3, size: 0x8, addend: 0x0, symName: __ZNSt3__113__swap_rangesB7v160006INS_17_ClassicAlgPolicyEPmS2_S2_EENS_4pairIT0_T2_EES4_T1_S5_, symObjAddr: 0x5BE38, symBinAddr: 0x10005DA8C, symSize: 0x3D0 }
  - { offsetInCU: 0x23A58, offset: 0x23A58, size: 0x8, addend: 0x0, symName: __ZNSt3__19iter_swapB7v160006IPmS1_EEvT_T0_, symObjAddr: 0x5C2B8, symBinAddr: 0x10005DF0C, symSize: 0x2C }
  - { offsetInCU: 0x23AA0, offset: 0x23AA0, size: 0x8, addend: 0x0, symName: __ZNSt3__14swapB7v160006ImEENS_9enable_ifIXaasr21is_move_constructibleIT_EE5valuesr18is_move_assignableIS2_EE5valueEvE4typeERS2_S5_, symObjAddr: 0x5C2E4, symBinAddr: 0x10005DF38, symSize: 0x134 }
  - { offsetInCU: 0x23AF1, offset: 0x23AF1, size: 0x8, addend: 0x0, symName: __ZNSt3__17__sort4B7v160006INS_17_ClassicAlgPolicyERNS_6__lessINS_5arrayImLm2EEES4_EEPS4_EEjT1_S8_S8_S8_T0_, symObjAddr: 0x5C418, symBinAddr: 0x10005E06C, symSize: 0x608 }
  - { offsetInCU: 0x23B91, offset: 0x23B91, size: 0x8, addend: 0x0, symName: __ZNSt3__123__debug_randomize_rangeB7v160006INS_17_ClassicAlgPolicyEPNS_5arrayImLm2EEES4_EEvT0_T1_, symObjAddr: 0x5CAA8, symBinAddr: 0x10005E6FC, symSize: 0x14 }
  - { offsetInCU: 0x23BE2, offset: 0x23BE2, size: 0x8, addend: 0x0, symName: __ZNSt3__119__partial_sort_implB7v160006INS_17_ClassicAlgPolicyERNS_6__lessINS_5arrayImLm2EEES4_EEPS4_S7_EET1_S8_S8_T2_OT0_, symObjAddr: 0x5CABC, symBinAddr: 0x10005E710, symSize: 0x59C }
  - { offsetInCU: 0x23C84, offset: 0x23C84, size: 0x8, addend: 0x0, symName: __ZNSt3__111__make_heapB7v160006INS_17_ClassicAlgPolicyERNS_6__lessINS_5arrayImLm2EEES4_EEPS4_EEvT1_S8_OT0_, symObjAddr: 0x5D058, symBinAddr: 0x10005ECAC, symSize: 0xBC }
  - { offsetInCU: 0x23D26, offset: 0x23D26, size: 0x8, addend: 0x0, symName: __ZNSt3__111__sort_heapB7v160006INS_17_ClassicAlgPolicyERNS_6__lessINS_5arrayImLm2EEES4_EEPS4_EEvT1_S8_OT0_, symObjAddr: 0x5D86C, symBinAddr: 0x10005F4C0, symSize: 0x94 }
  - { offsetInCU: 0x23DBA, offset: 0x23DBA, size: 0x8, addend: 0x0, symName: __ZNSt3__110__pop_heapB7v160006INS_17_ClassicAlgPolicyENS_6__lessINS_5arrayImLm2EEES4_EEPS4_EEvT1_S7_RT0_NS_15iterator_traitsIS7_E15difference_typeE, symObjAddr: 0x5D900, symBinAddr: 0x10005F554, symSize: 0x46C }
  - { offsetInCU: 0x23E72, offset: 0x23E72, size: 0x8, addend: 0x0, symName: __ZNSt3__19__sift_upB7v160006INS_17_ClassicAlgPolicyERNS_6__lessINS_5arrayImLm2EEES4_EEPS4_EEvT1_S8_OT0_NS_15iterator_traitsIS8_E15difference_typeE, symObjAddr: 0x5E13C, symBinAddr: 0x10005FD90, symSize: 0x51C }
  - { offsetInCU: 0x23F21, offset: 0x23F21, size: 0x8, addend: 0x0, symName: __ZNSt3__17__sort5IRNS_6__lessINS_5arrayImLm2EEES3_EEPS3_EEjT0_S7_S7_S7_S7_T_, symObjAddr: 0x5E658, symBinAddr: 0x1000602AC, symSize: 0x760 }
  - { offsetInCU: 0x24038, offset: 0x24038, size: 0x8, addend: 0x0, symName: __ZNSt3__112__to_addressB7v160006INS_11__wrap_iterIPNS_5arrayImLm2EEEEEvEENS_5decayIDTclsr19__to_address_helperIT_EE6__callclsr3stdE7declvalIRKS7_EEEEE4typeES9_, symObjAddr: 0x5EFA8, symBinAddr: 0x100060BFC, symSize: 0x24 }
  - { offsetInCU: 0x240D9, offset: 0x240D9, size: 0x8, addend: 0x0, symName: __ZNSt3__15equalB7v160006INS_11__wrap_iterIPKNS_5arrayImLm2EEEEES6_EEbT_S7_T0_, symObjAddr: 0x5F6D0, symBinAddr: 0x100061324, symSize: 0x40C }
  - { offsetInCU: 0x2413F, offset: 0x2413F, size: 0x8, addend: 0x0, symName: __ZNSt3__15equalB7v160006INS_11__wrap_iterIPKNS_5arrayImLm2EEEEES6_NS_10__equal_toEEEbT_S8_T0_T1_, symObjAddr: 0x5FFB0, symBinAddr: 0x100061C04, symSize: 0x380 }
  - { offsetInCU: 0x241C1, offset: 0x241C1, size: 0x8, addend: 0x0, symName: __ZNSt3__1neB7v160006IPKNS_5arrayImLm2EEEEEbRKNS_11__wrap_iterIT_EES9_, symObjAddr: 0x60330, symBinAddr: 0x100061F84, symSize: 0x34 }
  - { offsetInCU: 0x24204, offset: 0x24204, size: 0x8, addend: 0x0, symName: __ZNSt3__1eqB7v160006IPKNS_5arrayImLm2EEEEEbRKNS_11__wrap_iterIT_EES9_, symObjAddr: 0x60460, symBinAddr: 0x1000620B4, symSize: 0x48 }
  - { offsetInCU: 0x24247, offset: 0x24247, size: 0x8, addend: 0x0, symName: __ZNSt3__1eqB7v160006ImLm2EEEbRKNS_5arrayIT_XT0_EEES5_, symObjAddr: 0x60508, symBinAddr: 0x10006215C, symSize: 0x54 }
  - { offsetInCU: 0x24297, offset: 0x24297, size: 0x8, addend: 0x0, symName: __ZNSt3__15equalB7v160006IPKmS2_EEbT_S3_T0_, symObjAddr: 0x6055C, symBinAddr: 0x1000621B0, symSize: 0x38 }
  - { offsetInCU: 0x242F1, offset: 0x242F1, size: 0x8, addend: 0x0, symName: __ZNSt3__15equalB7v160006IPKmS2_NS_10__equal_toEEEbT_S4_T0_T1_, symObjAddr: 0x60594, symBinAddr: 0x1000621E8, symSize: 0x244 }
  - { offsetInCU: 0x2438E, offset: 0x2438E, size: 0x8, addend: 0x0, symName: __ZNSt3__112construct_atB7v160006INS_5arrayImLm3EEEJRKS2_EPS2_EEPT_S7_DpOT0_, symObjAddr: 0x61A7C, symBinAddr: 0x1000636D0, symSize: 0x40 }
  - { offsetInCU: 0x243FE, offset: 0x243FE, size: 0x8, addend: 0x0, symName: __ZNSt3__142__uninitialized_allocator_move_if_noexceptB7v160006INS_9allocatorINS_5arrayImLm3EEEEENS_16reverse_iteratorIPS3_EES7_S3_vEET1_RT_T0_SB_S8_, symObjAddr: 0x62B44, symBinAddr: 0x100064798, symSize: 0x4A8 }
  - { offsetInCU: 0x24488, offset: 0x24488, size: 0x8, addend: 0x0, symName: __ZNSt3__14swapB7v160006IPNS_5arrayImLm3EEEEENS_9enable_ifIXaasr21is_move_constructibleIT_EE5valuesr18is_move_assignableIS5_EE5valueEvE4typeERS5_S8_, symObjAddr: 0x63084, symBinAddr: 0x100064CD8, symSize: 0x134 }
  - { offsetInCU: 0x244D9, offset: 0x244D9, size: 0x8, addend: 0x0, symName: __ZNSt3__125__debug_db_invalidate_allB7v160006INS_6vectorINS_5arrayImLm3EEENS_9allocatorIS3_EEEEEEvPT_, symObjAddr: 0x631B8, symBinAddr: 0x100064E0C, symSize: 0x10 }
  - { offsetInCU: 0x2450A, offset: 0x2450A, size: 0x8, addend: 0x0, symName: __ZNSt3__14moveB7v160006INS_16reverse_iteratorIPNS_5arrayImLm3EEEEES5_EET0_T_S7_S6_, symObjAddr: 0x631C8, symBinAddr: 0x100064E1C, symSize: 0x4B0 }
  - { offsetInCU: 0x24571, offset: 0x24571, size: 0x8, addend: 0x0, symName: __ZNSt3__16__moveB7v160006INS_17_ClassicAlgPolicyENS_16reverse_iteratorIPNS_5arrayImLm3EEEEES6_S6_EENS_4pairIT0_T2_EES8_T1_S9_, symObjAddr: 0x63678, symBinAddr: 0x1000652CC, symSize: 0x424 }
  - { offsetInCU: 0x245E9, offset: 0x245E9, size: 0x8, addend: 0x0, symName: __ZNSt3__123__dispatch_copy_or_moveB7v160006INS_17_ClassicAlgPolicyENS_11__move_loopIS1_EENS_14__move_trivialENS_16reverse_iteratorIPNS_5arrayImLm3EEEEES9_S9_EENS_4pairIT2_T4_EESB_T3_SC_, symObjAddr: 0x63A9C, symBinAddr: 0x1000656F0, symSize: 0x424 }
  - { offsetInCU: 0x24673, offset: 0x24673, size: 0x8, addend: 0x0, symName: __ZNSt3__121__unwrap_and_dispatchB7v160006INS_10__overloadINS_11__move_loopINS_17_ClassicAlgPolicyEEENS_14__move_trivialEEENS_16reverse_iteratorIPNS_5arrayImLm3EEEEESB_SB_Li0EEENS_4pairIT0_T2_EESD_T1_SE_, symObjAddr: 0x63EC0, symBinAddr: 0x100065B14, symSize: 0x880 }
  - { offsetInCU: 0x24717, offset: 0x24717, size: 0x8, addend: 0x0, symName: __ZNSt3__114__unwrap_rangeB7v160006INS_16reverse_iteratorIPNS_5arrayImLm3EEEEES5_EEDaT_T0_, symObjAddr: 0x64740, symBinAddr: 0x100066394, symSize: 0x35C }
  - { offsetInCU: 0x2483F, offset: 0x2483F, size: 0x8, addend: 0x0, symName: __ZNSt3__113__unwrap_iterB7v160006INS_16reverse_iteratorIPNS_5arrayImLm3EEEEENS_18__unwrap_iter_implIS5_Lb0EEELi0EEEDTclsrT0_8__unwrapclsr3stdE7declvalIT_EEEES9_, symObjAddr: 0x64DE0, symBinAddr: 0x100066A34, symSize: 0x2EC }
  - { offsetInCU: 0x24887, offset: 0x24887, size: 0x8, addend: 0x0, symName: __ZNSt3__19make_pairB7v160006INS_16reverse_iteratorIPNS_5arrayImLm3EEEEES5_EENS_4pairINS_18__unwrap_ref_decayIT_E4typeENS7_IT0_E4typeEEEOS8_OSB_, symObjAddr: 0x650CC, symBinAddr: 0x100066D20, symSize: 0x38 }
  - { offsetInCU: 0x248D6, offset: 0x248D6, size: 0x8, addend: 0x0, symName: __ZNSt3__114__rewrap_rangeB7v160006INS_16reverse_iteratorIPNS_5arrayImLm3EEEEES5_S5_EET0_S6_T1_, symObjAddr: 0x65104, symBinAddr: 0x100066D58, symSize: 0x3D4 }
  - { offsetInCU: 0x24933, offset: 0x24933, size: 0x8, addend: 0x0, symName: __ZNSt3__113__rewrap_iterB7v160006INS_16reverse_iteratorIPNS_5arrayImLm3EEEEES5_NS_18__unwrap_iter_implIS5_Lb0EEEEET_S8_T0_, symObjAddr: 0x654D8, symBinAddr: 0x10006712C, symSize: 0x3E8 }
  - { offsetInCU: 0x249E0, offset: 0x249E0, size: 0x8, addend: 0x0, symName: __ZNSt3__1neB7v160006IPNS_5arrayImLm3EEES3_EEbRKNS_16reverse_iteratorIT_EERKNS4_IT0_EE, symObjAddr: 0x65D98, symBinAddr: 0x1000679EC, symSize: 0x48 }
  - { offsetInCU: 0x24A98, offset: 0x24A98, size: 0x8, addend: 0x0, symName: __ZNSt3__14sortB7v160006INS_11__wrap_iterIPNS_5arrayImLm3EEEEEEEvT_S6_, symObjAddr: 0x66C78, symBinAddr: 0x1000688CC, symSize: 0x348 }
  - { offsetInCU: 0x24AE2, offset: 0x24AE2, size: 0x8, addend: 0x0, symName: __ZNSt3__1eqB7v160006INS_5arrayImLm3EEENS_9allocatorIS2_EEEEbRKNS_6vectorIT_T0_EESA_, symObjAddr: 0x67494, symBinAddr: 0x1000690E8, symSize: 0x3FC }
  - { offsetInCU: 0x24B43, offset: 0x24B43, size: 0x8, addend: 0x0, symName: __ZNSt3__14sortB7v160006INS_11__wrap_iterIPNS_5arrayImLm3EEEEENS_6__lessIS3_S3_EEEEvT_S8_T0_, symObjAddr: 0x67890, symBinAddr: 0x1000694E4, symSize: 0x36C }
  - { offsetInCU: 0x24BA9, offset: 0x24BA9, size: 0x8, addend: 0x0, symName: __ZNSt3__111__sort_implB7v160006INS_17_ClassicAlgPolicyENS_11__wrap_iterIPNS_5arrayImLm3EEEEENS_6__lessIS4_S4_EEEEvT0_S9_RT1_, symObjAddr: 0x67BFC, symBinAddr: 0x100069850, symSize: 0x43C }
  - { offsetInCU: 0x24C5B, offset: 0x24C5B, size: 0x8, addend: 0x0, symName: __ZNSt3__123__debug_randomize_rangeB7v160006INS_17_ClassicAlgPolicyENS_11__wrap_iterIPNS_5arrayImLm3EEEEES6_EEvT0_T1_, symObjAddr: 0x68038, symBinAddr: 0x100069C8C, symSize: 0x264 }
  - { offsetInCU: 0x24CB4, offset: 0x24CB4, size: 0x8, addend: 0x0, symName: __ZNSt3__16__sortIRNS_6__lessINS_5arrayImLm3EEES3_EEPS3_EEvT0_S7_T_, symObjAddr: 0x6829C, symBinAddr: 0x100069EF0, symSize: 0x68 }
  - { offsetInCU: 0x24D44, offset: 0x24D44, size: 0x8, addend: 0x0, symName: __ZNSt3__113__unwrap_iterB7v160006INS_11__wrap_iterIPNS_5arrayImLm3EEEEENS_18__unwrap_iter_implIS5_Lb1EEELi0EEEDTclsrT0_8__unwrapclsr3stdE7declvalIT_EEEES9_, symObjAddr: 0x68304, symBinAddr: 0x100069F58, symSize: 0x274 }
  - { offsetInCU: 0x24DFA, offset: 0x24DFA, size: 0x8, addend: 0x0, symName: __ZNSt3__124__sort3_maybe_branchlessB7v160006INS_17_ClassicAlgPolicyERNS_6__lessINS_5arrayImLm3EEES4_EEPS4_EENS_9enable_ifIXntsr21__use_branchless_sortIT0_T1_EE5valueEvE4typeESA_SA_SA_S9_, symObjAddr: 0x6A528, symBinAddr: 0x10006C17C, symSize: 0x3C }
  - { offsetInCU: 0x24E6B, offset: 0x24E6B, size: 0x8, addend: 0x0, symName: __ZNSt3__124__sort4_maybe_branchlessB7v160006INS_17_ClassicAlgPolicyERNS_6__lessINS_5arrayImLm3EEES4_EEPS4_EENS_9enable_ifIXntsr21__use_branchless_sortIT0_T1_EE5valueEvE4typeESA_SA_SA_SA_S9_, symObjAddr: 0x6A564, symBinAddr: 0x10006C1B8, symSize: 0x44 }
  - { offsetInCU: 0x24EF0, offset: 0x24EF0, size: 0x8, addend: 0x0, symName: __ZNSt3__124__sort5_maybe_branchlessB7v160006INS_17_ClassicAlgPolicyERNS_6__lessINS_5arrayImLm3EEES4_EEPS4_EENS_9enable_ifIXntsr21__use_branchless_sortIT0_T1_EE5valueEvE4typeESA_SA_SA_SA_SA_S9_, symObjAddr: 0x6A5A8, symBinAddr: 0x10006C1FC, symSize: 0x4C }
  - { offsetInCU: 0x24F84, offset: 0x24F84, size: 0x8, addend: 0x0, symName: __ZNSt3__114__partial_sortB7v160006INS_17_ClassicAlgPolicyERNS_6__lessINS_5arrayImLm3EEES4_EEPS4_S7_EET1_S8_S8_T2_RT0_, symObjAddr: 0x6ABA0, symBinAddr: 0x10006C7F4, symSize: 0x94 }
  - { offsetInCU: 0x2500C, offset: 0x2500C, size: 0x8, addend: 0x0, symName: __ZNSt3__119__sort5_wrap_policyB7v160006INS_17_ClassicAlgPolicyERNS_6__lessINS_5arrayImLm3EEES4_EEPS4_EEjT1_S8_S8_S8_S8_T0_, symObjAddr: 0x6AC34, symBinAddr: 0x10006C888, symSize: 0x54 }
  - { offsetInCU: 0x250B2, offset: 0x250B2, size: 0x8, addend: 0x0, symName: __ZNSt3__17__sort3B7v160006INS_17_ClassicAlgPolicyERNS_6__lessINS_5arrayImLm3EEES4_EEPS4_EEjT1_S8_S8_T0_, symObjAddr: 0x6AC88, symBinAddr: 0x10006C8DC, symSize: 0x66C }
  - { offsetInCU: 0x2513F, offset: 0x2513F, size: 0x8, addend: 0x0, symName: __ZNSt3__1ltB7v160006ImLm3EEEbRKNS_5arrayIT_XT0_EEES5_, symObjAddr: 0x6BF38, symBinAddr: 0x10006DB8C, symSize: 0x64 }
  - { offsetInCU: 0x2518F, offset: 0x2518F, size: 0x8, addend: 0x0, symName: __ZNSt3__19iter_swapB7v160006IPNS_5arrayImLm3EEES3_EEvT_T0_, symObjAddr: 0x6BFFC, symBinAddr: 0x10006DC50, symSize: 0x2C }
  - { offsetInCU: 0x251D7, offset: 0x251D7, size: 0x8, addend: 0x0, symName: __ZNSt3__14swapB7v160006ImLm3EEENS_9enable_ifIXooeqT0_Li0Esr14__is_swappableIT_EE5valueEvE4typeERNS_5arrayIS2_XT0_EEES7_, symObjAddr: 0x6C028, symBinAddr: 0x10006DC7C, symSize: 0x2C }
  - { offsetInCU: 0x25227, offset: 0x25227, size: 0x8, addend: 0x0, symName: __ZNSt3__17__sort4B7v160006INS_17_ClassicAlgPolicyERNS_6__lessINS_5arrayImLm3EEES4_EEPS4_EEjT1_S8_S8_S8_T0_, symObjAddr: 0x6C0C4, symBinAddr: 0x10006DD18, symSize: 0x608 }
  - { offsetInCU: 0x252C7, offset: 0x252C7, size: 0x8, addend: 0x0, symName: __ZNSt3__123__debug_randomize_rangeB7v160006INS_17_ClassicAlgPolicyEPNS_5arrayImLm3EEES4_EEvT0_T1_, symObjAddr: 0x6C754, symBinAddr: 0x10006E3A8, symSize: 0x14 }
  - { offsetInCU: 0x25318, offset: 0x25318, size: 0x8, addend: 0x0, symName: __ZNSt3__119__partial_sort_implB7v160006INS_17_ClassicAlgPolicyERNS_6__lessINS_5arrayImLm3EEES4_EEPS4_S7_EET1_S8_S8_T2_OT0_, symObjAddr: 0x6C768, symBinAddr: 0x10006E3BC, symSize: 0x59C }
  - { offsetInCU: 0x253BA, offset: 0x253BA, size: 0x8, addend: 0x0, symName: __ZNSt3__111__make_heapB7v160006INS_17_ClassicAlgPolicyERNS_6__lessINS_5arrayImLm3EEES4_EEPS4_EEvT1_S8_OT0_, symObjAddr: 0x6CD04, symBinAddr: 0x10006E958, symSize: 0xC4 }
  - { offsetInCU: 0x2545C, offset: 0x2545C, size: 0x8, addend: 0x0, symName: __ZNSt3__111__sort_heapB7v160006INS_17_ClassicAlgPolicyERNS_6__lessINS_5arrayImLm3EEES4_EEPS4_EEvT1_S8_OT0_, symObjAddr: 0x6D568, symBinAddr: 0x10006F1BC, symSize: 0x94 }
  - { offsetInCU: 0x254F0, offset: 0x254F0, size: 0x8, addend: 0x0, symName: __ZNSt3__110__pop_heapB7v160006INS_17_ClassicAlgPolicyENS_6__lessINS_5arrayImLm3EEES4_EEPS4_EEvT1_S7_RT0_NS_15iterator_traitsIS7_E15difference_typeE, symObjAddr: 0x6D5FC, symBinAddr: 0x10006F250, symSize: 0x498 }
  - { offsetInCU: 0x255A8, offset: 0x255A8, size: 0x8, addend: 0x0, symName: __ZNSt3__19__sift_upB7v160006INS_17_ClassicAlgPolicyERNS_6__lessINS_5arrayImLm3EEES4_EEPS4_EEvT1_S8_OT0_NS_15iterator_traitsIS8_E15difference_typeE, symObjAddr: 0x6DE6C, symBinAddr: 0x10006FAC0, symSize: 0x564 }
  - { offsetInCU: 0x25657, offset: 0x25657, size: 0x8, addend: 0x0, symName: __ZNSt3__17__sort5IRNS_6__lessINS_5arrayImLm3EEES3_EEPS3_EEjT0_S7_S7_S7_S7_T_, symObjAddr: 0x6E3D0, symBinAddr: 0x100070024, symSize: 0x760 }
  - { offsetInCU: 0x2576E, offset: 0x2576E, size: 0x8, addend: 0x0, symName: __ZNSt3__112__to_addressB7v160006INS_11__wrap_iterIPNS_5arrayImLm3EEEEEvEENS_5decayIDTclsr19__to_address_helperIT_EE6__callclsr3stdE7declvalIRKS7_EEEEE4typeES9_, symObjAddr: 0x6ED20, symBinAddr: 0x100070974, symSize: 0x24 }
  - { offsetInCU: 0x2580F, offset: 0x2580F, size: 0x8, addend: 0x0, symName: __ZNSt3__15equalB7v160006INS_11__wrap_iterIPKNS_5arrayImLm3EEEEES6_EEbT_S7_T0_, symObjAddr: 0x6F448, symBinAddr: 0x10007109C, symSize: 0x40C }
  - { offsetInCU: 0x25875, offset: 0x25875, size: 0x8, addend: 0x0, symName: __ZNSt3__15equalB7v160006INS_11__wrap_iterIPKNS_5arrayImLm3EEEEES6_NS_10__equal_toEEEbT_S8_T0_T1_, symObjAddr: 0x6FD28, symBinAddr: 0x10007197C, symSize: 0x380 }
  - { offsetInCU: 0x258F7, offset: 0x258F7, size: 0x8, addend: 0x0, symName: __ZNSt3__1neB7v160006IPKNS_5arrayImLm3EEEEEbRKNS_11__wrap_iterIT_EES9_, symObjAddr: 0x700A8, symBinAddr: 0x100071CFC, symSize: 0x34 }
  - { offsetInCU: 0x2593A, offset: 0x2593A, size: 0x8, addend: 0x0, symName: __ZNSt3__1eqB7v160006IPKNS_5arrayImLm3EEEEEbRKNS_11__wrap_iterIT_EES9_, symObjAddr: 0x701D8, symBinAddr: 0x100071E2C, symSize: 0x48 }
  - { offsetInCU: 0x2597D, offset: 0x2597D, size: 0x8, addend: 0x0, symName: __ZNSt3__1eqB7v160006ImLm3EEEbRKNS_5arrayIT_XT0_EEES5_, symObjAddr: 0x70280, symBinAddr: 0x100071ED4, symSize: 0x54 }
  - { offsetInCU: 0x259F2, offset: 0x259F2, size: 0x8, addend: 0x0, symName: __ZNSt3__112construct_atB7v160006INS_5arrayImLm1EEEJRKS2_EPS2_EEPT_S7_DpOT0_, symObjAddr: 0x714B0, symBinAddr: 0x100073104, symSize: 0x40 }
  - { offsetInCU: 0x25A62, offset: 0x25A62, size: 0x8, addend: 0x0, symName: __ZNSt3__142__uninitialized_allocator_move_if_noexceptB7v160006INS_9allocatorINS_5arrayImLm1EEEEENS_16reverse_iteratorIPS3_EES7_S3_vEET1_RT_T0_SB_S8_, symObjAddr: 0x72568, symBinAddr: 0x1000741BC, symSize: 0x4A8 }
  - { offsetInCU: 0x25AEC, offset: 0x25AEC, size: 0x8, addend: 0x0, symName: __ZNSt3__14swapB7v160006IPNS_5arrayImLm1EEEEENS_9enable_ifIXaasr21is_move_constructibleIT_EE5valuesr18is_move_assignableIS5_EE5valueEvE4typeERS5_S8_, symObjAddr: 0x72AA8, symBinAddr: 0x1000746FC, symSize: 0x134 }
  - { offsetInCU: 0x25B3D, offset: 0x25B3D, size: 0x8, addend: 0x0, symName: __ZNSt3__125__debug_db_invalidate_allB7v160006INS_6vectorINS_5arrayImLm1EEENS_9allocatorIS3_EEEEEEvPT_, symObjAddr: 0x72BDC, symBinAddr: 0x100074830, symSize: 0x10 }
  - { offsetInCU: 0x25B6E, offset: 0x25B6E, size: 0x8, addend: 0x0, symName: __ZNSt3__14moveB7v160006INS_16reverse_iteratorIPNS_5arrayImLm1EEEEES5_EET0_T_S7_S6_, symObjAddr: 0x72BEC, symBinAddr: 0x100074840, symSize: 0x4B0 }
  - { offsetInCU: 0x25BD5, offset: 0x25BD5, size: 0x8, addend: 0x0, symName: __ZNSt3__16__moveB7v160006INS_17_ClassicAlgPolicyENS_16reverse_iteratorIPNS_5arrayImLm1EEEEES6_S6_EENS_4pairIT0_T2_EES8_T1_S9_, symObjAddr: 0x7309C, symBinAddr: 0x100074CF0, symSize: 0x424 }
  - { offsetInCU: 0x25C4D, offset: 0x25C4D, size: 0x8, addend: 0x0, symName: __ZNSt3__123__dispatch_copy_or_moveB7v160006INS_17_ClassicAlgPolicyENS_11__move_loopIS1_EENS_14__move_trivialENS_16reverse_iteratorIPNS_5arrayImLm1EEEEES9_S9_EENS_4pairIT2_T4_EESB_T3_SC_, symObjAddr: 0x734C0, symBinAddr: 0x100075114, symSize: 0x424 }
  - { offsetInCU: 0x25CD7, offset: 0x25CD7, size: 0x8, addend: 0x0, symName: __ZNSt3__121__unwrap_and_dispatchB7v160006INS_10__overloadINS_11__move_loopINS_17_ClassicAlgPolicyEEENS_14__move_trivialEEENS_16reverse_iteratorIPNS_5arrayImLm1EEEEESB_SB_Li0EEENS_4pairIT0_T2_EESD_T1_SE_, symObjAddr: 0x738E4, symBinAddr: 0x100075538, symSize: 0x880 }
  - { offsetInCU: 0x25D7B, offset: 0x25D7B, size: 0x8, addend: 0x0, symName: __ZNSt3__114__unwrap_rangeB7v160006INS_16reverse_iteratorIPNS_5arrayImLm1EEEEES5_EEDaT_T0_, symObjAddr: 0x74164, symBinAddr: 0x100075DB8, symSize: 0x35C }
  - { offsetInCU: 0x25EA3, offset: 0x25EA3, size: 0x8, addend: 0x0, symName: __ZNSt3__113__unwrap_iterB7v160006INS_16reverse_iteratorIPNS_5arrayImLm1EEEEENS_18__unwrap_iter_implIS5_Lb0EEELi0EEEDTclsrT0_8__unwrapclsr3stdE7declvalIT_EEEES9_, symObjAddr: 0x74804, symBinAddr: 0x100076458, symSize: 0x2EC }
  - { offsetInCU: 0x25EEB, offset: 0x25EEB, size: 0x8, addend: 0x0, symName: __ZNSt3__19make_pairB7v160006INS_16reverse_iteratorIPNS_5arrayImLm1EEEEES5_EENS_4pairINS_18__unwrap_ref_decayIT_E4typeENS7_IT0_E4typeEEEOS8_OSB_, symObjAddr: 0x74AF0, symBinAddr: 0x100076744, symSize: 0x38 }
  - { offsetInCU: 0x25F3A, offset: 0x25F3A, size: 0x8, addend: 0x0, symName: __ZNSt3__114__rewrap_rangeB7v160006INS_16reverse_iteratorIPNS_5arrayImLm1EEEEES5_S5_EET0_S6_T1_, symObjAddr: 0x74B28, symBinAddr: 0x10007677C, symSize: 0x3D4 }
  - { offsetInCU: 0x25F97, offset: 0x25F97, size: 0x8, addend: 0x0, symName: __ZNSt3__113__rewrap_iterB7v160006INS_16reverse_iteratorIPNS_5arrayImLm1EEEEES5_NS_18__unwrap_iter_implIS5_Lb0EEEEET_S8_T0_, symObjAddr: 0x74EFC, symBinAddr: 0x100076B50, symSize: 0x3E8 }
  - { offsetInCU: 0x26044, offset: 0x26044, size: 0x8, addend: 0x0, symName: __ZNSt3__1neB7v160006IPNS_5arrayImLm1EEES3_EEbRKNS_16reverse_iteratorIT_EERKNS4_IT0_EE, symObjAddr: 0x757BC, symBinAddr: 0x100077410, symSize: 0x48 }
  - { offsetInCU: 0x260FC, offset: 0x260FC, size: 0x8, addend: 0x0, symName: __ZNSt3__14sortB7v160006INS_11__wrap_iterIPNS_5arrayImLm1EEEEEEEvT_S6_, symObjAddr: 0x7669C, symBinAddr: 0x1000782F0, symSize: 0x348 }
  - { offsetInCU: 0x26146, offset: 0x26146, size: 0x8, addend: 0x0, symName: __ZNSt3__1eqB7v160006INS_5arrayImLm1EEENS_9allocatorIS2_EEEEbRKNS_6vectorIT_T0_EESA_, symObjAddr: 0x76EB8, symBinAddr: 0x100078B0C, symSize: 0x3FC }
  - { offsetInCU: 0x261A7, offset: 0x261A7, size: 0x8, addend: 0x0, symName: __ZNSt3__14sortB7v160006INS_11__wrap_iterIPNS_5arrayImLm1EEEEENS_6__lessIS3_S3_EEEEvT_S8_T0_, symObjAddr: 0x772B4, symBinAddr: 0x100078F08, symSize: 0x36C }
  - { offsetInCU: 0x2620D, offset: 0x2620D, size: 0x8, addend: 0x0, symName: __ZNSt3__111__sort_implB7v160006INS_17_ClassicAlgPolicyENS_11__wrap_iterIPNS_5arrayImLm1EEEEENS_6__lessIS4_S4_EEEEvT0_S9_RT1_, symObjAddr: 0x77620, symBinAddr: 0x100079274, symSize: 0x43C }
  - { offsetInCU: 0x262BF, offset: 0x262BF, size: 0x8, addend: 0x0, symName: __ZNSt3__123__debug_randomize_rangeB7v160006INS_17_ClassicAlgPolicyENS_11__wrap_iterIPNS_5arrayImLm1EEEEES6_EEvT0_T1_, symObjAddr: 0x77A5C, symBinAddr: 0x1000796B0, symSize: 0x264 }
  - { offsetInCU: 0x26318, offset: 0x26318, size: 0x8, addend: 0x0, symName: __ZNSt3__16__sortIRNS_6__lessINS_5arrayImLm1EEES3_EEPS3_EEvT0_S7_T_, symObjAddr: 0x77CC0, symBinAddr: 0x100079914, symSize: 0x68 }
  - { offsetInCU: 0x263A8, offset: 0x263A8, size: 0x8, addend: 0x0, symName: __ZNSt3__113__unwrap_iterB7v160006INS_11__wrap_iterIPNS_5arrayImLm1EEEEENS_18__unwrap_iter_implIS5_Lb1EEELi0EEEDTclsrT0_8__unwrapclsr3stdE7declvalIT_EEEES9_, symObjAddr: 0x77D28, symBinAddr: 0x10007997C, symSize: 0x274 }
  - { offsetInCU: 0x2645E, offset: 0x2645E, size: 0x8, addend: 0x0, symName: __ZNSt3__124__sort3_maybe_branchlessB7v160006INS_17_ClassicAlgPolicyERNS_6__lessINS_5arrayImLm1EEES4_EEPS4_EENS_9enable_ifIXntsr21__use_branchless_sortIT0_T1_EE5valueEvE4typeESA_SA_SA_S9_, symObjAddr: 0x79F30, symBinAddr: 0x10007BB84, symSize: 0x3C }
  - { offsetInCU: 0x264CF, offset: 0x264CF, size: 0x8, addend: 0x0, symName: __ZNSt3__124__sort4_maybe_branchlessB7v160006INS_17_ClassicAlgPolicyERNS_6__lessINS_5arrayImLm1EEES4_EEPS4_EENS_9enable_ifIXntsr21__use_branchless_sortIT0_T1_EE5valueEvE4typeESA_SA_SA_SA_S9_, symObjAddr: 0x79F6C, symBinAddr: 0x10007BBC0, symSize: 0x44 }
  - { offsetInCU: 0x26554, offset: 0x26554, size: 0x8, addend: 0x0, symName: __ZNSt3__124__sort5_maybe_branchlessB7v160006INS_17_ClassicAlgPolicyERNS_6__lessINS_5arrayImLm1EEES4_EEPS4_EENS_9enable_ifIXntsr21__use_branchless_sortIT0_T1_EE5valueEvE4typeESA_SA_SA_SA_SA_S9_, symObjAddr: 0x79FB0, symBinAddr: 0x10007BC04, symSize: 0x4C }
  - { offsetInCU: 0x265E8, offset: 0x265E8, size: 0x8, addend: 0x0, symName: __ZNSt3__114__partial_sortB7v160006INS_17_ClassicAlgPolicyERNS_6__lessINS_5arrayImLm1EEES4_EEPS4_S7_EET1_S8_S8_T2_RT0_, symObjAddr: 0x7A574, symBinAddr: 0x10007C1C8, symSize: 0x94 }
  - { offsetInCU: 0x26670, offset: 0x26670, size: 0x8, addend: 0x0, symName: __ZNSt3__119__sort5_wrap_policyB7v160006INS_17_ClassicAlgPolicyERNS_6__lessINS_5arrayImLm1EEES4_EEPS4_EEjT1_S8_S8_S8_S8_T0_, symObjAddr: 0x7A608, symBinAddr: 0x10007C25C, symSize: 0x54 }
  - { offsetInCU: 0x26716, offset: 0x26716, size: 0x8, addend: 0x0, symName: __ZNSt3__17__sort3B7v160006INS_17_ClassicAlgPolicyERNS_6__lessINS_5arrayImLm1EEES4_EEPS4_EEjT1_S8_S8_T0_, symObjAddr: 0x7A65C, symBinAddr: 0x10007C2B0, symSize: 0x66C }
  - { offsetInCU: 0x267A3, offset: 0x267A3, size: 0x8, addend: 0x0, symName: __ZNSt3__1ltB7v160006ImLm1EEEbRKNS_5arrayIT_XT0_EEES5_, symObjAddr: 0x7B8F0, symBinAddr: 0x10007D544, symSize: 0x64 }
  - { offsetInCU: 0x267F3, offset: 0x267F3, size: 0x8, addend: 0x0, symName: __ZNSt3__19iter_swapB7v160006IPNS_5arrayImLm1EEES3_EEvT_T0_, symObjAddr: 0x7B9B4, symBinAddr: 0x10007D608, symSize: 0x2C }
  - { offsetInCU: 0x2683B, offset: 0x2683B, size: 0x8, addend: 0x0, symName: __ZNSt3__14swapB7v160006ImLm1EEENS_9enable_ifIXooeqT0_Li0Esr14__is_swappableIT_EE5valueEvE4typeERNS_5arrayIS2_XT0_EEES7_, symObjAddr: 0x7B9E0, symBinAddr: 0x10007D634, symSize: 0x2C }
  - { offsetInCU: 0x2688B, offset: 0x2688B, size: 0x8, addend: 0x0, symName: __ZNSt3__17__sort4B7v160006INS_17_ClassicAlgPolicyERNS_6__lessINS_5arrayImLm1EEES4_EEPS4_EEjT1_S8_S8_S8_T0_, symObjAddr: 0x7BA7C, symBinAddr: 0x10007D6D0, symSize: 0x608 }
  - { offsetInCU: 0x2692B, offset: 0x2692B, size: 0x8, addend: 0x0, symName: __ZNSt3__123__debug_randomize_rangeB7v160006INS_17_ClassicAlgPolicyEPNS_5arrayImLm1EEES4_EEvT0_T1_, symObjAddr: 0x7C10C, symBinAddr: 0x10007DD60, symSize: 0x14 }
  - { offsetInCU: 0x2697C, offset: 0x2697C, size: 0x8, addend: 0x0, symName: __ZNSt3__119__partial_sort_implB7v160006INS_17_ClassicAlgPolicyERNS_6__lessINS_5arrayImLm1EEES4_EEPS4_S7_EET1_S8_S8_T2_OT0_, symObjAddr: 0x7C120, symBinAddr: 0x10007DD74, symSize: 0x59C }
  - { offsetInCU: 0x26A1E, offset: 0x26A1E, size: 0x8, addend: 0x0, symName: __ZNSt3__111__make_heapB7v160006INS_17_ClassicAlgPolicyERNS_6__lessINS_5arrayImLm1EEES4_EEPS4_EEvT1_S8_OT0_, symObjAddr: 0x7C6BC, symBinAddr: 0x10007E310, symSize: 0xBC }
  - { offsetInCU: 0x26AC0, offset: 0x26AC0, size: 0x8, addend: 0x0, symName: __ZNSt3__111__sort_heapB7v160006INS_17_ClassicAlgPolicyERNS_6__lessINS_5arrayImLm1EEES4_EEPS4_EEvT1_S8_OT0_, symObjAddr: 0x7CED0, symBinAddr: 0x10007EB24, symSize: 0x94 }
  - { offsetInCU: 0x26B54, offset: 0x26B54, size: 0x8, addend: 0x0, symName: __ZNSt3__110__pop_heapB7v160006INS_17_ClassicAlgPolicyENS_6__lessINS_5arrayImLm1EEES4_EEPS4_EEvT1_S7_RT0_NS_15iterator_traitsIS7_E15difference_typeE, symObjAddr: 0x7CF64, symBinAddr: 0x10007EBB8, symSize: 0x46C }
  - { offsetInCU: 0x26C0C, offset: 0x26C0C, size: 0x8, addend: 0x0, symName: __ZNSt3__19__sift_upB7v160006INS_17_ClassicAlgPolicyERNS_6__lessINS_5arrayImLm1EEES4_EEPS4_EEvT1_S8_OT0_NS_15iterator_traitsIS8_E15difference_typeE, symObjAddr: 0x7D7A0, symBinAddr: 0x10007F3F4, symSize: 0x51C }
  - { offsetInCU: 0x26CBB, offset: 0x26CBB, size: 0x8, addend: 0x0, symName: __ZNSt3__17__sort5IRNS_6__lessINS_5arrayImLm1EEES3_EEPS3_EEjT0_S7_S7_S7_S7_T_, symObjAddr: 0x7DCBC, symBinAddr: 0x10007F910, symSize: 0x760 }
  - { offsetInCU: 0x26DD2, offset: 0x26DD2, size: 0x8, addend: 0x0, symName: __ZNSt3__112__to_addressB7v160006INS_11__wrap_iterIPNS_5arrayImLm1EEEEEvEENS_5decayIDTclsr19__to_address_helperIT_EE6__callclsr3stdE7declvalIRKS7_EEEEE4typeES9_, symObjAddr: 0x7E60C, symBinAddr: 0x100080260, symSize: 0x24 }
  - { offsetInCU: 0x26E73, offset: 0x26E73, size: 0x8, addend: 0x0, symName: __ZNSt3__15equalB7v160006INS_11__wrap_iterIPKNS_5arrayImLm1EEEEES6_EEbT_S7_T0_, symObjAddr: 0x7ED34, symBinAddr: 0x100080988, symSize: 0x40C }
  - { offsetInCU: 0x26ED9, offset: 0x26ED9, size: 0x8, addend: 0x0, symName: __ZNSt3__15equalB7v160006INS_11__wrap_iterIPKNS_5arrayImLm1EEEEES6_NS_10__equal_toEEEbT_S8_T0_T1_, symObjAddr: 0x7F614, symBinAddr: 0x100081268, symSize: 0x380 }
  - { offsetInCU: 0x26F5B, offset: 0x26F5B, size: 0x8, addend: 0x0, symName: __ZNSt3__1neB7v160006IPKNS_5arrayImLm1EEEEEbRKNS_11__wrap_iterIT_EES9_, symObjAddr: 0x7F994, symBinAddr: 0x1000815E8, symSize: 0x34 }
  - { offsetInCU: 0x26F9E, offset: 0x26F9E, size: 0x8, addend: 0x0, symName: __ZNSt3__1eqB7v160006IPKNS_5arrayImLm1EEEEEbRKNS_11__wrap_iterIT_EES9_, symObjAddr: 0x7FAC4, symBinAddr: 0x100081718, symSize: 0x48 }
  - { offsetInCU: 0x26FE1, offset: 0x26FE1, size: 0x8, addend: 0x0, symName: __ZNSt3__1eqB7v160006ImLm1EEEbRKNS_5arrayIT_XT0_EEES5_, symObjAddr: 0x7FB6C, symBinAddr: 0x1000817C0, symSize: 0x54 }
  - { offsetInCU: 0x27031, offset: 0x27031, size: 0x8, addend: 0x0, symName: __ZNSt3__122__make_exception_guardB7v160006INS_6vectorIiNS_9allocatorIiEEE16__destroy_vectorEEENS_28__exception_guard_exceptionsIT_EES7_, symObjAddr: 0x8086C, symBinAddr: 0x1000824C0, symSize: 0x278 }
  - { offsetInCU: 0x2706A, offset: 0x2706A, size: 0x8, addend: 0x0, symName: __ZNSt3__130__uninitialized_allocator_copyB7v160006INS_9allocatorIiEEiiLPv0EEEPT0_RT_PKS4_S9_S5_, symObjAddr: 0x8183C, symBinAddr: 0x100083490, symSize: 0x38 }
  - { offsetInCU: 0x270E2, offset: 0x270E2, size: 0x8, addend: 0x0, symName: __ZNSt3__14copyB7v160006IPKiPiEET0_T_S5_S4_, symObjAddr: 0x81874, symBinAddr: 0x1000834C8, symSize: 0x26C }
  - { offsetInCU: 0x2713F, offset: 0x2713F, size: 0x8, addend: 0x0, symName: __ZNSt3__16__copyB7v160006INS_17_ClassicAlgPolicyEPKiS3_PiEENS_4pairIT0_T2_EES6_T1_S7_, symObjAddr: 0x81AE0, symBinAddr: 0x100083734, symSize: 0x22C }
  - { offsetInCU: 0x271AE, offset: 0x271AE, size: 0x8, addend: 0x0, symName: __ZNSt3__123__dispatch_copy_or_moveB7v160006INS_17_ClassicAlgPolicyENS_11__copy_loopIS1_EENS_14__copy_trivialEPKiS6_PiEENS_4pairIT2_T4_EES9_T3_SA_, symObjAddr: 0x81D0C, symBinAddr: 0x100083960, symSize: 0x22C }
  - { offsetInCU: 0x2722F, offset: 0x2722F, size: 0x8, addend: 0x0, symName: __ZNSt3__121__unwrap_and_dispatchB7v160006INS_10__overloadINS_11__copy_loopINS_17_ClassicAlgPolicyEEENS_14__copy_trivialEEEPKiS8_PiLi0EEENS_4pairIT0_T2_EESB_T1_SC_, symObjAddr: 0x81F38, symBinAddr: 0x100083B8C, symSize: 0x5A4 }
  - { offsetInCU: 0x272C8, offset: 0x272C8, size: 0x8, addend: 0x0, symName: __ZNSt3__114__unwrap_rangeB7v160006IPKiS2_EEDaT_T0_, symObjAddr: 0x824DC, symBinAddr: 0x100084130, symSize: 0x224 }
  - { offsetInCU: 0x27419, offset: 0x27419, size: 0x8, addend: 0x0, symName: __ZNSt3__113__unwrap_iterB7v160006IPiNS_18__unwrap_iter_implIS1_Lb1EEELi0EEEDTclsrT0_8__unwrapclsr3stdE7declvalIT_EEEES5_, symObjAddr: 0x82930, symBinAddr: 0x100084584, symSize: 0x24 }
  - { offsetInCU: 0x2745D, offset: 0x2745D, size: 0x8, addend: 0x0, symName: __ZNSt3__19make_pairB7v160006IPKiPiEENS_4pairINS_18__unwrap_ref_decayIT_E4typeENS5_IT0_E4typeEEEOS6_OS9_, symObjAddr: 0x82954, symBinAddr: 0x1000845A8, symSize: 0x20C }
  - { offsetInCU: 0x274AE, offset: 0x274AE, size: 0x8, addend: 0x0, symName: __ZNSt3__114__rewrap_rangeB7v160006IPKiS2_S2_EET0_S3_T1_, symObjAddr: 0x82B60, symBinAddr: 0x1000847B4, symSize: 0x2C }
  - { offsetInCU: 0x27503, offset: 0x27503, size: 0x8, addend: 0x0, symName: __ZNSt3__113__rewrap_iterB7v160006IPiS1_NS_18__unwrap_iter_implIS1_Lb1EEEEET_S4_T0_, symObjAddr: 0x82B8C, symBinAddr: 0x1000847E0, symSize: 0x48 }
  - { offsetInCU: 0x27674, offset: 0x27674, size: 0x8, addend: 0x0, symName: __ZNSt3__113__unwrap_iterB7v160006IPKiNS_18__unwrap_iter_implIS2_Lb1EEELi0EEEDTclsrT0_8__unwrapclsr3stdE7declvalIT_EEEES6_, symObjAddr: 0x82EE0, symBinAddr: 0x100084B34, symSize: 0x24 }
  - { offsetInCU: 0x2770B, offset: 0x2770B, size: 0x8, addend: 0x0, symName: __ZNSt3__112__to_addressB7v160006IKiEEPT_S3_, symObjAddr: 0x82F64, symBinAddr: 0x100084BB8, symSize: 0x14 }
  - { offsetInCU: 0x27740, offset: 0x27740, size: 0x8, addend: 0x0, symName: __ZNSt3__119__copy_trivial_implB7v160006IKiiEENS_4pairIPT_PT0_EES4_S4_S6_, symObjAddr: 0x830B0, symBinAddr: 0x100084D04, symSize: 0x3B8 }
  - { offsetInCU: 0x277AF, offset: 0x277AF, size: 0x8, addend: 0x0, symName: __ZNSt3__19make_pairB7v160006IRPKiPiEENS_4pairINS_18__unwrap_ref_decayIT_E4typeENS6_IT0_E4typeEEEOS7_OSA_, symObjAddr: 0x83468, symBinAddr: 0x1000850BC, symSize: 0x20C }
  - { offsetInCU: 0x27853, offset: 0x27853, size: 0x8, addend: 0x0, symName: __ZNSt3__113__rewrap_iterB7v160006IPKiS2_NS_18__unwrap_iter_implIS2_Lb1EEEEET_S5_T0_, symObjAddr: 0x839AC, symBinAddr: 0x100085600, symSize: 0x48 }
  - { offsetInCU: 0x278A8, offset: 0x278A8, size: 0x8, addend: 0x0, symName: __ZNSt3__1eqB7v160006IiNS_9allocatorIiEEEEbRKNS_6vectorIT_T0_EES8_, symObjAddr: 0x8439C, symBinAddr: 0x100085FF0, symSize: 0x3FC }
  - { offsetInCU: 0x27909, offset: 0x27909, size: 0x8, addend: 0x0, symName: __ZNSt3__119__debug_db_insert_cB7v160006INS_6vectorINS1_IiNS_9allocatorIiEEEENS2_IS4_EEEEEEvPT_, symObjAddr: 0x84C94, symBinAddr: 0x1000868E8, symSize: 0x10 }
  - { offsetInCU: 0x2793A, offset: 0x2793A, size: 0x8, addend: 0x0, symName: __ZNSt3__18distanceB7v160006INS_11__wrap_iterIPKiEEEENS_15iterator_traitsIT_E15difference_typeES6_S6_, symObjAddr: 0x857C8, symBinAddr: 0x10008741C, symSize: 0x350 }
  - { offsetInCU: 0x27985, offset: 0x27985, size: 0x8, addend: 0x0, symName: __ZNSt3__110__distanceB7v160006INS_11__wrap_iterIPKiEEEENS_15iterator_traitsIT_E15difference_typeES6_S6_NS_26random_access_iterator_tagE, symObjAddr: 0x86060, symBinAddr: 0x100087CB4, symSize: 0x274 }
  - { offsetInCU: 0x279DB, offset: 0x279DB, size: 0x8, addend: 0x0, symName: __ZNSt3__1miB7v160006IPKiS2_EEDTmicldtfp_4baseEcldtfp0_4baseEERKNS_11__wrap_iterIT_EERKNS4_IT0_EE, symObjAddr: 0x862D4, symBinAddr: 0x100087F28, symSize: 0x48 }
  - { offsetInCU: 0x27A27, offset: 0x27A27, size: 0x8, addend: 0x0, symName: __ZNSt3__130__uninitialized_allocator_copyB7v160006INS_9allocatorIiEENS_11__wrap_iterIPKiEES6_PiEET2_RT_T0_T1_S8_, symObjAddr: 0x8637C, symBinAddr: 0x100087FD0, symSize: 0x5BC }
  - { offsetInCU: 0x27ADB, offset: 0x27ADB, size: 0x8, addend: 0x0, symName: __ZNSt3__122__make_exception_guardB7v160006INS_29_AllocatorDestroyRangeReverseINS_9allocatorIiEEPiEEEENS_28__exception_guard_exceptionsIT_EES7_, symObjAddr: 0x86938, symBinAddr: 0x10008858C, symSize: 0x1F8 }
  - { offsetInCU: 0x27B12, offset: 0x27B12, size: 0x8, addend: 0x0, symName: __ZNSt3__1neB7v160006IPKiEEbRKNS_11__wrap_iterIT_EES7_, symObjAddr: 0x86B74, symBinAddr: 0x1000887C8, symSize: 0x34 }
  - { offsetInCU: 0x27B55, offset: 0x27B55, size: 0x8, addend: 0x0, symName: __ZNSt3__1eqB7v160006IPKiEEbRKNS_11__wrap_iterIT_EES7_, symObjAddr: 0x86F34, symBinAddr: 0x100088B88, symSize: 0x48 }
  - { offsetInCU: 0x27B98, offset: 0x27B98, size: 0x8, addend: 0x0, symName: __ZNSt3__112construct_atB7v160006IiJRKiEPiEEPT_S5_DpOT0_, symObjAddr: 0x86F7C, symBinAddr: 0x100088BD0, symSize: 0x108 }
  - { offsetInCU: 0x27C08, offset: 0x27C08, size: 0x8, addend: 0x0, symName: __ZNSt3__119__allocator_destroyB7v160006INS_9allocatorIiEENS_16reverse_iteratorIPiEES5_EEvRT_T0_T1_, symObjAddr: 0x874DC, symBinAddr: 0x100089130, symSize: 0x2B8 }
  - { offsetInCU: 0x27C74, offset: 0x27C74, size: 0x8, addend: 0x0, symName: __ZNSt3__112__to_addressB7v160006INS_16reverse_iteratorIPiEEvEENS_5decayIDTclsr19__to_address_helperIT_EE6__callclsr3stdE7declvalIRKS5_EEEEE4typeES7_, symObjAddr: 0x87794, symBinAddr: 0x1000893E8, symSize: 0x24 }
  - { offsetInCU: 0x27CD3, offset: 0x27CD3, size: 0x8, addend: 0x0, symName: __ZNSt3__14prevB7v160006IPiEENS_9enable_ifIXsr25__is_cpp17_input_iteratorIT_EE5valueES3_E4typeES3_NS_15iterator_traitsIS3_E15difference_typeE, symObjAddr: 0x87868, symBinAddr: 0x1000894BC, symSize: 0x25C }
  - { offsetInCU: 0x27D1B, offset: 0x27D1B, size: 0x8, addend: 0x0, symName: __ZNSt3__19__advanceB7v160006IPiEEvRT_NS_15iterator_traitsIS2_E15difference_typeENS_26random_access_iterator_tagE, symObjAddr: 0x87B14, symBinAddr: 0x100089768, symSize: 0x78 }
  - { offsetInCU: 0x27D64, offset: 0x27D64, size: 0x8, addend: 0x0, symName: __ZNSt3__15equalB7v160006INS_11__wrap_iterIPKiEES4_EEbT_S5_T0_, symObjAddr: 0x87B8C, symBinAddr: 0x1000897E0, symSize: 0x40C }
  - { offsetInCU: 0x27DCA, offset: 0x27DCA, size: 0x8, addend: 0x0, symName: __ZNSt3__15equalB7v160006INS_11__wrap_iterIPKiEES4_NS_10__equal_toEEEbT_S6_T0_T1_, symObjAddr: 0x88204, symBinAddr: 0x100089E58, symSize: 0x380 }
  - { offsetInCU: 0x27E4C, offset: 0x27E4C, size: 0x8, addend: 0x0, symName: __ZNSt3__112__to_addressB7v160006INS_6vectorIiNS_9allocatorIiEEEEEEPT_S6_, symObjAddr: 0x88EB0, symBinAddr: 0x10008AB04, symSize: 0x14 }
  - { offsetInCU: 0x27EA6, offset: 0x27EA6, size: 0x8, addend: 0x0, symName: __ZNSt3__112construct_atB7v160006INS_6vectorIiNS_9allocatorIiEEEEJRKS4_EPS4_EEPT_S9_DpOT0_, symObjAddr: 0x89398, symBinAddr: 0x10008AFEC, symSize: 0x3C }
  - { offsetInCU: 0x27F16, offset: 0x27F16, size: 0x8, addend: 0x0, symName: __ZNSt3__130__uninitialized_allocator_copyB7v160006INS_9allocatorIiEEPiS3_S3_EET2_RT_T0_T1_S4_, symObjAddr: 0x89D68, symBinAddr: 0x10008B9BC, symSize: 0x520 }
  - { offsetInCU: 0x27FC2, offset: 0x27FC2, size: 0x8, addend: 0x0, symName: __ZNSt3__112construct_atB7v160006IiJRiEPiEEPT_S4_DpOT0_, symObjAddr: 0x8A2B8, symBinAddr: 0x10008BF0C, symSize: 0x108 }
  - { offsetInCU: 0x28032, offset: 0x28032, size: 0x8, addend: 0x0, symName: __ZNSt3__119__allocate_at_leastB7v160006INS_9allocatorINS_6vectorIiNS1_IiEEEEEEEENS_19__allocation_resultINS_16allocator_traitsIT_E7pointerEEERS8_m, symObjAddr: 0x8B9CC, symBinAddr: 0x10008D620, symSize: 0x28C }
  - { offsetInCU: 0x28077, offset: 0x28077, size: 0x8, addend: 0x0, symName: __ZNSt3__142__uninitialized_allocator_move_if_noexceptB7v160006INS_9allocatorINS_6vectorIiNS1_IiEEEEEENS_16reverse_iteratorIPS4_EES8_S8_EET2_RT_T0_T1_S9_, symObjAddr: 0x8BF54, symBinAddr: 0x10008DBA8, symSize: 0x544 }
  - { offsetInCU: 0x2812C, offset: 0x2812C, size: 0x8, addend: 0x0, symName: __ZNSt3__14swapB7v160006IPNS_6vectorIiNS_9allocatorIiEEEEEENS_9enable_ifIXaasr21is_move_constructibleIT_EE5valuesr18is_move_assignableIS7_EE5valueEvE4typeERS7_SA_, symObjAddr: 0x8C530, symBinAddr: 0x10008E184, symSize: 0x134 }
  - { offsetInCU: 0x2817D, offset: 0x2817D, size: 0x8, addend: 0x0, symName: __ZNSt3__125__debug_db_invalidate_allB7v160006INS_6vectorINS1_IiNS_9allocatorIiEEEENS2_IS4_EEEEEEvPT_, symObjAddr: 0x8C740, symBinAddr: 0x10008E394, symSize: 0x10 }
  - { offsetInCU: 0x281AE, offset: 0x281AE, size: 0x8, addend: 0x0, symName: __ZNSt3__122__make_exception_guardB7v160006INS_29_AllocatorDestroyRangeReverseINS_9allocatorINS_6vectorIiNS2_IiEEEEEENS_16reverse_iteratorIPS5_EEEEEENS_28__exception_guard_exceptionsIT_EESC_, symObjAddr: 0x8C750, symBinAddr: 0x10008E3A4, symSize: 0x1F8 }
  - { offsetInCU: 0x281E5, offset: 0x281E5, size: 0x8, addend: 0x0, symName: __ZNSt3__1neB7v160006IPNS_6vectorIiNS_9allocatorIiEEEES5_EEbRKNS_16reverse_iteratorIT_EERKNS6_IT0_EE, symObjAddr: 0x8C98C, symBinAddr: 0x10008E5E0, symSize: 0x48 }
  - { offsetInCU: 0x28231, offset: 0x28231, size: 0x8, addend: 0x0, symName: __ZNSt3__112__to_addressB7v160006INS_16reverse_iteratorIPNS_6vectorIiNS_9allocatorIiEEEEEEvEENS_5decayIDTclsr19__to_address_helperIT_EE6__callclsr3stdE7declvalIRKS9_EEEEE4typeESB_, symObjAddr: 0x8CA04, symBinAddr: 0x10008E658, symSize: 0x24 }
  - { offsetInCU: 0x28267, offset: 0x28267, size: 0x8, addend: 0x0, symName: __ZNSt3__112construct_atB7v160006INS_6vectorIiNS_9allocatorIiEEEEJS4_EPS4_EEPT_S7_DpOT0_, symObjAddr: 0x8CD9C, symBinAddr: 0x10008E9F0, symSize: 0x3C }
  - { offsetInCU: 0x282D7, offset: 0x282D7, size: 0x8, addend: 0x0, symName: __ZNSt3__115__debug_db_swapB7v160006INS_6vectorIiNS_9allocatorIiEEEEEEvPT_S6_, symObjAddr: 0x8D318, symBinAddr: 0x10008EF6C, symSize: 0x14 }
  - { offsetInCU: 0x2833F, offset: 0x2833F, size: 0x8, addend: 0x0, symName: __ZNSt3__14prevB7v160006IPNS_6vectorIiNS_9allocatorIiEEEEEENS_9enable_ifIXsr25__is_cpp17_input_iteratorIT_EE5valueES7_E4typeES7_NS_15iterator_traitsIS7_E15difference_typeE, symObjAddr: 0x8D3DC, symBinAddr: 0x10008F030, symSize: 0x25C }
  - { offsetInCU: 0x28387, offset: 0x28387, size: 0x8, addend: 0x0, symName: __ZNSt3__19__advanceB7v160006IPNS_6vectorIiNS_9allocatorIiEEEEEEvRT_NS_15iterator_traitsIS6_E15difference_typeENS_26random_access_iterator_tagE, symObjAddr: 0x8D688, symBinAddr: 0x10008F2DC, symSize: 0x80 }
  - { offsetInCU: 0x283D0, offset: 0x283D0, size: 0x8, addend: 0x0, symName: __ZNSt3__119__allocator_destroyB7v160006INS_9allocatorINS_6vectorIiNS1_IiEEEEEENS_16reverse_iteratorINS6_IPS4_EEEES9_EEvRT_T0_T1_, symObjAddr: 0x8DB6C, symBinAddr: 0x10008F7C0, symSize: 0x70 }
  - { offsetInCU: 0x28435, offset: 0x28435, size: 0x8, addend: 0x0, symName: __ZNSt3__1neB7v160006INS_16reverse_iteratorIPNS_6vectorIiNS_9allocatorIiEEEEEES7_EEbRKNS1_IT_EERKNS1_IT0_EE, symObjAddr: 0x8DE24, symBinAddr: 0x10008FA78, symSize: 0x2CC }
  - { offsetInCU: 0x28483, offset: 0x28483, size: 0x8, addend: 0x0, symName: __ZNSt3__112__to_addressB7v160006INS_16reverse_iteratorINS1_IPNS_6vectorIiNS_9allocatorIiEEEEEEEEvEENS_5decayIDTclsr19__to_address_helperIT_EE6__callclsr3stdE7declvalIRKSA_EEEEE4typeESC_, symObjAddr: 0x8E118, symBinAddr: 0x10008FD6C, symSize: 0x24 }
  - { offsetInCU: 0x284B9, offset: 0x284B9, size: 0x8, addend: 0x0, symName: __ZNSt3__110destroy_atB7v160006INS_6vectorIiNS_9allocatorIiEEEELi0EEEvPT_, symObjAddr: 0x8E378, symBinAddr: 0x10008FFCC, symSize: 0x24 }
  - { offsetInCU: 0x284F0, offset: 0x284F0, size: 0x8, addend: 0x0, symName: __ZNSt3__112__destroy_atB7v160006INS_6vectorIiNS_9allocatorIiEEEELi0EEEvPT_, symObjAddr: 0x8E39C, symBinAddr: 0x10008FFF0, symSize: 0x24 }
  - { offsetInCU: 0x28550, offset: 0x28550, size: 0x8, addend: 0x0, symName: __ZNSt3__14prevB7v160006INS_16reverse_iteratorIPNS_6vectorIiNS_9allocatorIiEEEEEEEENS_9enable_ifIXsr25__is_cpp17_input_iteratorIT_EE5valueES9_E4typeES9_NS_15iterator_traitsIS9_E15difference_typeE, symObjAddr: 0x8E6A4, symBinAddr: 0x1000902F8, symSize: 0x2B0 }
  - { offsetInCU: 0x28598, offset: 0x28598, size: 0x8, addend: 0x0, symName: __ZNSt3__19__advanceB7v160006INS_16reverse_iteratorIPNS_6vectorIiNS_9allocatorIiEEEEEEEEvRT_NS_15iterator_traitsIS8_E15difference_typeENS_26random_access_iterator_tagE, symObjAddr: 0x8E9A4, symBinAddr: 0x1000905F8, symSize: 0x2C }
  - { offsetInCU: 0x285E1, offset: 0x285E1, size: 0x8, addend: 0x0, symName: __ZNSt3__118__debug_db_erase_cB7v160006INS_6vectorINS1_IiNS_9allocatorIiEEEENS2_IS4_EEEEEEvPT_, symObjAddr: 0x8F84C, symBinAddr: 0x1000914A0, symSize: 0x10 }
  - { offsetInCU: 0x28612, offset: 0x28612, size: 0x8, addend: 0x0, symName: __ZNSt3__1neB7v160006IPNS_4pairINS_6vectorIiNS_9allocatorIiEEEENS2_ImNS3_ImEEEEEEEEbRKNS_11__wrap_iterIT_EESE_, symObjAddr: 0x8FD5C, symBinAddr: 0x1000919B0, symSize: 0x34 }
  - { offsetInCU: 0x28655, offset: 0x28655, size: 0x8, addend: 0x0, symName: __ZNSt3__13getB7v160006ILm0ENS_6vectorIiNS_9allocatorIiEEEENS1_ImNS2_ImEEEEEERNS_13tuple_elementIXT_ENS_4pairIT0_T1_EEE4typeERSB_, symObjAddr: 0x8FDF0, symBinAddr: 0x100091A44, symSize: 0x24 }
  - { offsetInCU: 0x2869F, offset: 0x2869F, size: 0x8, addend: 0x0, symName: __ZNSt3__13getB7v160006ILm1ENS_6vectorIiNS_9allocatorIiEEEENS1_ImNS2_ImEEEEEERNS_13tuple_elementIXT_ENS_4pairIT0_T1_EEE4typeERSB_, symObjAddr: 0x8FE14, symBinAddr: 0x100091A68, symSize: 0x24 }
  - { offsetInCU: 0x286E9, offset: 0x286E9, size: 0x8, addend: 0x0, symName: __ZNSt3__15equalB7v160006INS_11__wrap_iterIPiEES3_EEbT_S4_T0_, symObjAddr: 0x8FE38, symBinAddr: 0x100091A8C, symSize: 0x40C }
  - { offsetInCU: 0x2874F, offset: 0x2874F, size: 0x8, addend: 0x0, symName: __ZNSt3__13getB7v160006ILm0ENS_6vectorIiNS_9allocatorIiEEEENS1_ImNS2_ImEEEEEERKNS_13tuple_elementIXT_ENS_4pairIT0_T1_EEE4typeERKSB_, symObjAddr: 0x903A0, symBinAddr: 0x100091FF4, symSize: 0x24 }
  - { offsetInCU: 0x28799, offset: 0x28799, size: 0x8, addend: 0x0, symName: __ZNSt3__13getB7v160006ILm1ENS_6vectorIiNS_9allocatorIiEEEENS1_ImNS2_ImEEEEEERKNS_13tuple_elementIXT_ENS_4pairIT0_T1_EEE4typeERKSB_, symObjAddr: 0x903C4, symBinAddr: 0x100092018, symSize: 0x24 }
  - { offsetInCU: 0x287E3, offset: 0x287E3, size: 0x8, addend: 0x0, symName: __ZNSt3__119__debug_db_insert_cB7v160006INS_6vectorINS_4pairINS1_IiNS_9allocatorIiEEEENS1_ImNS3_ImEEEEEENS3_IS8_EEEEEEvPT_, symObjAddr: 0x90AE0, symBinAddr: 0x100092734, symSize: 0x10 }
  - { offsetInCU: 0x28814, offset: 0x28814, size: 0x8, addend: 0x0, symName: __ZNSt3__1eqB7v160006IPNS_4pairINS_6vectorIiNS_9allocatorIiEEEENS2_ImNS3_ImEEEEEEEEbRKNS_11__wrap_iterIT_EESE_, symObjAddr: 0x90EB0, symBinAddr: 0x100092B04, symSize: 0x48 }
  - { offsetInCU: 0x28857, offset: 0x28857, size: 0x8, addend: 0x0, symName: __ZNSt3__15equalB7v160006INS_11__wrap_iterIPiEES3_NS_10__equal_toEEEbT_S5_T0_T1_, symObjAddr: 0x90F84, symBinAddr: 0x100092BD8, symSize: 0x380 }
  - { offsetInCU: 0x288D9, offset: 0x288D9, size: 0x8, addend: 0x0, symName: __ZNSt3__112__to_addressB7v160006INS_4pairINS_6vectorIiNS_9allocatorIiEEEENS2_ImNS3_ImEEEEEEEEPT_SA_, symObjAddr: 0x91BA4, symBinAddr: 0x1000937F8, symSize: 0x14 }
  - { offsetInCU: 0x28933, offset: 0x28933, size: 0x8, addend: 0x0, symName: __ZNSt3__112construct_atB7v160006INS_4pairINS_6vectorIiNS_9allocatorIiEEEENS2_ImNS3_ImEEEEEEJRS5_S7_EPS8_EEPT_SC_DpOT0_, symObjAddr: 0x9213C, symBinAddr: 0x100093D90, symSize: 0x44 }
  - { offsetInCU: 0x289B6, offset: 0x289B6, size: 0x8, addend: 0x0, symName: __ZNSt3__119__allocate_at_leastB7v160006INS_9allocatorINS_4pairINS_6vectorIiNS1_IiEEEENS3_ImNS1_ImEEEEEEEEEENS_19__allocation_resultINS_16allocator_traitsIT_E7pointerEEERSC_m, symObjAddr: 0x93810, symBinAddr: 0x100095464, symSize: 0x28C }
  - { offsetInCU: 0x289FB, offset: 0x289FB, size: 0x8, addend: 0x0, symName: __ZNSt3__142__uninitialized_allocator_move_if_noexceptB7v160006INS_9allocatorINS_4pairINS_6vectorIiNS1_IiEEEENS3_ImNS1_ImEEEEEEEENS_16reverse_iteratorIPS8_EESC_SC_EET2_RT_T0_T1_SD_, symObjAddr: 0x93D98, symBinAddr: 0x1000959EC, symSize: 0x544 }
  - { offsetInCU: 0x28AB0, offset: 0x28AB0, size: 0x8, addend: 0x0, symName: __ZNSt3__14swapB7v160006IPNS_4pairINS_6vectorIiNS_9allocatorIiEEEENS2_ImNS3_ImEEEEEEEENS_9enable_ifIXaasr21is_move_constructibleIT_EE5valuesr18is_move_assignableISB_EE5valueEvE4typeERSB_SE_, symObjAddr: 0x94374, symBinAddr: 0x100095FC8, symSize: 0x134 }
  - { offsetInCU: 0x28B01, offset: 0x28B01, size: 0x8, addend: 0x0, symName: __ZNSt3__125__debug_db_invalidate_allB7v160006INS_6vectorINS_4pairINS1_IiNS_9allocatorIiEEEENS1_ImNS3_ImEEEEEENS3_IS8_EEEEEEvPT_, symObjAddr: 0x94584, symBinAddr: 0x1000961D8, symSize: 0x10 }
  - { offsetInCU: 0x28B32, offset: 0x28B32, size: 0x8, addend: 0x0, symName: __ZNSt3__122__make_exception_guardB7v160006INS_29_AllocatorDestroyRangeReverseINS_9allocatorINS_4pairINS_6vectorIiNS2_IiEEEENS4_ImNS2_ImEEEEEEEENS_16reverse_iteratorIPS9_EEEEEENS_28__exception_guard_exceptionsIT_EESG_, symObjAddr: 0x94594, symBinAddr: 0x1000961E8, symSize: 0x1F8 }
  - { offsetInCU: 0x28B69, offset: 0x28B69, size: 0x8, addend: 0x0, symName: __ZNSt3__1neB7v160006IPNS_4pairINS_6vectorIiNS_9allocatorIiEEEENS2_ImNS3_ImEEEEEES9_EEbRKNS_16reverse_iteratorIT_EERKNSA_IT0_EE, symObjAddr: 0x947D0, symBinAddr: 0x100096424, symSize: 0x48 }
  - { offsetInCU: 0x28BB5, offset: 0x28BB5, size: 0x8, addend: 0x0, symName: __ZNSt3__112__to_addressB7v160006INS_16reverse_iteratorIPNS_4pairINS_6vectorIiNS_9allocatorIiEEEENS3_ImNS4_ImEEEEEEEEvEENS_5decayIDTclsr19__to_address_helperIT_EE6__callclsr3stdE7declvalIRKSD_EEEEE4typeESF_, symObjAddr: 0x94848, symBinAddr: 0x10009649C, symSize: 0x24 }
  - { offsetInCU: 0x28BEB, offset: 0x28BEB, size: 0x8, addend: 0x0, symName: __ZNSt3__112construct_atB7v160006INS_4pairINS_6vectorIiNS_9allocatorIiEEEENS2_ImNS3_ImEEEEEEJS8_EPS8_EEPT_SB_DpOT0_, symObjAddr: 0x94BE0, symBinAddr: 0x100096834, symSize: 0x3C }
  - { offsetInCU: 0x28C84, offset: 0x28C84, size: 0x8, addend: 0x0, symName: __ZNSt3__14prevB7v160006IPNS_4pairINS_6vectorIiNS_9allocatorIiEEEENS2_ImNS3_ImEEEEEEEENS_9enable_ifIXsr25__is_cpp17_input_iteratorIT_EE5valueESB_E4typeESB_NS_15iterator_traitsISB_E15difference_typeE, symObjAddr: 0x94D48, symBinAddr: 0x10009699C, symSize: 0x25C }
  - { offsetInCU: 0x28CCC, offset: 0x28CCC, size: 0x8, addend: 0x0, symName: __ZNSt3__19__advanceB7v160006IPNS_4pairINS_6vectorIiNS_9allocatorIiEEEENS2_ImNS3_ImEEEEEEEEvRT_NS_15iterator_traitsISA_E15difference_typeENS_26random_access_iterator_tagE, symObjAddr: 0x94FF4, symBinAddr: 0x100096C48, symSize: 0x80 }
  - { offsetInCU: 0x28D15, offset: 0x28D15, size: 0x8, addend: 0x0, symName: __ZNSt3__119__allocator_destroyB7v160006INS_9allocatorINS_4pairINS_6vectorIiNS1_IiEEEENS3_ImNS1_ImEEEEEEEENS_16reverse_iteratorINSA_IPS8_EEEESD_EEvRT_T0_T1_, symObjAddr: 0x954D8, symBinAddr: 0x10009712C, symSize: 0x70 }
  - { offsetInCU: 0x28D7A, offset: 0x28D7A, size: 0x8, addend: 0x0, symName: __ZNSt3__1neB7v160006INS_16reverse_iteratorIPNS_4pairINS_6vectorIiNS_9allocatorIiEEEENS3_ImNS4_ImEEEEEEEESB_EEbRKNS1_IT_EERKNS1_IT0_EE, symObjAddr: 0x95790, symBinAddr: 0x1000973E4, symSize: 0x2CC }
  - { offsetInCU: 0x28DC8, offset: 0x28DC8, size: 0x8, addend: 0x0, symName: __ZNSt3__112__to_addressB7v160006INS_16reverse_iteratorINS1_IPNS_4pairINS_6vectorIiNS_9allocatorIiEEEENS3_ImNS4_ImEEEEEEEEEEvEENS_5decayIDTclsr19__to_address_helperIT_EE6__callclsr3stdE7declvalIRKSE_EEEEE4typeESG_, symObjAddr: 0x95A84, symBinAddr: 0x1000976D8, symSize: 0x24 }
  - { offsetInCU: 0x28DFE, offset: 0x28DFE, size: 0x8, addend: 0x0, symName: __ZNSt3__110destroy_atB7v160006INS_4pairINS_6vectorIiNS_9allocatorIiEEEENS2_ImNS3_ImEEEEEELi0EEEvPT_, symObjAddr: 0x95CE4, symBinAddr: 0x100097938, symSize: 0x24 }
  - { offsetInCU: 0x28E35, offset: 0x28E35, size: 0x8, addend: 0x0, symName: __ZNSt3__112__destroy_atB7v160006INS_4pairINS_6vectorIiNS_9allocatorIiEEEENS2_ImNS3_ImEEEEEELi0EEEvPT_, symObjAddr: 0x95D08, symBinAddr: 0x10009795C, symSize: 0x24 }
  - { offsetInCU: 0x28E95, offset: 0x28E95, size: 0x8, addend: 0x0, symName: __ZNSt3__14prevB7v160006INS_16reverse_iteratorIPNS_4pairINS_6vectorIiNS_9allocatorIiEEEENS3_ImNS4_ImEEEEEEEEEENS_9enable_ifIXsr25__is_cpp17_input_iteratorIT_EE5valueESD_E4typeESD_NS_15iterator_traitsISD_E15difference_typeE, symObjAddr: 0x96074, symBinAddr: 0x100097CC8, symSize: 0x2B0 }
  - { offsetInCU: 0x28EDD, offset: 0x28EDD, size: 0x8, addend: 0x0, symName: __ZNSt3__19__advanceB7v160006INS_16reverse_iteratorIPNS_4pairINS_6vectorIiNS_9allocatorIiEEEENS3_ImNS4_ImEEEEEEEEEEvRT_NS_15iterator_traitsISC_E15difference_typeENS_26random_access_iterator_tagE, symObjAddr: 0x96374, symBinAddr: 0x100097FC8, symSize: 0x2C }
  - { offsetInCU: 0x28F26, offset: 0x28F26, size: 0x8, addend: 0x0, symName: __ZNSt3__118__debug_db_erase_cB7v160006INS_6vectorINS_4pairINS1_IiNS_9allocatorIiEEEENS1_ImNS3_ImEEEEEENS3_IS8_EEEEEEvPT_, symObjAddr: 0x970D0, symBinAddr: 0x100098D24, symSize: 0x10 }
  - { offsetInCU: 0x28F57, offset: 0x28F57, size: 0x8, addend: 0x0, symName: __ZNSt3__122__make_exception_guardB7v160006INS_6vectorI6CDummyNS_9allocatorIS2_EEE16__destroy_vectorEEENS_28__exception_guard_exceptionsIT_EES8_, symObjAddr: 0x97B88, symBinAddr: 0x1000997DC, symSize: 0x278 }
  - { offsetInCU: 0x28F90, offset: 0x28F90, size: 0x8, addend: 0x0, symName: __ZNSt3__119__debug_db_insert_cB7v160006INS_6vectorI6CDummyNS_9allocatorIS2_EEEEEEvPT_, symObjAddr: 0x97E00, symBinAddr: 0x100099A54, symSize: 0x10 }
  - { offsetInCU: 0x28FC1, offset: 0x28FC1, size: 0x8, addend: 0x0, symName: __ZNSt3__18distanceB7v160006IPK6CDummyEENS_15iterator_traitsIT_E15difference_typeES5_S5_, symObjAddr: 0x97E10, symBinAddr: 0x100099A64, symSize: 0x2C }
  - { offsetInCU: 0x29004, offset: 0x29004, size: 0x8, addend: 0x0, symName: __ZNSt3__110__distanceB7v160006IPK6CDummyEENS_15iterator_traitsIT_E15difference_typeES5_S5_NS_26random_access_iterator_tagE, symObjAddr: 0x98C40, symBinAddr: 0x10009A894, symSize: 0x20 }
  - { offsetInCU: 0x29051, offset: 0x29051, size: 0x8, addend: 0x0, symName: __ZNSt3__119__allocate_at_leastB7v160006INS_9allocatorI6CDummyEEEENS_19__allocation_resultINS_16allocator_traitsIT_E7pointerEEERS6_m, symObjAddr: 0x98F7C, symBinAddr: 0x10009ABD0, symSize: 0x28C }
  - { offsetInCU: 0x29096, offset: 0x29096, size: 0x8, addend: 0x0, symName: __ZNSt3__130__uninitialized_allocator_copyB7v160006INS_9allocatorI6CDummyEES2_S2_LPv0EEEPT0_RT_PKS5_SA_S6_, symObjAddr: 0x99448, symBinAddr: 0x10009B09C, symSize: 0x38 }
  - { offsetInCU: 0x2910E, offset: 0x2910E, size: 0x8, addend: 0x0, symName: __ZNSt3__14copyB7v160006IPK6CDummyPS1_EET0_T_S6_S5_, symObjAddr: 0x99754, symBinAddr: 0x10009B3A8, symSize: 0x26C }
  - { offsetInCU: 0x2916B, offset: 0x2916B, size: 0x8, addend: 0x0, symName: __ZNSt3__16__copyB7v160006INS_17_ClassicAlgPolicyEPK6CDummyS4_PS2_EENS_4pairIT0_T2_EES7_T1_S8_, symObjAddr: 0x999C0, symBinAddr: 0x10009B614, symSize: 0x22C }
  - { offsetInCU: 0x291DA, offset: 0x291DA, size: 0x8, addend: 0x0, symName: __ZNSt3__123__dispatch_copy_or_moveB7v160006INS_17_ClassicAlgPolicyENS_11__copy_loopIS1_EENS_14__copy_trivialEPK6CDummyS7_PS5_EENS_4pairIT2_T4_EESA_T3_SB_, symObjAddr: 0x99BEC, symBinAddr: 0x10009B840, symSize: 0x22C }
  - { offsetInCU: 0x2925B, offset: 0x2925B, size: 0x8, addend: 0x0, symName: __ZNSt3__121__unwrap_and_dispatchB7v160006INS_10__overloadINS_11__copy_loopINS_17_ClassicAlgPolicyEEENS_14__copy_trivialEEEPK6CDummyS9_PS7_Li0EEENS_4pairIT0_T2_EESC_T1_SD_, symObjAddr: 0x99E18, symBinAddr: 0x10009BA6C, symSize: 0x5A4 }
  - { offsetInCU: 0x292F4, offset: 0x292F4, size: 0x8, addend: 0x0, symName: __ZNSt3__114__unwrap_rangeB7v160006IPK6CDummyS3_EEDaT_T0_, symObjAddr: 0x9A3BC, symBinAddr: 0x10009C010, symSize: 0x224 }
  - { offsetInCU: 0x29445, offset: 0x29445, size: 0x8, addend: 0x0, symName: __ZNSt3__113__unwrap_iterB7v160006IP6CDummyNS_18__unwrap_iter_implIS2_Lb1EEELi0EEEDTclsrT0_8__unwrapclsr3stdE7declvalIT_EEEES6_, symObjAddr: 0x9A810, symBinAddr: 0x10009C464, symSize: 0x24 }
  - { offsetInCU: 0x29489, offset: 0x29489, size: 0x8, addend: 0x0, symName: __ZNSt3__19make_pairB7v160006IPK6CDummyPS1_EENS_4pairINS_18__unwrap_ref_decayIT_E4typeENS6_IT0_E4typeEEEOS7_OSA_, symObjAddr: 0x9A834, symBinAddr: 0x10009C488, symSize: 0x20C }
  - { offsetInCU: 0x294DA, offset: 0x294DA, size: 0x8, addend: 0x0, symName: __ZNSt3__114__rewrap_rangeB7v160006IPK6CDummyS3_S3_EET0_S4_T1_, symObjAddr: 0x9AA40, symBinAddr: 0x10009C694, symSize: 0x2C }
  - { offsetInCU: 0x2952F, offset: 0x2952F, size: 0x8, addend: 0x0, symName: __ZNSt3__113__rewrap_iterB7v160006IP6CDummyS2_NS_18__unwrap_iter_implIS2_Lb1EEEEET_S5_T0_, symObjAddr: 0x9AA6C, symBinAddr: 0x10009C6C0, symSize: 0x48 }
  - { offsetInCU: 0x296A0, offset: 0x296A0, size: 0x8, addend: 0x0, symName: __ZNSt3__113__unwrap_iterB7v160006IPK6CDummyNS_18__unwrap_iter_implIS3_Lb1EEELi0EEEDTclsrT0_8__unwrapclsr3stdE7declvalIT_EEEES7_, symObjAddr: 0x9ADC0, symBinAddr: 0x10009CA14, symSize: 0x24 }
  - { offsetInCU: 0x29737, offset: 0x29737, size: 0x8, addend: 0x0, symName: __ZNSt3__112__to_addressB7v160006IK6CDummyEEPT_S4_, symObjAddr: 0x9AE44, symBinAddr: 0x10009CA98, symSize: 0x14 }
  - { offsetInCU: 0x2976C, offset: 0x2976C, size: 0x8, addend: 0x0, symName: __ZNSt3__119__copy_trivial_implB7v160006IK6CDummyS1_EENS_4pairIPT_PT0_EES5_S5_S7_, symObjAddr: 0x9AF90, symBinAddr: 0x10009CBE4, symSize: 0x3B0 }
  - { offsetInCU: 0x297DB, offset: 0x297DB, size: 0x8, addend: 0x0, symName: __ZNSt3__19make_pairB7v160006IRPK6CDummyPS1_EENS_4pairINS_18__unwrap_ref_decayIT_E4typeENS7_IT0_E4typeEEEOS8_OSB_, symObjAddr: 0x9B340, symBinAddr: 0x10009CF94, symSize: 0x20C }
  - { offsetInCU: 0x2987F, offset: 0x2987F, size: 0x8, addend: 0x0, symName: __ZNSt3__113__rewrap_iterB7v160006IPK6CDummyS3_NS_18__unwrap_iter_implIS3_Lb1EEEEET_S6_T0_, symObjAddr: 0x9B884, symBinAddr: 0x10009D4D8, symSize: 0x48 }
  - { offsetInCU: 0x298D4, offset: 0x298D4, size: 0x8, addend: 0x0, symName: __ZNSt3__1eqB7v160006I6CDummyNS_9allocatorIS1_EEEEbRKNS_6vectorIT_T0_EES9_, symObjAddr: 0x9C59C, symBinAddr: 0x10009E1F0, symSize: 0x3FC }
  - { offsetInCU: 0x29935, offset: 0x29935, size: 0x8, addend: 0x0, symName: __ZNSt3__119__debug_db_insert_cB7v160006INS_6vectorINS1_I6CDummyNS_9allocatorIS2_EEEENS3_IS5_EEEEEEvPT_, symObjAddr: 0x9CE94, symBinAddr: 0x10009EAE8, symSize: 0x10 }
  - { offsetInCU: 0x29966, offset: 0x29966, size: 0x8, addend: 0x0, symName: __ZNSt3__18distanceB7v160006INS_11__wrap_iterIPK6CDummyEEEENS_15iterator_traitsIT_E15difference_typeES7_S7_, symObjAddr: 0x9D9C8, symBinAddr: 0x10009F61C, symSize: 0x350 }
  - { offsetInCU: 0x299B1, offset: 0x299B1, size: 0x8, addend: 0x0, symName: __ZNSt3__110__distanceB7v160006INS_11__wrap_iterIPK6CDummyEEEENS_15iterator_traitsIT_E15difference_typeES7_S7_NS_26random_access_iterator_tagE, symObjAddr: 0x9E260, symBinAddr: 0x10009FEB4, symSize: 0x274 }
  - { offsetInCU: 0x29A07, offset: 0x29A07, size: 0x8, addend: 0x0, symName: __ZNSt3__1miB7v160006IPK6CDummyS3_EEDTmicldtfp_4baseEcldtfp0_4baseEERKNS_11__wrap_iterIT_EERKNS5_IT0_EE, symObjAddr: 0x9E4D4, symBinAddr: 0x1000A0128, symSize: 0x40 }
  - { offsetInCU: 0x29A53, offset: 0x29A53, size: 0x8, addend: 0x0, symName: __ZNSt3__130__uninitialized_allocator_copyB7v160006INS_9allocatorI6CDummyEENS_11__wrap_iterIPKS2_EES7_PS2_EET2_RT_T0_T1_S9_, symObjAddr: 0x9E574, symBinAddr: 0x1000A01C8, symSize: 0x5BC }
  - { offsetInCU: 0x29B07, offset: 0x29B07, size: 0x8, addend: 0x0, symName: __ZNSt3__122__make_exception_guardB7v160006INS_29_AllocatorDestroyRangeReverseINS_9allocatorI6CDummyEEPS3_EEEENS_28__exception_guard_exceptionsIT_EES8_, symObjAddr: 0x9EB30, symBinAddr: 0x1000A0784, symSize: 0x1F8 }
  - { offsetInCU: 0x29B3E, offset: 0x29B3E, size: 0x8, addend: 0x0, symName: __ZNSt3__1neB7v160006IPK6CDummyEEbRKNS_11__wrap_iterIT_EES8_, symObjAddr: 0x9ED6C, symBinAddr: 0x1000A09C0, symSize: 0x34 }
  - { offsetInCU: 0x29B81, offset: 0x29B81, size: 0x8, addend: 0x0, symName: __ZNSt3__1eqB7v160006IPK6CDummyEEbRKNS_11__wrap_iterIT_EES8_, symObjAddr: 0x9F12C, symBinAddr: 0x1000A0D80, symSize: 0x48 }
  - { offsetInCU: 0x29BE9, offset: 0x29BE9, size: 0x8, addend: 0x0, symName: __ZNSt3__112construct_atB7v160006I6CDummyJRKS1_EPS1_EEPT_S6_DpOT0_, symObjAddr: 0x9F174, symBinAddr: 0x1000A0DC8, symSize: 0x40 }
  - { offsetInCU: 0x29C59, offset: 0x29C59, size: 0x8, addend: 0x0, symName: __ZNSt3__119__allocator_destroyB7v160006INS_9allocatorI6CDummyEENS_16reverse_iteratorIPS2_EES6_EEvRT_T0_T1_, symObjAddr: 0x9F60C, symBinAddr: 0x1000A1260, symSize: 0x2B8 }
  - { offsetInCU: 0x29CC5, offset: 0x29CC5, size: 0x8, addend: 0x0, symName: __ZNSt3__1neB7v160006IP6CDummyS2_EEbRKNS_16reverse_iteratorIT_EERKNS3_IT0_EE, symObjAddr: 0x9F8F8, symBinAddr: 0x1000A154C, symSize: 0x48 }
  - { offsetInCU: 0x29D11, offset: 0x29D11, size: 0x8, addend: 0x0, symName: __ZNSt3__112__to_addressB7v160006INS_16reverse_iteratorIP6CDummyEEvEENS_5decayIDTclsr19__to_address_helperIT_EE6__callclsr3stdE7declvalIRKS6_EEEEE4typeES8_, symObjAddr: 0x9F940, symBinAddr: 0x1000A1594, symSize: 0x24 }
  - { offsetInCU: 0x29D70, offset: 0x29D70, size: 0x8, addend: 0x0, symName: __ZNSt3__14prevB7v160006IP6CDummyEENS_9enable_ifIXsr25__is_cpp17_input_iteratorIT_EE5valueES4_E4typeES4_NS_15iterator_traitsIS4_E15difference_typeE, symObjAddr: 0x9FAE4, symBinAddr: 0x1000A1738, symSize: 0x25C }
  - { offsetInCU: 0x29DB8, offset: 0x29DB8, size: 0x8, addend: 0x0, symName: __ZNSt3__19__advanceB7v160006IP6CDummyEEvRT_NS_15iterator_traitsIS3_E15difference_typeENS_26random_access_iterator_tagE, symObjAddr: 0x9FD90, symBinAddr: 0x1000A19E4, symSize: 0x78 }
  - { offsetInCU: 0x29E01, offset: 0x29E01, size: 0x8, addend: 0x0, symName: __ZNSt3__15equalB7v160006INS_11__wrap_iterIPK6CDummyEES5_EEbT_S6_T0_, symObjAddr: 0x9FEC0, symBinAddr: 0x1000A1B14, symSize: 0x40C }
  - { offsetInCU: 0x29E67, offset: 0x29E67, size: 0x8, addend: 0x0, symName: __ZNSt3__15equalB7v160006INS_11__wrap_iterIPK6CDummyEES5_NS_10__equal_toEEEbT_S7_T0_T1_, symObjAddr: 0xA0538, symBinAddr: 0x1000A218C, symSize: 0x380 }
  - { offsetInCU: 0x29EE9, offset: 0x29EE9, size: 0x8, addend: 0x0, symName: __ZNSt3__112__to_addressB7v160006INS_6vectorI6CDummyNS_9allocatorIS2_EEEEEEPT_S7_, symObjAddr: 0xA120C, symBinAddr: 0x1000A2E60, symSize: 0x14 }
  - { offsetInCU: 0x29F43, offset: 0x29F43, size: 0x8, addend: 0x0, symName: __ZNSt3__112construct_atB7v160006INS_6vectorI6CDummyNS_9allocatorIS2_EEEEJRKS5_EPS5_EEPT_SA_DpOT0_, symObjAddr: 0xA16F4, symBinAddr: 0x1000A3348, symSize: 0x3C }
  - { offsetInCU: 0x29FB3, offset: 0x29FB3, size: 0x8, addend: 0x0, symName: __ZNSt3__130__uninitialized_allocator_copyB7v160006INS_9allocatorI6CDummyEEPS2_S4_S4_EET2_RT_T0_T1_S5_, symObjAddr: 0xA20C4, symBinAddr: 0x1000A3D18, symSize: 0x520 }
  - { offsetInCU: 0x2A05F, offset: 0x2A05F, size: 0x8, addend: 0x0, symName: __ZNSt3__112construct_atB7v160006I6CDummyJRS1_EPS1_EEPT_S5_DpOT0_, symObjAddr: 0xA2614, symBinAddr: 0x1000A4268, symSize: 0x40 }
  - { offsetInCU: 0x2A0CF, offset: 0x2A0CF, size: 0x8, addend: 0x0, symName: __ZNSt3__119__allocate_at_leastB7v160006INS_9allocatorINS_6vectorI6CDummyNS1_IS3_EEEEEEEENS_19__allocation_resultINS_16allocator_traitsIT_E7pointerEEERS9_m, symObjAddr: 0xA3C60, symBinAddr: 0x1000A58B4, symSize: 0x28C }
  - { offsetInCU: 0x2A114, offset: 0x2A114, size: 0x8, addend: 0x0, symName: __ZNSt3__142__uninitialized_allocator_move_if_noexceptB7v160006INS_9allocatorINS_6vectorI6CDummyNS1_IS3_EEEEEENS_16reverse_iteratorIPS5_EES9_S9_EET2_RT_T0_T1_SA_, symObjAddr: 0xA41E8, symBinAddr: 0x1000A5E3C, symSize: 0x544 }
  - { offsetInCU: 0x2A1C9, offset: 0x2A1C9, size: 0x8, addend: 0x0, symName: __ZNSt3__14swapB7v160006IPNS_6vectorI6CDummyNS_9allocatorIS2_EEEEEENS_9enable_ifIXaasr21is_move_constructibleIT_EE5valuesr18is_move_assignableIS8_EE5valueEvE4typeERS8_SB_, symObjAddr: 0xA47C4, symBinAddr: 0x1000A6418, symSize: 0x134 }
  - { offsetInCU: 0x2A21A, offset: 0x2A21A, size: 0x8, addend: 0x0, symName: __ZNSt3__125__debug_db_invalidate_allB7v160006INS_6vectorINS1_I6CDummyNS_9allocatorIS2_EEEENS3_IS5_EEEEEEvPT_, symObjAddr: 0xA49D4, symBinAddr: 0x1000A6628, symSize: 0x10 }
  - { offsetInCU: 0x2A24B, offset: 0x2A24B, size: 0x8, addend: 0x0, symName: __ZNSt3__122__make_exception_guardB7v160006INS_29_AllocatorDestroyRangeReverseINS_9allocatorINS_6vectorI6CDummyNS2_IS4_EEEEEENS_16reverse_iteratorIPS6_EEEEEENS_28__exception_guard_exceptionsIT_EESD_, symObjAddr: 0xA49E4, symBinAddr: 0x1000A6638, symSize: 0x1F8 }
  - { offsetInCU: 0x2A282, offset: 0x2A282, size: 0x8, addend: 0x0, symName: __ZNSt3__1neB7v160006IPNS_6vectorI6CDummyNS_9allocatorIS2_EEEES6_EEbRKNS_16reverse_iteratorIT_EERKNS7_IT0_EE, symObjAddr: 0xA4C20, symBinAddr: 0x1000A6874, symSize: 0x48 }
  - { offsetInCU: 0x2A2CE, offset: 0x2A2CE, size: 0x8, addend: 0x0, symName: __ZNSt3__112__to_addressB7v160006INS_16reverse_iteratorIPNS_6vectorI6CDummyNS_9allocatorIS3_EEEEEEvEENS_5decayIDTclsr19__to_address_helperIT_EE6__callclsr3stdE7declvalIRKSA_EEEEE4typeESC_, symObjAddr: 0xA4C98, symBinAddr: 0x1000A68EC, symSize: 0x24 }
  - { offsetInCU: 0x2A304, offset: 0x2A304, size: 0x8, addend: 0x0, symName: __ZNSt3__112construct_atB7v160006INS_6vectorI6CDummyNS_9allocatorIS2_EEEEJS5_EPS5_EEPT_S8_DpOT0_, symObjAddr: 0xA5030, symBinAddr: 0x1000A6C84, symSize: 0x3C }
  - { offsetInCU: 0x2A374, offset: 0x2A374, size: 0x8, addend: 0x0, symName: __ZNSt3__115__debug_db_swapB7v160006INS_6vectorI6CDummyNS_9allocatorIS2_EEEEEEvPT_S7_, symObjAddr: 0xA55AC, symBinAddr: 0x1000A7200, symSize: 0x14 }
  - { offsetInCU: 0x2A3DC, offset: 0x2A3DC, size: 0x8, addend: 0x0, symName: __ZNSt3__14prevB7v160006IPNS_6vectorI6CDummyNS_9allocatorIS2_EEEEEENS_9enable_ifIXsr25__is_cpp17_input_iteratorIT_EE5valueES8_E4typeES8_NS_15iterator_traitsIS8_E15difference_typeE, symObjAddr: 0xA5670, symBinAddr: 0x1000A72C4, symSize: 0x25C }
  - { offsetInCU: 0x2A424, offset: 0x2A424, size: 0x8, addend: 0x0, symName: __ZNSt3__19__advanceB7v160006IPNS_6vectorI6CDummyNS_9allocatorIS2_EEEEEEvRT_NS_15iterator_traitsIS7_E15difference_typeENS_26random_access_iterator_tagE, symObjAddr: 0xA591C, symBinAddr: 0x1000A7570, symSize: 0x80 }
  - { offsetInCU: 0x2A46D, offset: 0x2A46D, size: 0x8, addend: 0x0, symName: __ZNSt3__119__allocator_destroyB7v160006INS_9allocatorINS_6vectorI6CDummyNS1_IS3_EEEEEENS_16reverse_iteratorINS7_IPS5_EEEESA_EEvRT_T0_T1_, symObjAddr: 0xA5E00, symBinAddr: 0x1000A7A54, symSize: 0x70 }
  - { offsetInCU: 0x2A4D2, offset: 0x2A4D2, size: 0x8, addend: 0x0, symName: __ZNSt3__1neB7v160006INS_16reverse_iteratorIPNS_6vectorI6CDummyNS_9allocatorIS3_EEEEEES8_EEbRKNS1_IT_EERKNS1_IT0_EE, symObjAddr: 0xA60B8, symBinAddr: 0x1000A7D0C, symSize: 0x2CC }
  - { offsetInCU: 0x2A520, offset: 0x2A520, size: 0x8, addend: 0x0, symName: __ZNSt3__112__to_addressB7v160006INS_16reverse_iteratorINS1_IPNS_6vectorI6CDummyNS_9allocatorIS3_EEEEEEEEvEENS_5decayIDTclsr19__to_address_helperIT_EE6__callclsr3stdE7declvalIRKSB_EEEEE4typeESD_, symObjAddr: 0xA63AC, symBinAddr: 0x1000A8000, symSize: 0x24 }
  - { offsetInCU: 0x2A556, offset: 0x2A556, size: 0x8, addend: 0x0, symName: __ZNSt3__110destroy_atB7v160006INS_6vectorI6CDummyNS_9allocatorIS2_EEEELi0EEEvPT_, symObjAddr: 0xA660C, symBinAddr: 0x1000A8260, symSize: 0x24 }
  - { offsetInCU: 0x2A58D, offset: 0x2A58D, size: 0x8, addend: 0x0, symName: __ZNSt3__112__destroy_atB7v160006INS_6vectorI6CDummyNS_9allocatorIS2_EEEELi0EEEvPT_, symObjAddr: 0xA6630, symBinAddr: 0x1000A8284, symSize: 0x24 }
  - { offsetInCU: 0x2A5ED, offset: 0x2A5ED, size: 0x8, addend: 0x0, symName: __ZNSt3__14prevB7v160006INS_16reverse_iteratorIPNS_6vectorI6CDummyNS_9allocatorIS3_EEEEEEEENS_9enable_ifIXsr25__is_cpp17_input_iteratorIT_EE5valueESA_E4typeESA_NS_15iterator_traitsISA_E15difference_typeE, symObjAddr: 0xA6938, symBinAddr: 0x1000A858C, symSize: 0x2B0 }
  - { offsetInCU: 0x2A635, offset: 0x2A635, size: 0x8, addend: 0x0, symName: __ZNSt3__19__advanceB7v160006INS_16reverse_iteratorIPNS_6vectorI6CDummyNS_9allocatorIS3_EEEEEEEEvRT_NS_15iterator_traitsIS9_E15difference_typeENS_26random_access_iterator_tagE, symObjAddr: 0xA6C38, symBinAddr: 0x1000A888C, symSize: 0x2C }
  - { offsetInCU: 0x2A67E, offset: 0x2A67E, size: 0x8, addend: 0x0, symName: __ZNSt3__118__debug_db_erase_cB7v160006INS_6vectorINS1_I6CDummyNS_9allocatorIS2_EEEENS3_IS5_EEEEEEvPT_, symObjAddr: 0xA7AE0, symBinAddr: 0x1000A9734, symSize: 0x10 }
  - { offsetInCU: 0x2A6AF, offset: 0x2A6AF, size: 0x8, addend: 0x0, symName: __ZNSt3__1neB7v160006IPNS_4pairINS_6vectorI6CDummyNS_9allocatorIS3_EEEENS2_ImNS4_ImEEEEEEEEbRKNS_11__wrap_iterIT_EESF_, symObjAddr: 0xA7FF0, symBinAddr: 0x1000A9C44, symSize: 0x34 }
  - { offsetInCU: 0x2A6F2, offset: 0x2A6F2, size: 0x8, addend: 0x0, symName: __ZNSt3__13getB7v160006ILm0ENS_6vectorI6CDummyNS_9allocatorIS2_EEEENS1_ImNS3_ImEEEEEERNS_13tuple_elementIXT_ENS_4pairIT0_T1_EEE4typeERSC_, symObjAddr: 0xA8084, symBinAddr: 0x1000A9CD8, symSize: 0x24 }
  - { offsetInCU: 0x2A73C, offset: 0x2A73C, size: 0x8, addend: 0x0, symName: __ZNSt3__13getB7v160006ILm1ENS_6vectorI6CDummyNS_9allocatorIS2_EEEENS1_ImNS3_ImEEEEEERNS_13tuple_elementIXT_ENS_4pairIT0_T1_EEE4typeERSC_, symObjAddr: 0xA80A8, symBinAddr: 0x1000A9CFC, symSize: 0x24 }
  - { offsetInCU: 0x2A786, offset: 0x2A786, size: 0x8, addend: 0x0, symName: __ZNSt3__15equalB7v160006INS_11__wrap_iterIP6CDummyEES4_EEbT_S5_T0_, symObjAddr: 0xA80CC, symBinAddr: 0x1000A9D20, symSize: 0x40C }
  - { offsetInCU: 0x2A7EC, offset: 0x2A7EC, size: 0x8, addend: 0x0, symName: __ZNSt3__13getB7v160006ILm0ENS_6vectorI6CDummyNS_9allocatorIS2_EEEENS1_ImNS3_ImEEEEEERKNS_13tuple_elementIXT_ENS_4pairIT0_T1_EEE4typeERKSC_, symObjAddr: 0xA8B08, symBinAddr: 0x1000AA75C, symSize: 0x24 }
  - { offsetInCU: 0x2A836, offset: 0x2A836, size: 0x8, addend: 0x0, symName: __ZNSt3__13getB7v160006ILm1ENS_6vectorI6CDummyNS_9allocatorIS2_EEEENS1_ImNS3_ImEEEEEERKNS_13tuple_elementIXT_ENS_4pairIT0_T1_EEE4typeERKSC_, symObjAddr: 0xA8B2C, symBinAddr: 0x1000AA780, symSize: 0x24 }
  - { offsetInCU: 0x2A880, offset: 0x2A880, size: 0x8, addend: 0x0, symName: __ZNSt3__119__debug_db_insert_cB7v160006INS_6vectorINS_4pairINS1_I6CDummyNS_9allocatorIS3_EEEENS1_ImNS4_ImEEEEEENS4_IS9_EEEEEEvPT_, symObjAddr: 0xA9248, symBinAddr: 0x1000AAE9C, symSize: 0x10 }
  - { offsetInCU: 0x2A8B1, offset: 0x2A8B1, size: 0x8, addend: 0x0, symName: __ZNSt3__1eqB7v160006IPNS_4pairINS_6vectorI6CDummyNS_9allocatorIS3_EEEENS2_ImNS4_ImEEEEEEEEbRKNS_11__wrap_iterIT_EESF_, symObjAddr: 0xA9618, symBinAddr: 0x1000AB26C, symSize: 0x48 }
  - { offsetInCU: 0x2A8F4, offset: 0x2A8F4, size: 0x8, addend: 0x0, symName: __ZNSt3__15equalB7v160006INS_11__wrap_iterIP6CDummyEES4_NS_10__equal_toEEEbT_S6_T0_T1_, symObjAddr: 0xA96EC, symBinAddr: 0x1000AB340, symSize: 0x380 }
  - { offsetInCU: 0x2A976, offset: 0x2A976, size: 0x8, addend: 0x0, symName: __ZNSt3__1neB7v160006IP6CDummyEEbRKNS_11__wrap_iterIT_EES7_, symObjAddr: 0xA9A6C, symBinAddr: 0x1000AB6C0, symSize: 0x34 }
  - { offsetInCU: 0x2A9B9, offset: 0x2A9B9, size: 0x8, addend: 0x0, symName: __ZNSt3__1eqB7v160006IP6CDummyEEbRKNS_11__wrap_iterIT_EES7_, symObjAddr: 0xA9B68, symBinAddr: 0x1000AB7BC, symSize: 0x48 }
  - { offsetInCU: 0x2A9FC, offset: 0x2A9FC, size: 0x8, addend: 0x0, symName: __ZNSt3__112__to_addressB7v160006INS_4pairINS_6vectorI6CDummyNS_9allocatorIS3_EEEENS2_ImNS4_ImEEEEEEEEPT_SB_, symObjAddr: 0xAA760, symBinAddr: 0x1000AC3B4, symSize: 0x14 }
  - { offsetInCU: 0x2AA56, offset: 0x2AA56, size: 0x8, addend: 0x0, symName: __ZNSt3__112construct_atB7v160006INS_4pairINS_6vectorI6CDummyNS_9allocatorIS3_EEEENS2_ImNS4_ImEEEEEEJRS6_S8_EPS9_EEPT_SD_DpOT0_, symObjAddr: 0xAACF8, symBinAddr: 0x1000AC94C, symSize: 0x44 }
  - { offsetInCU: 0x2AAD9, offset: 0x2AAD9, size: 0x8, addend: 0x0, symName: __ZNSt3__119__allocate_at_leastB7v160006INS_9allocatorINS_4pairINS_6vectorI6CDummyNS1_IS4_EEEENS3_ImNS1_ImEEEEEEEEEENS_19__allocation_resultINS_16allocator_traitsIT_E7pointerEEERSD_m, symObjAddr: 0xAC3CC, symBinAddr: 0x1000AE020, symSize: 0x28C }
  - { offsetInCU: 0x2AB1E, offset: 0x2AB1E, size: 0x8, addend: 0x0, symName: __ZNSt3__142__uninitialized_allocator_move_if_noexceptB7v160006INS_9allocatorINS_4pairINS_6vectorI6CDummyNS1_IS4_EEEENS3_ImNS1_ImEEEEEEEENS_16reverse_iteratorIPS9_EESD_SD_EET2_RT_T0_T1_SE_, symObjAddr: 0xAC954, symBinAddr: 0x1000AE5A8, symSize: 0x544 }
  - { offsetInCU: 0x2ABD3, offset: 0x2ABD3, size: 0x8, addend: 0x0, symName: __ZNSt3__14swapB7v160006IPNS_4pairINS_6vectorI6CDummyNS_9allocatorIS3_EEEENS2_ImNS4_ImEEEEEEEENS_9enable_ifIXaasr21is_move_constructibleIT_EE5valuesr18is_move_assignableISC_EE5valueEvE4typeERSC_SF_, symObjAddr: 0xACF30, symBinAddr: 0x1000AEB84, symSize: 0x134 }
  - { offsetInCU: 0x2AC24, offset: 0x2AC24, size: 0x8, addend: 0x0, symName: __ZNSt3__125__debug_db_invalidate_allB7v160006INS_6vectorINS_4pairINS1_I6CDummyNS_9allocatorIS3_EEEENS1_ImNS4_ImEEEEEENS4_IS9_EEEEEEvPT_, symObjAddr: 0xAD140, symBinAddr: 0x1000AED94, symSize: 0x10 }
  - { offsetInCU: 0x2AC55, offset: 0x2AC55, size: 0x8, addend: 0x0, symName: __ZNSt3__122__make_exception_guardB7v160006INS_29_AllocatorDestroyRangeReverseINS_9allocatorINS_4pairINS_6vectorI6CDummyNS2_IS5_EEEENS4_ImNS2_ImEEEEEEEENS_16reverse_iteratorIPSA_EEEEEENS_28__exception_guard_exceptionsIT_EESH_, symObjAddr: 0xAD150, symBinAddr: 0x1000AEDA4, symSize: 0x1F8 }
  - { offsetInCU: 0x2AC8C, offset: 0x2AC8C, size: 0x8, addend: 0x0, symName: __ZNSt3__1neB7v160006IPNS_4pairINS_6vectorI6CDummyNS_9allocatorIS3_EEEENS2_ImNS4_ImEEEEEESA_EEbRKNS_16reverse_iteratorIT_EERKNSB_IT0_EE, symObjAddr: 0xAD38C, symBinAddr: 0x1000AEFE0, symSize: 0x48 }
  - { offsetInCU: 0x2ACD8, offset: 0x2ACD8, size: 0x8, addend: 0x0, symName: __ZNSt3__112__to_addressB7v160006INS_16reverse_iteratorIPNS_4pairINS_6vectorI6CDummyNS_9allocatorIS4_EEEENS3_ImNS5_ImEEEEEEEEvEENS_5decayIDTclsr19__to_address_helperIT_EE6__callclsr3stdE7declvalIRKSE_EEEEE4typeESG_, symObjAddr: 0xAD404, symBinAddr: 0x1000AF058, symSize: 0x24 }
  - { offsetInCU: 0x2AD0E, offset: 0x2AD0E, size: 0x8, addend: 0x0, symName: __ZNSt3__112construct_atB7v160006INS_4pairINS_6vectorI6CDummyNS_9allocatorIS3_EEEENS2_ImNS4_ImEEEEEEJS9_EPS9_EEPT_SC_DpOT0_, symObjAddr: 0xAD79C, symBinAddr: 0x1000AF3F0, symSize: 0x3C }
  - { offsetInCU: 0x2ADA7, offset: 0x2ADA7, size: 0x8, addend: 0x0, symName: __ZNSt3__14prevB7v160006IPNS_4pairINS_6vectorI6CDummyNS_9allocatorIS3_EEEENS2_ImNS4_ImEEEEEEEENS_9enable_ifIXsr25__is_cpp17_input_iteratorIT_EE5valueESC_E4typeESC_NS_15iterator_traitsISC_E15difference_typeE, symObjAddr: 0xAD904, symBinAddr: 0x1000AF558, symSize: 0x25C }
  - { offsetInCU: 0x2ADEF, offset: 0x2ADEF, size: 0x8, addend: 0x0, symName: __ZNSt3__19__advanceB7v160006IPNS_4pairINS_6vectorI6CDummyNS_9allocatorIS3_EEEENS2_ImNS4_ImEEEEEEEEvRT_NS_15iterator_traitsISB_E15difference_typeENS_26random_access_iterator_tagE, symObjAddr: 0xADBB0, symBinAddr: 0x1000AF804, symSize: 0x80 }
  - { offsetInCU: 0x2AE38, offset: 0x2AE38, size: 0x8, addend: 0x0, symName: __ZNSt3__119__allocator_destroyB7v160006INS_9allocatorINS_4pairINS_6vectorI6CDummyNS1_IS4_EEEENS3_ImNS1_ImEEEEEEEENS_16reverse_iteratorINSB_IPS9_EEEESE_EEvRT_T0_T1_, symObjAddr: 0xAE094, symBinAddr: 0x1000AFCE8, symSize: 0x70 }
  - { offsetInCU: 0x2AE9D, offset: 0x2AE9D, size: 0x8, addend: 0x0, symName: __ZNSt3__1neB7v160006INS_16reverse_iteratorIPNS_4pairINS_6vectorI6CDummyNS_9allocatorIS4_EEEENS3_ImNS5_ImEEEEEEEESC_EEbRKNS1_IT_EERKNS1_IT0_EE, symObjAddr: 0xAE34C, symBinAddr: 0x1000AFFA0, symSize: 0x2CC }
  - { offsetInCU: 0x2AEEB, offset: 0x2AEEB, size: 0x8, addend: 0x0, symName: __ZNSt3__112__to_addressB7v160006INS_16reverse_iteratorINS1_IPNS_4pairINS_6vectorI6CDummyNS_9allocatorIS4_EEEENS3_ImNS5_ImEEEEEEEEEEvEENS_5decayIDTclsr19__to_address_helperIT_EE6__callclsr3stdE7declvalIRKSF_EEEEE4typeESH_, symObjAddr: 0xAE640, symBinAddr: 0x1000B0294, symSize: 0x24 }
  - { offsetInCU: 0x2AF21, offset: 0x2AF21, size: 0x8, addend: 0x0, symName: __ZNSt3__110destroy_atB7v160006INS_4pairINS_6vectorI6CDummyNS_9allocatorIS3_EEEENS2_ImNS4_ImEEEEEELi0EEEvPT_, symObjAddr: 0xAE8A0, symBinAddr: 0x1000B04F4, symSize: 0x24 }
  - { offsetInCU: 0x2AF58, offset: 0x2AF58, size: 0x8, addend: 0x0, symName: __ZNSt3__112__destroy_atB7v160006INS_4pairINS_6vectorI6CDummyNS_9allocatorIS3_EEEENS2_ImNS4_ImEEEEEELi0EEEvPT_, symObjAddr: 0xAE8C4, symBinAddr: 0x1000B0518, symSize: 0x24 }
  - { offsetInCU: 0x2AFB8, offset: 0x2AFB8, size: 0x8, addend: 0x0, symName: __ZNSt3__14prevB7v160006INS_16reverse_iteratorIPNS_4pairINS_6vectorI6CDummyNS_9allocatorIS4_EEEENS3_ImNS5_ImEEEEEEEEEENS_9enable_ifIXsr25__is_cpp17_input_iteratorIT_EE5valueESE_E4typeESE_NS_15iterator_traitsISE_E15difference_typeE, symObjAddr: 0xAEC30, symBinAddr: 0x1000B0884, symSize: 0x2B0 }
  - { offsetInCU: 0x2B000, offset: 0x2B000, size: 0x8, addend: 0x0, symName: __ZNSt3__19__advanceB7v160006INS_16reverse_iteratorIPNS_4pairINS_6vectorI6CDummyNS_9allocatorIS4_EEEENS3_ImNS5_ImEEEEEEEEEEvRT_NS_15iterator_traitsISD_E15difference_typeENS_26random_access_iterator_tagE, symObjAddr: 0xAEF30, symBinAddr: 0x1000B0B84, symSize: 0x2C }
  - { offsetInCU: 0x2B049, offset: 0x2B049, size: 0x8, addend: 0x0, symName: __ZNSt3__118__debug_db_erase_cB7v160006INS_6vectorINS_4pairINS1_I6CDummyNS_9allocatorIS3_EEEENS1_ImNS4_ImEEEEEENS4_IS9_EEEEEEvPT_, symObjAddr: 0xAFC8C, symBinAddr: 0x1000B18E0, symSize: 0x10 }
  - { offsetInCU: 0x2B07A, offset: 0x2B07A, size: 0x8, addend: 0x0, symName: __ZNSt3__18distanceB7v160006IPKiEENS_15iterator_traitsIT_E15difference_typeES4_S4_, symObjAddr: 0xB034C, symBinAddr: 0x1000B1FA0, symSize: 0x2C }
  - { offsetInCU: 0x2B0BD, offset: 0x2B0BD, size: 0x8, addend: 0x0, symName: __ZNSt3__110__distanceB7v160006IPKiEENS_15iterator_traitsIT_E15difference_typeES4_S4_NS_26random_access_iterator_tagE, symObjAddr: 0xB0378, symBinAddr: 0x1000B1FCC, symSize: 0x28 }
  - { offsetInCU: 0x2BDBB, offset: 0x2BDBB, size: 0x8, addend: 0x0, symName: __ZSt28__throw_bad_array_new_lengthB7v160006v, symObjAddr: 0x116D8, symBinAddr: 0x10001332C, symSize: 0x38 }
  - { offsetInCU: 0x2CB93, offset: 0x2CB93, size: 0x8, addend: 0x0, symName: __ZNSt3__16vectorINS0_IcNS_9allocatorIcEEEENS1_IS3_EEE26__swap_out_circular_bufferERNS_14__split_bufferIS3_RS4_EE, symObjAddr: 0x2C638, symBinAddr: 0x10002E28C, symSize: 0x574 }
  - { offsetInCU: 0x2CC26, offset: 0x2CC26, size: 0x8, addend: 0x0, symName: __ZNSt3__16vectorIiNS_9allocatorIiEEE26__swap_out_circular_bufferERNS_14__split_bufferIiRS2_EE, symObjAddr: 0x321E0, symBinAddr: 0x100033E34, symSize: 0x574 }
  - { offsetInCU: 0x2CDFE, offset: 0x2CDFE, size: 0x8, addend: 0x0, symName: __ZNSt3__16vectorImNS_9allocatorImEEE26__swap_out_circular_bufferERNS_14__split_bufferImRS2_EE, symObjAddr: 0x3BE7C, symBinAddr: 0x10003DAD0, symSize: 0x574 }
  - { offsetInCU: 0x2CFC7, offset: 0x2CFC7, size: 0x8, addend: 0x0, symName: __ZNSt3__16vectorINS_4pairINS0_IcNS_9allocatorIcEEEENS0_ImNS2_ImEEEEEENS2_IS7_EEE26__swap_out_circular_bufferERNS_14__split_bufferIS7_RS8_EE, symObjAddr: 0x43278, symBinAddr: 0x100044ECC, symSize: 0x574 }
  - { offsetInCU: 0x2D078, offset: 0x2D078, size: 0x8, addend: 0x0, symName: __ZNSt3__16vectorINS_5arrayImLm2EEENS_9allocatorIS2_EEE26__swap_out_circular_bufferERNS_14__split_bufferIS2_RS4_EE, symObjAddr: 0x50F7C, symBinAddr: 0x100052BD0, symSize: 0x574 }
  - { offsetInCU: 0x2D0D4, offset: 0x2D0D4, size: 0x8, addend: 0x0, symName: __ZNSt3__16vectorINS_5arrayImLm3EEENS_9allocatorIS2_EEE26__swap_out_circular_bufferERNS_14__split_bufferIS2_RS4_EE, symObjAddr: 0x61E84, symBinAddr: 0x100063AD8, symSize: 0x574 }
  - { offsetInCU: 0x2D12B, offset: 0x2D12B, size: 0x8, addend: 0x0, symName: __ZNSt3__16vectorINS_5arrayImLm1EEENS_9allocatorIS2_EEE26__swap_out_circular_bufferERNS_14__split_bufferIS2_RS4_EE, symObjAddr: 0x718B8, symBinAddr: 0x10007350C, symSize: 0x574 }
  - { offsetInCU: 0x2D31C, offset: 0x2D31C, size: 0x8, addend: 0x0, symName: __ZNSt3__16vectorINS0_IiNS_9allocatorIiEEEENS1_IS3_EEE26__swap_out_circular_bufferERNS_14__split_bufferIS3_RS4_EE, symObjAddr: 0x8AB1C, symBinAddr: 0x10008C770, symSize: 0x574 }
  - { offsetInCU: 0x2D53A, offset: 0x2D53A, size: 0x8, addend: 0x0, symName: __ZNSt3__16vectorINS_4pairINS0_IiNS_9allocatorIiEEEENS0_ImNS2_ImEEEEEENS2_IS7_EEE26__swap_out_circular_bufferERNS_14__split_bufferIS7_RS8_EE, symObjAddr: 0x92960, symBinAddr: 0x1000945B4, symSize: 0x574 }
  - { offsetInCU: 0x2D780, offset: 0x2D780, size: 0x8, addend: 0x0, symName: __ZNSt3__16vectorINS0_I6CDummyNS_9allocatorIS1_EEEENS2_IS4_EEE26__swap_out_circular_bufferERNS_14__split_bufferIS4_RS5_EE, symObjAddr: 0xA2DB0, symBinAddr: 0x1000A4A04, symSize: 0x574 }
  - { offsetInCU: 0x2D99E, offset: 0x2D99E, size: 0x8, addend: 0x0, symName: __ZNSt3__16vectorINS_4pairINS0_I6CDummyNS_9allocatorIS2_EEEENS0_ImNS3_ImEEEEEENS3_IS8_EEE26__swap_out_circular_bufferERNS_14__split_bufferIS8_RS9_EE, symObjAddr: 0xAB51C, symBinAddr: 0x1000AD170, symSize: 0x574 }
  - { offsetInCU: 0x2FC16, offset: 0x2FC16, size: 0x8, addend: 0x0, symName: _main, symObjAddr: 0x0, symBinAddr: 0x100001C54, symSize: 0x4A24 }
  - { offsetInCU: 0x2FF3D, offset: 0x2FF3D, size: 0x8, addend: 0x0, symName: __ZN10CSelfMatchIcEC1INSt3__112basic_stringIcNS2_11char_traitsIcEENS2_9allocatorIcEEEEEERKT_, symObjAddr: 0x4A64, symBinAddr: 0x1000066B8, symSize: 0x34 }
  - { offsetInCU: 0x2FF7D, offset: 0x2FF7D, size: 0x8, addend: 0x0, symName: __ZNK10CSelfMatchIcE11sequenceLenEm, symObjAddr: 0x4A98, symBinAddr: 0x1000066EC, symSize: 0xC08 }
  - { offsetInCU: 0x300B0, offset: 0x300B0, size: 0x8, addend: 0x0, symName: __Z13positionMatchILm2EEbNSt3__16vectorINS0_5arrayImXT_EEENS0_9allocatorIS3_EEEES6_, symObjAddr: 0x56A0, symBinAddr: 0x1000072F4, symSize: 0x470 }
  - { offsetInCU: 0x300F9, offset: 0x300F9, size: 0x8, addend: 0x0, symName: __ZNK10CSelfMatchIcE13findSequencesILm2EEENSt3__16vectorINS2_5arrayImXT_EEENS2_9allocatorIS5_EEEEv, symObjAddr: 0x5B10, symBinAddr: 0x100007764, symSize: 0x1110 }
  - { offsetInCU: 0x3029F, offset: 0x3029F, size: 0x8, addend: 0x0, symName: __ZNSt3__16vectorINS_5arrayImLm2EEENS_9allocatorIS2_EEEC1B7v160006ESt16initializer_listIS2_E, symObjAddr: 0x6C20, symBinAddr: 0x100008874, symSize: 0x248 }
  - { offsetInCU: 0x302DE, offset: 0x302DE, size: 0x8, addend: 0x0, symName: __ZNSt3__16vectorINS_5arrayImLm2EEENS_9allocatorIS2_EEED1B7v160006Ev, symObjAddr: 0x6E68, symBinAddr: 0x100008ABC, symSize: 0x2C }
  - { offsetInCU: 0x30306, offset: 0x30306, size: 0x8, addend: 0x0, symName: __Z13positionMatchILm3EEbNSt3__16vectorINS0_5arrayImXT_EEENS0_9allocatorIS3_EEEES6_, symObjAddr: 0x6E94, symBinAddr: 0x100008AE8, symSize: 0x470 }
  - { offsetInCU: 0x3034F, offset: 0x3034F, size: 0x8, addend: 0x0, symName: __ZNK10CSelfMatchIcE13findSequencesILm3EEENSt3__16vectorINS2_5arrayImXT_EEENS2_9allocatorIS5_EEEEv, symObjAddr: 0x7304, symBinAddr: 0x100008F58, symSize: 0x1118 }
  - { offsetInCU: 0x304F5, offset: 0x304F5, size: 0x8, addend: 0x0, symName: __ZNSt3__16vectorINS_5arrayImLm3EEENS_9allocatorIS2_EEEC1B7v160006ESt16initializer_listIS2_E, symObjAddr: 0x841C, symBinAddr: 0x10000A070, symSize: 0x248 }
  - { offsetInCU: 0x30534, offset: 0x30534, size: 0x8, addend: 0x0, symName: __ZNSt3__16vectorINS_5arrayImLm3EEENS_9allocatorIS2_EEED1B7v160006Ev, symObjAddr: 0x8664, symBinAddr: 0x10000A2B8, symSize: 0x2C }
  - { offsetInCU: 0x3055C, offset: 0x3055C, size: 0x8, addend: 0x0, symName: __Z13positionMatchILm1EEbNSt3__16vectorINS0_5arrayImXT_EEENS0_9allocatorIS3_EEEES6_, symObjAddr: 0x8690, symBinAddr: 0x10000A2E4, symSize: 0x470 }
  - { offsetInCU: 0x305A5, offset: 0x305A5, size: 0x8, addend: 0x0, symName: __ZNK10CSelfMatchIcE13findSequencesILm1EEENSt3__16vectorINS2_5arrayImXT_EEENS2_9allocatorIS5_EEEEv, symObjAddr: 0x8B00, symBinAddr: 0x10000A754, symSize: 0x1110 }
  - { offsetInCU: 0x3074B, offset: 0x3074B, size: 0x8, addend: 0x0, symName: __ZNSt3__16vectorINS_5arrayImLm1EEENS_9allocatorIS2_EEEC1B7v160006ESt16initializer_listIS2_E, symObjAddr: 0x9C10, symBinAddr: 0x10000B864, symSize: 0x248 }
  - { offsetInCU: 0x3078A, offset: 0x3078A, size: 0x8, addend: 0x0, symName: __ZNSt3__16vectorINS_5arrayImLm1EEENS_9allocatorIS2_EEED1B7v160006Ev, symObjAddr: 0x9E58, symBinAddr: 0x10000BAAC, symSize: 0x2C }
  - { offsetInCU: 0x307B3, offset: 0x307B3, size: 0x8, addend: 0x0, symName: __ZNSt3__16vectorINS_5arrayImLm2EEENS_9allocatorIS2_EEEC1B7v160006Ev, symObjAddr: 0x9E84, symBinAddr: 0x10000BAD8, symSize: 0x2C }
  - { offsetInCU: 0x30919, offset: 0x30919, size: 0x8, addend: 0x0, symName: __ZN10CSelfMatchIiEC1ESt16initializer_listIiE, symObjAddr: 0x9EB0, symBinAddr: 0x10000BB04, symSize: 0x248 }
  - { offsetInCU: 0x30955, offset: 0x30955, size: 0x8, addend: 0x0, symName: __ZNK10CSelfMatchIiE11sequenceLenEm, symObjAddr: 0xA0F8, symBinAddr: 0x10000BD4C, symSize: 0xC08 }
  - { offsetInCU: 0x30A89, offset: 0x30A89, size: 0x8, addend: 0x0, symName: __ZNK10CSelfMatchIiE13findSequencesILm2EEENSt3__16vectorINS2_5arrayImXT_EEENS2_9allocatorIS5_EEEEv, symObjAddr: 0xAD00, symBinAddr: 0x10000C954, symSize: 0x1110 }
  - { offsetInCU: 0x30C2F, offset: 0x30C2F, size: 0x8, addend: 0x0, symName: __ZNK10CSelfMatchIiE13findSequencesILm3EEENSt3__16vectorINS2_5arrayImXT_EEENS2_9allocatorIS5_EEEEv, symObjAddr: 0xBE10, symBinAddr: 0x10000DA64, symSize: 0x1118 }
  - { offsetInCU: 0x30DD5, offset: 0x30DD5, size: 0x8, addend: 0x0, symName: __ZN6CDummyC1Ec, symObjAddr: 0xCF28, symBinAddr: 0x10000EB7C, symSize: 0x34 }
  - { offsetInCU: 0x30E0C, offset: 0x30E0C, size: 0x8, addend: 0x0, symName: __ZNKSt16initializer_listI6CDummyE5beginB7v160006Ev, symObjAddr: 0xCF5C, symBinAddr: 0x10000EBB0, symSize: 0x60 }
  - { offsetInCU: 0x30E31, offset: 0x30E31, size: 0x8, addend: 0x0, symName: __ZNKSt16initializer_listI6CDummyE3endB7v160006Ev, symObjAddr: 0xCFBC, symBinAddr: 0x10000EC10, symSize: 0xA8 }
  - { offsetInCU: 0x30F3A, offset: 0x30F3A, size: 0x8, addend: 0x0, symName: __ZN10CSelfMatchI6CDummyEC1IPKS0_EET_S5_, symObjAddr: 0xD064, symBinAddr: 0x10000ECB8, symSize: 0x3C }
  - { offsetInCU: 0x30F88, offset: 0x30F88, size: 0x8, addend: 0x0, symName: __ZNK10CSelfMatchI6CDummyE11sequenceLenEm, symObjAddr: 0xD0A0, symBinAddr: 0x10000ECF4, symSize: 0xC08 }
  - { offsetInCU: 0x310BC, offset: 0x310BC, size: 0x8, addend: 0x0, symName: __ZNK10CSelfMatchI6CDummyE13findSequencesILm2EEENSt3__16vectorINS3_5arrayImXT_EEENS3_9allocatorIS6_EEEEv, symObjAddr: 0xDCA8, symBinAddr: 0x10000F8FC, symSize: 0x1110 }
  - { offsetInCU: 0x31262, offset: 0x31262, size: 0x8, addend: 0x0, symName: __ZNKSt16initializer_listIiE5beginB7v160006Ev, symObjAddr: 0xEDB8, symBinAddr: 0x100010A0C, symSize: 0x60 }
  - { offsetInCU: 0x31287, offset: 0x31287, size: 0x8, addend: 0x0, symName: __ZNKSt16initializer_listIiE3endB7v160006Ev, symObjAddr: 0xEE18, symBinAddr: 0x100010A6C, symSize: 0xA8 }
  - { offsetInCU: 0x312AC, offset: 0x312AC, size: 0x8, addend: 0x0, symName: __ZN10CSelfMatchIiEC1IPKiEET_S4_, symObjAddr: 0xEEC0, symBinAddr: 0x100010B14, symSize: 0x3C }
  - { offsetInCU: 0x312FA, offset: 0x312FA, size: 0x8, addend: 0x0, symName: __ZN10CSelfMatchIiED1Ev, symObjAddr: 0xEEFC, symBinAddr: 0x100010B50, symSize: 0x2C }
  - { offsetInCU: 0x31325, offset: 0x31325, size: 0x8, addend: 0x0, symName: __ZN10CSelfMatchI6CDummyED1Ev, symObjAddr: 0xEF28, symBinAddr: 0x100010B7C, symSize: 0x2C }
  - { offsetInCU: 0x31350, offset: 0x31350, size: 0x8, addend: 0x0, symName: __ZN10CSelfMatchIcED1Ev, symObjAddr: 0xEF54, symBinAddr: 0x100010BA8, symSize: 0x2C }
  - { offsetInCU: 0x3137B, offset: 0x3137B, size: 0x8, addend: 0x0, symName: __ZNSt3__112basic_stringIcNS_11char_traitsIcEENS_9allocatorIcEEEC1B7v160006EPKcm, symObjAddr: 0xEF80, symBinAddr: 0x100010BD4, symSize: 0x3C }
  - { offsetInCU: 0x313C2, offset: 0x313C2, size: 0x8, addend: 0x0, symName: __ZNSt3__112basic_stringIcNS_11char_traitsIcEENS_9allocatorIcEEEC2B7v160006EPKcm, symObjAddr: 0xEFBC, symBinAddr: 0x100010C10, symSize: 0x230 }
  - { offsetInCU: 0x31411, offset: 0x31411, size: 0x8, addend: 0x0, symName: __ZNSt3__117__compressed_pairINS_12basic_stringIcNS_11char_traitsIcEENS_9allocatorIcEEE5__repES5_EC1B7v160006INS_18__default_init_tagESA_EEOT_OT0_, symObjAddr: 0xF1EC, symBinAddr: 0x100010E40, symSize: 0x3C }
  - { offsetInCU: 0x31468, offset: 0x31468, size: 0x8, addend: 0x0, symName: __ZNSt3__117__compressed_pairINS_12basic_stringIcNS_11char_traitsIcEENS_9allocatorIcEEE5__repES5_EC2B7v160006INS_18__default_init_tagESA_EEOT_OT0_, symObjAddr: 0xF238, symBinAddr: 0x100010E8C, symSize: 0x3C }
  - { offsetInCU: 0x314BF, offset: 0x314BF, size: 0x8, addend: 0x0, symName: __ZNSt3__122__compressed_pair_elemINS_12basic_stringIcNS_11char_traitsIcEENS_9allocatorIcEEE5__repELi0ELb0EEC2B7v160006ENS_18__default_init_tagE, symObjAddr: 0xF274, symBinAddr: 0x100010EC8, symSize: 0x14 }
  - { offsetInCU: 0x314F2, offset: 0x314F2, size: 0x8, addend: 0x0, symName: __ZNSt3__122__compressed_pair_elemINS_9allocatorIcEELi1ELb1EEC2B7v160006ENS_18__default_init_tagE, symObjAddr: 0xF288, symBinAddr: 0x100010EDC, symSize: 0x2C }
  - { offsetInCU: 0x31525, offset: 0x31525, size: 0x8, addend: 0x0, symName: __ZNSt3__19allocatorIcEC2B7v160006Ev, symObjAddr: 0xF2B4, symBinAddr: 0x100010F08, symSize: 0x2C }
  - { offsetInCU: 0x3154E, offset: 0x3154E, size: 0x8, addend: 0x0, symName: __ZNSt3__116__non_trivial_ifILb1ENS_9allocatorIcEEEC2B7v160006Ev, symObjAddr: 0xF2E0, symBinAddr: 0x100010F34, symSize: 0x14 }
  - { offsetInCU: 0x31577, offset: 0x31577, size: 0x8, addend: 0x0, symName: __ZNSt3__16vectorINS_5arrayImLm2EEENS_9allocatorIS2_EEEC2B7v160006ESt16initializer_listIS2_E, symObjAddr: 0xF2F4, symBinAddr: 0x100010F48, symSize: 0x534 }
  - { offsetInCU: 0x315D4, offset: 0x315D4, size: 0x8, addend: 0x0, symName: __ZNSt3__117__compressed_pairIPNS_5arrayImLm2EEENS_9allocatorIS2_EEEC1B7v160006IDnNS_18__default_init_tagEEEOT_OT0_, symObjAddr: 0xF828, symBinAddr: 0x10001147C, symSize: 0x3C }
  - { offsetInCU: 0x3162B, offset: 0x3162B, size: 0x8, addend: 0x0, symName: __ZNSt3__16vectorINS_5arrayImLm2EEENS_9allocatorIS2_EEE16__destroy_vectorC1ERS5_, symObjAddr: 0xFADC, symBinAddr: 0x100011730, symSize: 0x34 }
  - { offsetInCU: 0x31663, offset: 0x31663, size: 0x8, addend: 0x0, symName: __ZNKSt16initializer_listINSt3__15arrayImLm2EEEE4sizeB7v160006Ev, symObjAddr: 0xFB20, symBinAddr: 0x100011774, symSize: 0x64 }
  - { offsetInCU: 0x31688, offset: 0x31688, size: 0x8, addend: 0x0, symName: __ZNSt3__16vectorINS_5arrayImLm2EEENS_9allocatorIS2_EEE11__vallocateB7v160006Em, symObjAddr: 0xFB84, symBinAddr: 0x1000117D8, symSize: 0x420 }
  - { offsetInCU: 0x316D0, offset: 0x316D0, size: 0x8, addend: 0x0, symName: __ZNSt3__16vectorINS_5arrayImLm2EEENS_9allocatorIS2_EEE18__construct_at_endIPKS2_Li0EEEvT_S9_m, symObjAddr: 0xFFA4, symBinAddr: 0x100011BF8, symSize: 0x380 }
  - { offsetInCU: 0x3174A, offset: 0x3174A, size: 0x8, addend: 0x0, symName: __ZNKSt16initializer_listINSt3__15arrayImLm2EEEE5beginB7v160006Ev, symObjAddr: 0x10324, symBinAddr: 0x100011F78, symSize: 0x60 }
  - { offsetInCU: 0x3176F, offset: 0x3176F, size: 0x8, addend: 0x0, symName: __ZNKSt16initializer_listINSt3__15arrayImLm2EEEE3endB7v160006Ev, symObjAddr: 0x10384, symBinAddr: 0x100011FD8, symSize: 0xA8 }
  - { offsetInCU: 0x31794, offset: 0x31794, size: 0x8, addend: 0x0, symName: __ZNSt3__128__exception_guard_exceptionsINS_6vectorINS_5arrayImLm2EEENS_9allocatorIS3_EEE16__destroy_vectorEE10__completeB7v160006Ev, symObjAddr: 0x1042C, symBinAddr: 0x100012080, symSize: 0x8C }
  - { offsetInCU: 0x317B9, offset: 0x317B9, size: 0x8, addend: 0x0, symName: __ZNSt3__128__exception_guard_exceptionsINS_6vectorINS_5arrayImLm2EEENS_9allocatorIS3_EEE16__destroy_vectorEED1B7v160006Ev, symObjAddr: 0x104B8, symBinAddr: 0x10001210C, symSize: 0x2C }
  - { offsetInCU: 0x317E2, offset: 0x317E2, size: 0x8, addend: 0x0, symName: __ZNSt3__117__compressed_pairIPNS_5arrayImLm2EEENS_9allocatorIS2_EEEC2B7v160006IDnNS_18__default_init_tagEEEOT_OT0_, symObjAddr: 0x104E4, symBinAddr: 0x100012138, symSize: 0x40 }
  - { offsetInCU: 0x31839, offset: 0x31839, size: 0x8, addend: 0x0, symName: __ZNSt3__122__compressed_pair_elemIPNS_5arrayImLm2EEELi0ELb0EEC2B7v160006IDnvEEOT_, symObjAddr: 0x10524, symBinAddr: 0x100012178, symSize: 0x64 }
  - { offsetInCU: 0x3187A, offset: 0x3187A, size: 0x8, addend: 0x0, symName: __ZNSt3__122__compressed_pair_elemINS_9allocatorINS_5arrayImLm2EEEEELi1ELb1EEC2B7v160006ENS_18__default_init_tagE, symObjAddr: 0x10588, symBinAddr: 0x1000121DC, symSize: 0x2C }
  - { offsetInCU: 0x318AD, offset: 0x318AD, size: 0x8, addend: 0x0, symName: __ZNSt3__19allocatorINS_5arrayImLm2EEEEC2B7v160006Ev, symObjAddr: 0x105B4, symBinAddr: 0x100012208, symSize: 0x2C }
  - { offsetInCU: 0x318D6, offset: 0x318D6, size: 0x8, addend: 0x0, symName: __ZNSt3__116__non_trivial_ifILb1ENS_9allocatorINS_5arrayImLm2EEEEEEC2B7v160006Ev, symObjAddr: 0x105E0, symBinAddr: 0x100012234, symSize: 0x14 }
  - { offsetInCU: 0x318FF, offset: 0x318FF, size: 0x8, addend: 0x0, symName: __ZNSt3__128__exception_guard_exceptionsINS_6vectorINS_5arrayImLm2EEENS_9allocatorIS3_EEE16__destroy_vectorEEC1B7v160006ES7_, symObjAddr: 0x105F4, symBinAddr: 0x100012248, symSize: 0x238 }
  - { offsetInCU: 0x3193B, offset: 0x3193B, size: 0x8, addend: 0x0, symName: __ZNSt3__128__exception_guard_exceptionsINS_6vectorINS_5arrayImLm2EEENS_9allocatorIS3_EEE16__destroy_vectorEEC2B7v160006ES7_, symObjAddr: 0x1082C, symBinAddr: 0x100012480, symSize: 0x264 }
  - { offsetInCU: 0x31977, offset: 0x31977, size: 0x8, addend: 0x0, symName: __ZNSt3__16vectorINS_5arrayImLm2EEENS_9allocatorIS2_EEE16__destroy_vectorC2ERS5_, symObjAddr: 0x10A90, symBinAddr: 0x1000126E4, symSize: 0x70 }
  - { offsetInCU: 0x319AE, offset: 0x319AE, size: 0x8, addend: 0x0, symName: __ZNKSt3__16vectorINS_5arrayImLm2EEENS_9allocatorIS2_EEE8max_sizeEv, symObjAddr: 0x10B00, symBinAddr: 0x100012754, symSize: 0x2FC }
  - { offsetInCU: 0x319D6, offset: 0x319D6, size: 0x8, addend: 0x0, symName: __ZNKSt3__16vectorINS_5arrayImLm2EEENS_9allocatorIS2_EEE20__throw_length_errorB7v160006Ev, symObjAddr: 0x10DFC, symBinAddr: 0x100012A50, symSize: 0x20 }
  - { offsetInCU: 0x319FB, offset: 0x319FB, size: 0x8, addend: 0x0, symName: __ZNSt3__16vectorINS_5arrayImLm2EEENS_9allocatorIS2_EEE7__allocB7v160006Ev, symObjAddr: 0x110A8, symBinAddr: 0x100012CFC, symSize: 0x28 }
  - { offsetInCU: 0x31A20, offset: 0x31A20, size: 0x8, addend: 0x0, symName: __ZNSt3__16vectorINS_5arrayImLm2EEENS_9allocatorIS2_EEE9__end_capB7v160006Ev, symObjAddr: 0x110D0, symBinAddr: 0x100012D24, symSize: 0x28 }
  - { offsetInCU: 0x31A45, offset: 0x31A45, size: 0x8, addend: 0x0, symName: __ZNKSt3__16vectorINS_5arrayImLm2EEENS_9allocatorIS2_EEE14__annotate_newB7v160006Em, symObjAddr: 0x110F8, symBinAddr: 0x100012D4C, symSize: 0xC0 }
  - { offsetInCU: 0x31A83, offset: 0x31A83, size: 0x8, addend: 0x0, symName: __ZNSt3__116allocator_traitsINS_9allocatorINS_5arrayImLm2EEEEEE8max_sizeB7v160006IS4_vvEEmRKS4_, symObjAddr: 0x111E4, symBinAddr: 0x100012E38, symSize: 0x28 }
  - { offsetInCU: 0x31AAE, offset: 0x31AAE, size: 0x8, addend: 0x0, symName: __ZNKSt3__16vectorINS_5arrayImLm2EEENS_9allocatorIS2_EEE7__allocB7v160006Ev, symObjAddr: 0x1120C, symBinAddr: 0x100012E60, symSize: 0x28 }
  - { offsetInCU: 0x31AD3, offset: 0x31AD3, size: 0x8, addend: 0x0, symName: __ZNSt3__114numeric_limitsIlE3maxB7v160006Ev, symObjAddr: 0x11234, symBinAddr: 0x100012E88, symSize: 0x14 }
  - { offsetInCU: 0x31AF6, offset: 0x31AF6, size: 0x8, addend: 0x0, symName: __ZNKSt3__16__lessImmEclB7v160006ERKmS3_, symObjAddr: 0x1143C, symBinAddr: 0x100013090, symSize: 0xBC }
  - { offsetInCU: 0x31B37, offset: 0x31B37, size: 0x8, addend: 0x0, symName: __ZNSt3__114numeric_limitsImE3maxB7v160006Ev, symObjAddr: 0x114F8, symBinAddr: 0x10001314C, symSize: 0x14 }
  - { offsetInCU: 0x31B4B, offset: 0x31B4B, size: 0x8, addend: 0x0, symName: __ZNSt3__123__libcpp_numeric_limitsImLb1EE3maxB7v160006Ev, symObjAddr: 0x1150C, symBinAddr: 0x100013160, symSize: 0x8 }
  - { offsetInCU: 0x31B5F, offset: 0x31B5F, size: 0x8, addend: 0x0, symName: __ZNKSt3__117__compressed_pairIPNS_5arrayImLm2EEENS_9allocatorIS2_EEE6secondB7v160006Ev, symObjAddr: 0x11514, symBinAddr: 0x100013168, symSize: 0x24 }
  - { offsetInCU: 0x31B84, offset: 0x31B84, size: 0x8, addend: 0x0, symName: __ZNKSt3__122__compressed_pair_elemINS_9allocatorINS_5arrayImLm2EEEEELi1ELb1EE5__getB7v160006Ev, symObjAddr: 0x11538, symBinAddr: 0x10001318C, symSize: 0x14 }
  - { offsetInCU: 0x31BA9, offset: 0x31BA9, size: 0x8, addend: 0x0, symName: __ZNSt3__123__libcpp_numeric_limitsIlLb1EE3maxB7v160006Ev, symObjAddr: 0x1154C, symBinAddr: 0x1000131A0, symSize: 0x8 }
  - { offsetInCU: 0x31BBD, offset: 0x31BBD, size: 0x8, addend: 0x0, symName: __ZNSt12length_errorC1B7v160006EPKc, symObjAddr: 0x115BC, symBinAddr: 0x100013210, symSize: 0x34 }
  - { offsetInCU: 0x31BF4, offset: 0x31BF4, size: 0x8, addend: 0x0, symName: __ZNSt12length_errorC2B7v160006EPKc, symObjAddr: 0x115F0, symBinAddr: 0x100013244, symSize: 0x8C }
  - { offsetInCU: 0x31C2B, offset: 0x31C2B, size: 0x8, addend: 0x0, symName: __ZNSt3__19allocatorINS_5arrayImLm2EEEE8allocateB7v160006Em, symObjAddr: 0x1167C, symBinAddr: 0x1000132D0, symSize: 0x5C }
  - { offsetInCU: 0x31C5E, offset: 0x31C5E, size: 0x8, addend: 0x0, symName: __ZNSt3__117__compressed_pairIPNS_5arrayImLm2EEENS_9allocatorIS2_EEE6secondB7v160006Ev, symObjAddr: 0x117E0, symBinAddr: 0x100013434, symSize: 0x24 }
  - { offsetInCU: 0x31C83, offset: 0x31C83, size: 0x8, addend: 0x0, symName: __ZNSt3__122__compressed_pair_elemINS_9allocatorINS_5arrayImLm2EEEEELi1ELb1EE5__getB7v160006Ev, symObjAddr: 0x11804, symBinAddr: 0x100013458, symSize: 0x14 }
  - { offsetInCU: 0x31CA8, offset: 0x31CA8, size: 0x8, addend: 0x0, symName: __ZNSt3__117__compressed_pairIPNS_5arrayImLm2EEENS_9allocatorIS2_EEE5firstB7v160006Ev, symObjAddr: 0x11818, symBinAddr: 0x10001346C, symSize: 0x24 }
  - { offsetInCU: 0x31CCD, offset: 0x31CCD, size: 0x8, addend: 0x0, symName: __ZNSt3__122__compressed_pair_elemIPNS_5arrayImLm2EEELi0ELb0EE5__getB7v160006Ev, symObjAddr: 0x1183C, symBinAddr: 0x100013490, symSize: 0x14 }
  - { offsetInCU: 0x31CF2, offset: 0x31CF2, size: 0x8, addend: 0x0, symName: __ZNKSt3__16vectorINS_5arrayImLm2EEENS_9allocatorIS2_EEE31__annotate_contiguous_containerEPKvS7_S7_S7_, symObjAddr: 0x11850, symBinAddr: 0x1000134A4, symSize: 0x58 }
  - { offsetInCU: 0x31D53, offset: 0x31D53, size: 0x8, addend: 0x0, symName: __ZNKSt3__16vectorINS_5arrayImLm2EEENS_9allocatorIS2_EEE4dataB7v160006Ev, symObjAddr: 0x118A8, symBinAddr: 0x1000134FC, symSize: 0x64 }
  - { offsetInCU: 0x31D78, offset: 0x31D78, size: 0x8, addend: 0x0, symName: __ZNKSt3__16vectorINS_5arrayImLm2EEENS_9allocatorIS2_EEE8capacityB7v160006Ev, symObjAddr: 0x1190C, symBinAddr: 0x100013560, symSize: 0xBC }
  - { offsetInCU: 0x31D9D, offset: 0x31D9D, size: 0x8, addend: 0x0, symName: __ZNKSt3__16vectorINS_5arrayImLm2EEENS_9allocatorIS2_EEE9__end_capB7v160006Ev, symObjAddr: 0x119DC, symBinAddr: 0x100013630, symSize: 0x28 }
  - { offsetInCU: 0x31DC2, offset: 0x31DC2, size: 0x8, addend: 0x0, symName: __ZNKSt3__117__compressed_pairIPNS_5arrayImLm2EEENS_9allocatorIS2_EEE5firstB7v160006Ev, symObjAddr: 0x11A04, symBinAddr: 0x100013658, symSize: 0x24 }
  - { offsetInCU: 0x31DE7, offset: 0x31DE7, size: 0x8, addend: 0x0, symName: __ZNKSt3__122__compressed_pair_elemIPNS_5arrayImLm2EEELi0ELb0EE5__getB7v160006Ev, symObjAddr: 0x11A28, symBinAddr: 0x10001367C, symSize: 0x14 }
  - { offsetInCU: 0x31E25, offset: 0x31E25, size: 0x8, addend: 0x0, symName: __ZNSt3__16vectorINS_5arrayImLm2EEENS_9allocatorIS2_EEE21_ConstructTransactionC1B7v160006ERS5_m, symObjAddr: 0x11A3C, symBinAddr: 0x100013690, symSize: 0x3C }
  - { offsetInCU: 0x31E6C, offset: 0x31E6C, size: 0x8, addend: 0x0, symName: __ZNSt3__16vectorINS_5arrayImLm2EEENS_9allocatorIS2_EEE21_ConstructTransactionD1B7v160006Ev, symObjAddr: 0x11AB0, symBinAddr: 0x100013704, symSize: 0x2C }
  - { offsetInCU: 0x31E95, offset: 0x31E95, size: 0x8, addend: 0x0, symName: __ZNSt3__16vectorINS_5arrayImLm2EEENS_9allocatorIS2_EEE21_ConstructTransactionC2B7v160006ERS5_m, symObjAddr: 0x11ADC, symBinAddr: 0x100013730, symSize: 0x1D0 }
  - { offsetInCU: 0x31EDC, offset: 0x31EDC, size: 0x8, addend: 0x0, symName: __ZNKSt3__16vectorINS_5arrayImLm2EEENS_9allocatorIS2_EEE19__annotate_increaseB7v160006Em, symObjAddr: 0x11CAC, symBinAddr: 0x100013900, symSize: 0xD8 }
  - { offsetInCU: 0x31F10, offset: 0x31F10, size: 0x8, addend: 0x0, symName: __ZNKSt3__16vectorINS_5arrayImLm2EEENS_9allocatorIS2_EEE4sizeB7v160006Ev, symObjAddr: 0x11D84, symBinAddr: 0x1000139D8, symSize: 0xB0 }
  - { offsetInCU: 0x31F58, offset: 0x31F58, size: 0x8, addend: 0x0, symName: __ZNKSt3__114__copy_trivialclB7v160006IKNS_5arrayImLm2EEES3_Li0EEENS_4pairIPT_PT0_EES7_S7_S9_, symObjAddr: 0x12CC0, symBinAddr: 0x100014914, symSize: 0x230 }
  - { offsetInCU: 0x31FDC, offset: 0x31FDC, size: 0x8, addend: 0x0, symName: __ZNSt3__119__unwrap_range_implIPKNS_5arrayImLm2EEES4_E8__unwrapB7v160006ES4_S4_, symObjAddr: 0x13194, symBinAddr: 0x100014DE8, symSize: 0x30C }
  - { offsetInCU: 0x32014, offset: 0x32014, size: 0x8, addend: 0x0, symName: __ZNSt3__14pairIPKNS_5arrayImLm2EEES4_EC1B7v160006IS4_S4_LPv0EEEOT_OT0_, symObjAddr: 0x134C4, symBinAddr: 0x100015118, symSize: 0x3C }
  - { offsetInCU: 0x32071, offset: 0x32071, size: 0x8, addend: 0x0, symName: __ZNSt3__118__unwrap_iter_implIPKNS_5arrayImLm2EEELb1EE8__unwrapB7v160006ES4_, symObjAddr: 0x13500, symBinAddr: 0x100015154, symSize: 0x24 }
  - { offsetInCU: 0x32094, offset: 0x32094, size: 0x8, addend: 0x0, symName: __ZNSt3__14pairIPKNS_5arrayImLm2EEES4_EC2B7v160006IS4_S4_LPv0EEEOT_OT0_, symObjAddr: 0x13538, symBinAddr: 0x10001518C, symSize: 0x138 }
  - { offsetInCU: 0x320FB, offset: 0x320FB, size: 0x8, addend: 0x0, symName: __ZNSt3__14pairIPKNS_5arrayImLm2EEEPS2_EC1B7v160006IRS4_S5_LPv0EEEOT_OT0_, symObjAddr: 0x13C34, symBinAddr: 0x100015888, symSize: 0x3C }
  - { offsetInCU: 0x32158, offset: 0x32158, size: 0x8, addend: 0x0, symName: __ZNSt3__14pairIPKNS_5arrayImLm2EEEPS2_EC2B7v160006IRS4_S5_LPv0EEEOT_OT0_, symObjAddr: 0x13C70, symBinAddr: 0x1000158C4, symSize: 0x138 }
  - { offsetInCU: 0x321B5, offset: 0x321B5, size: 0x8, addend: 0x0, symName: __ZNSt3__118__unwrap_iter_implIPNS_5arrayImLm2EEELb1EE8__unwrapB7v160006ES3_, symObjAddr: 0x13DA8, symBinAddr: 0x1000159FC, symSize: 0x24 }
  - { offsetInCU: 0x321D8, offset: 0x321D8, size: 0x8, addend: 0x0, symName: __ZNSt3__14pairIPKNS_5arrayImLm2EEEPS2_EC1B7v160006IS4_S5_LPv0EEEOT_OT0_, symObjAddr: 0x13DCC, symBinAddr: 0x100015A20, symSize: 0x3C }
  - { offsetInCU: 0x32235, offset: 0x32235, size: 0x8, addend: 0x0, symName: __ZNSt3__14pairIPKNS_5arrayImLm2EEEPS2_EC2B7v160006IS4_S5_LPv0EEEOT_OT0_, symObjAddr: 0x13E08, symBinAddr: 0x100015A5C, symSize: 0x138 }
  - { offsetInCU: 0x32292, offset: 0x32292, size: 0x8, addend: 0x0, symName: __ZNSt3__119__unwrap_range_implIPKNS_5arrayImLm2EEES4_E8__rewrapB7v160006ES4_S4_, symObjAddr: 0x13F40, symBinAddr: 0x100015B94, symSize: 0x2C }
  - { offsetInCU: 0x322C3, offset: 0x322C3, size: 0x8, addend: 0x0, symName: __ZNSt3__118__unwrap_iter_implIPKNS_5arrayImLm2EEELb1EE8__rewrapB7v160006ES4_S4_, symObjAddr: 0x13FB4, symBinAddr: 0x100015C08, symSize: 0x50 }
  - { offsetInCU: 0x322F4, offset: 0x322F4, size: 0x8, addend: 0x0, symName: __ZNSt3__118__unwrap_iter_implIPNS_5arrayImLm2EEELb1EE8__rewrapB7v160006ES3_S3_, symObjAddr: 0x14004, symBinAddr: 0x100015C58, symSize: 0x50 }
  - { offsetInCU: 0x32325, offset: 0x32325, size: 0x8, addend: 0x0, symName: __ZNSt3__16vectorINS_5arrayImLm2EEENS_9allocatorIS2_EEE21_ConstructTransactionD2B7v160006Ev, symObjAddr: 0x14054, symBinAddr: 0x100015CA8, symSize: 0x278 }
  - { offsetInCU: 0x3234E, offset: 0x3234E, size: 0x8, addend: 0x0, symName: __ZNKSt3__16vectorINS_5arrayImLm2EEENS_9allocatorIS2_EEE17__annotate_shrinkB7v160006Em, symObjAddr: 0x142CC, symBinAddr: 0x100015F20, symSize: 0xC8 }
  - { offsetInCU: 0x32382, offset: 0x32382, size: 0x8, addend: 0x0, symName: __ZNSt3__128__exception_guard_exceptionsINS_6vectorINS_5arrayImLm2EEENS_9allocatorIS3_EEE16__destroy_vectorEED2B7v160006Ev, symObjAddr: 0x14394, symBinAddr: 0x100015FE8, symSize: 0xBC }
  - { offsetInCU: 0x323AB, offset: 0x323AB, size: 0x8, addend: 0x0, symName: __ZNSt3__16vectorINS_5arrayImLm2EEENS_9allocatorIS2_EEE16__destroy_vectorclB7v160006Ev, symObjAddr: 0x14450, symBinAddr: 0x1000160A4, symSize: 0x264 }
  - { offsetInCU: 0x323D0, offset: 0x323D0, size: 0x8, addend: 0x0, symName: __ZNKSt3__16vectorINS_5arrayImLm2EEENS_9allocatorIS2_EEE17__annotate_deleteB7v160006Ev, symObjAddr: 0x146B4, symBinAddr: 0x100016308, symSize: 0xCC }
  - { offsetInCU: 0x323F5, offset: 0x323F5, size: 0x8, addend: 0x0, symName: __ZNSt3__16vectorINS_5arrayImLm2EEENS_9allocatorIS2_EEE7__clearB7v160006Ev, symObjAddr: 0x14790, symBinAddr: 0x1000163E4, symSize: 0x64 }
  - { offsetInCU: 0x3241A, offset: 0x3241A, size: 0x8, addend: 0x0, symName: __ZNSt3__116allocator_traitsINS_9allocatorINS_5arrayImLm2EEEEEE10deallocateB7v160006ERS4_PS3_m, symObjAddr: 0x147F4, symBinAddr: 0x100016448, symSize: 0x34 }
  - { offsetInCU: 0x3245C, offset: 0x3245C, size: 0x8, addend: 0x0, symName: __ZNSt3__16vectorINS_5arrayImLm2EEENS_9allocatorIS2_EEE22__base_destruct_at_endB7v160006EPS2_, symObjAddr: 0x14828, symBinAddr: 0x10001647C, symSize: 0x114 }
  - { offsetInCU: 0x3249F, offset: 0x3249F, size: 0x8, addend: 0x0, symName: __ZNSt3__116allocator_traitsINS_9allocatorINS_5arrayImLm2EEEEEE7destroyB7v160006IS3_vvEEvRS4_PT_, symObjAddr: 0x1493C, symBinAddr: 0x100016590, symSize: 0x28 }
  - { offsetInCU: 0x324D9, offset: 0x324D9, size: 0x8, addend: 0x0, symName: __ZNSt3__19allocatorINS_5arrayImLm2EEEE10deallocateB7v160006EPS2_m, symObjAddr: 0x14998, symBinAddr: 0x1000165EC, symSize: 0x4C }
  - { offsetInCU: 0x3251A, offset: 0x3251A, size: 0x8, addend: 0x0, symName: __ZNSt3__16vectorINS_5arrayImLm2EEENS_9allocatorIS2_EEED2B7v160006Ev, symObjAddr: 0x14AEC, symBinAddr: 0x100016740, symSize: 0x1F8 }
  - { offsetInCU: 0x32544, offset: 0x32544, size: 0x8, addend: 0x0, symName: __ZNSt3__16vectorINS_5arrayImLm3EEENS_9allocatorIS2_EEEC2B7v160006ESt16initializer_listIS2_E, symObjAddr: 0x14CE4, symBinAddr: 0x100016938, symSize: 0x534 }
  - { offsetInCU: 0x3259C, offset: 0x3259C, size: 0x8, addend: 0x0, symName: __ZNSt3__117__compressed_pairIPNS_5arrayImLm3EEENS_9allocatorIS2_EEEC1B7v160006IDnNS_18__default_init_tagEEEOT_OT0_, symObjAddr: 0x15218, symBinAddr: 0x100016E6C, symSize: 0x3C }
  - { offsetInCU: 0x325F3, offset: 0x325F3, size: 0x8, addend: 0x0, symName: __ZNSt3__16vectorINS_5arrayImLm3EEENS_9allocatorIS2_EEE16__destroy_vectorC1ERS5_, symObjAddr: 0x154CC, symBinAddr: 0x100017120, symSize: 0x34 }
  - { offsetInCU: 0x3262B, offset: 0x3262B, size: 0x8, addend: 0x0, symName: __ZNKSt16initializer_listINSt3__15arrayImLm3EEEE4sizeB7v160006Ev, symObjAddr: 0x15510, symBinAddr: 0x100017164, symSize: 0x64 }
  - { offsetInCU: 0x32650, offset: 0x32650, size: 0x8, addend: 0x0, symName: __ZNSt3__16vectorINS_5arrayImLm3EEENS_9allocatorIS2_EEE11__vallocateB7v160006Em, symObjAddr: 0x15574, symBinAddr: 0x1000171C8, symSize: 0x428 }
  - { offsetInCU: 0x32698, offset: 0x32698, size: 0x8, addend: 0x0, symName: __ZNSt3__16vectorINS_5arrayImLm3EEENS_9allocatorIS2_EEE18__construct_at_endIPKS2_Li0EEEvT_S9_m, symObjAddr: 0x1599C, symBinAddr: 0x1000175F0, symSize: 0x380 }
  - { offsetInCU: 0x32712, offset: 0x32712, size: 0x8, addend: 0x0, symName: __ZNKSt16initializer_listINSt3__15arrayImLm3EEEE5beginB7v160006Ev, symObjAddr: 0x15D1C, symBinAddr: 0x100017970, symSize: 0x60 }
  - { offsetInCU: 0x32737, offset: 0x32737, size: 0x8, addend: 0x0, symName: __ZNKSt16initializer_listINSt3__15arrayImLm3EEEE3endB7v160006Ev, symObjAddr: 0x15D7C, symBinAddr: 0x1000179D0, symSize: 0xB0 }
  - { offsetInCU: 0x3275C, offset: 0x3275C, size: 0x8, addend: 0x0, symName: __ZNSt3__128__exception_guard_exceptionsINS_6vectorINS_5arrayImLm3EEENS_9allocatorIS3_EEE16__destroy_vectorEE10__completeB7v160006Ev, symObjAddr: 0x15E2C, symBinAddr: 0x100017A80, symSize: 0x8C }
  - { offsetInCU: 0x32781, offset: 0x32781, size: 0x8, addend: 0x0, symName: __ZNSt3__128__exception_guard_exceptionsINS_6vectorINS_5arrayImLm3EEENS_9allocatorIS3_EEE16__destroy_vectorEED1B7v160006Ev, symObjAddr: 0x15EB8, symBinAddr: 0x100017B0C, symSize: 0x2C }
  - { offsetInCU: 0x327AA, offset: 0x327AA, size: 0x8, addend: 0x0, symName: __ZNSt3__117__compressed_pairIPNS_5arrayImLm3EEENS_9allocatorIS2_EEEC2B7v160006IDnNS_18__default_init_tagEEEOT_OT0_, symObjAddr: 0x15EE4, symBinAddr: 0x100017B38, symSize: 0x40 }
  - { offsetInCU: 0x32801, offset: 0x32801, size: 0x8, addend: 0x0, symName: __ZNSt3__122__compressed_pair_elemIPNS_5arrayImLm3EEELi0ELb0EEC2B7v160006IDnvEEOT_, symObjAddr: 0x15F24, symBinAddr: 0x100017B78, symSize: 0x64 }
  - { offsetInCU: 0x32842, offset: 0x32842, size: 0x8, addend: 0x0, symName: __ZNSt3__122__compressed_pair_elemINS_9allocatorINS_5arrayImLm3EEEEELi1ELb1EEC2B7v160006ENS_18__default_init_tagE, symObjAddr: 0x15F88, symBinAddr: 0x100017BDC, symSize: 0x2C }
  - { offsetInCU: 0x32875, offset: 0x32875, size: 0x8, addend: 0x0, symName: __ZNSt3__19allocatorINS_5arrayImLm3EEEEC2B7v160006Ev, symObjAddr: 0x15FB4, symBinAddr: 0x100017C08, symSize: 0x2C }
  - { offsetInCU: 0x3289E, offset: 0x3289E, size: 0x8, addend: 0x0, symName: __ZNSt3__116__non_trivial_ifILb1ENS_9allocatorINS_5arrayImLm3EEEEEEC2B7v160006Ev, symObjAddr: 0x15FE0, symBinAddr: 0x100017C34, symSize: 0x14 }
  - { offsetInCU: 0x328C7, offset: 0x328C7, size: 0x8, addend: 0x0, symName: __ZNSt3__128__exception_guard_exceptionsINS_6vectorINS_5arrayImLm3EEENS_9allocatorIS3_EEE16__destroy_vectorEEC1B7v160006ES7_, symObjAddr: 0x15FF4, symBinAddr: 0x100017C48, symSize: 0x238 }
  - { offsetInCU: 0x32903, offset: 0x32903, size: 0x8, addend: 0x0, symName: __ZNSt3__128__exception_guard_exceptionsINS_6vectorINS_5arrayImLm3EEENS_9allocatorIS3_EEE16__destroy_vectorEEC2B7v160006ES7_, symObjAddr: 0x1622C, symBinAddr: 0x100017E80, symSize: 0x264 }
  - { offsetInCU: 0x3293F, offset: 0x3293F, size: 0x8, addend: 0x0, symName: __ZNSt3__16vectorINS_5arrayImLm3EEENS_9allocatorIS2_EEE16__destroy_vectorC2ERS5_, symObjAddr: 0x16490, symBinAddr: 0x1000180E4, symSize: 0x70 }
  - { offsetInCU: 0x32976, offset: 0x32976, size: 0x8, addend: 0x0, symName: __ZNKSt3__16vectorINS_5arrayImLm3EEENS_9allocatorIS2_EEE8max_sizeEv, symObjAddr: 0x16500, symBinAddr: 0x100018154, symSize: 0x2FC }
  - { offsetInCU: 0x3299E, offset: 0x3299E, size: 0x8, addend: 0x0, symName: __ZNKSt3__16vectorINS_5arrayImLm3EEENS_9allocatorIS2_EEE20__throw_length_errorB7v160006Ev, symObjAddr: 0x167FC, symBinAddr: 0x100018450, symSize: 0x20 }
  - { offsetInCU: 0x329C3, offset: 0x329C3, size: 0x8, addend: 0x0, symName: __ZNSt3__16vectorINS_5arrayImLm3EEENS_9allocatorIS2_EEE7__allocB7v160006Ev, symObjAddr: 0x16AA8, symBinAddr: 0x1000186FC, symSize: 0x28 }
  - { offsetInCU: 0x329E8, offset: 0x329E8, size: 0x8, addend: 0x0, symName: __ZNSt3__16vectorINS_5arrayImLm3EEENS_9allocatorIS2_EEE9__end_capB7v160006Ev, symObjAddr: 0x16AD0, symBinAddr: 0x100018724, symSize: 0x28 }
  - { offsetInCU: 0x32A0D, offset: 0x32A0D, size: 0x8, addend: 0x0, symName: __ZNKSt3__16vectorINS_5arrayImLm3EEENS_9allocatorIS2_EEE14__annotate_newB7v160006Em, symObjAddr: 0x16AF8, symBinAddr: 0x10001874C, symSize: 0xDC }
  - { offsetInCU: 0x32A4B, offset: 0x32A4B, size: 0x8, addend: 0x0, symName: __ZNSt3__116allocator_traitsINS_9allocatorINS_5arrayImLm3EEEEEE8max_sizeB7v160006IS4_vvEEmRKS4_, symObjAddr: 0x16BD4, symBinAddr: 0x100018828, symSize: 0x28 }
  - { offsetInCU: 0x32A76, offset: 0x32A76, size: 0x8, addend: 0x0, symName: __ZNKSt3__16vectorINS_5arrayImLm3EEENS_9allocatorIS2_EEE7__allocB7v160006Ev, symObjAddr: 0x16BFC, symBinAddr: 0x100018850, symSize: 0x28 }
  - { offsetInCU: 0x32A9B, offset: 0x32A9B, size: 0x8, addend: 0x0, symName: __ZNKSt3__117__compressed_pairIPNS_5arrayImLm3EEENS_9allocatorIS2_EEE6secondB7v160006Ev, symObjAddr: 0x16C24, symBinAddr: 0x100018878, symSize: 0x24 }
  - { offsetInCU: 0x32AC0, offset: 0x32AC0, size: 0x8, addend: 0x0, symName: __ZNKSt3__122__compressed_pair_elemINS_9allocatorINS_5arrayImLm3EEEEELi1ELb1EE5__getB7v160006Ev, symObjAddr: 0x16C48, symBinAddr: 0x10001889C, symSize: 0x14 }
  - { offsetInCU: 0x32AE5, offset: 0x32AE5, size: 0x8, addend: 0x0, symName: __ZNSt3__19allocatorINS_5arrayImLm3EEEE8allocateB7v160006Em, symObjAddr: 0x16C5C, symBinAddr: 0x1000188B0, symSize: 0x60 }
  - { offsetInCU: 0x32B18, offset: 0x32B18, size: 0x8, addend: 0x0, symName: __ZNSt3__117__compressed_pairIPNS_5arrayImLm3EEENS_9allocatorIS2_EEE6secondB7v160006Ev, symObjAddr: 0x16CBC, symBinAddr: 0x100018910, symSize: 0x24 }
  - { offsetInCU: 0x32B3D, offset: 0x32B3D, size: 0x8, addend: 0x0, symName: __ZNSt3__122__compressed_pair_elemINS_9allocatorINS_5arrayImLm3EEEEELi1ELb1EE5__getB7v160006Ev, symObjAddr: 0x16CE0, symBinAddr: 0x100018934, symSize: 0x14 }
  - { offsetInCU: 0x32B62, offset: 0x32B62, size: 0x8, addend: 0x0, symName: __ZNSt3__117__compressed_pairIPNS_5arrayImLm3EEENS_9allocatorIS2_EEE5firstB7v160006Ev, symObjAddr: 0x16CF4, symBinAddr: 0x100018948, symSize: 0x24 }
  - { offsetInCU: 0x32B87, offset: 0x32B87, size: 0x8, addend: 0x0, symName: __ZNSt3__122__compressed_pair_elemIPNS_5arrayImLm3EEELi0ELb0EE5__getB7v160006Ev, symObjAddr: 0x16D18, symBinAddr: 0x10001896C, symSize: 0x14 }
  - { offsetInCU: 0x32BAC, offset: 0x32BAC, size: 0x8, addend: 0x0, symName: __ZNKSt3__16vectorINS_5arrayImLm3EEENS_9allocatorIS2_EEE31__annotate_contiguous_containerEPKvS7_S7_S7_, symObjAddr: 0x16D2C, symBinAddr: 0x100018980, symSize: 0x58 }
  - { offsetInCU: 0x32C0D, offset: 0x32C0D, size: 0x8, addend: 0x0, symName: __ZNKSt3__16vectorINS_5arrayImLm3EEENS_9allocatorIS2_EEE4dataB7v160006Ev, symObjAddr: 0x16D84, symBinAddr: 0x1000189D8, symSize: 0x64 }
  - { offsetInCU: 0x32C32, offset: 0x32C32, size: 0x8, addend: 0x0, symName: __ZNKSt3__16vectorINS_5arrayImLm3EEENS_9allocatorIS2_EEE8capacityB7v160006Ev, symObjAddr: 0x16DE8, symBinAddr: 0x100018A3C, symSize: 0xBC }
  - { offsetInCU: 0x32C57, offset: 0x32C57, size: 0x8, addend: 0x0, symName: __ZNKSt3__16vectorINS_5arrayImLm3EEENS_9allocatorIS2_EEE9__end_capB7v160006Ev, symObjAddr: 0x16EB8, symBinAddr: 0x100018B0C, symSize: 0x28 }
  - { offsetInCU: 0x32C7C, offset: 0x32C7C, size: 0x8, addend: 0x0, symName: __ZNKSt3__117__compressed_pairIPNS_5arrayImLm3EEENS_9allocatorIS2_EEE5firstB7v160006Ev, symObjAddr: 0x16EE0, symBinAddr: 0x100018B34, symSize: 0x24 }
  - { offsetInCU: 0x32CA1, offset: 0x32CA1, size: 0x8, addend: 0x0, symName: __ZNKSt3__122__compressed_pair_elemIPNS_5arrayImLm3EEELi0ELb0EE5__getB7v160006Ev, symObjAddr: 0x16F04, symBinAddr: 0x100018B58, symSize: 0x14 }
  - { offsetInCU: 0x32CDF, offset: 0x32CDF, size: 0x8, addend: 0x0, symName: __ZNSt3__16vectorINS_5arrayImLm3EEENS_9allocatorIS2_EEE21_ConstructTransactionC1B7v160006ERS5_m, symObjAddr: 0x16F18, symBinAddr: 0x100018B6C, symSize: 0x3C }
  - { offsetInCU: 0x32D26, offset: 0x32D26, size: 0x8, addend: 0x0, symName: __ZNSt3__16vectorINS_5arrayImLm3EEENS_9allocatorIS2_EEE21_ConstructTransactionD1B7v160006Ev, symObjAddr: 0x16F8C, symBinAddr: 0x100018BE0, symSize: 0x2C }
  - { offsetInCU: 0x32D4F, offset: 0x32D4F, size: 0x8, addend: 0x0, symName: __ZNSt3__16vectorINS_5arrayImLm3EEENS_9allocatorIS2_EEE21_ConstructTransactionC2B7v160006ERS5_m, symObjAddr: 0x16FB8, symBinAddr: 0x100018C0C, symSize: 0x1D8 }
  - { offsetInCU: 0x32D96, offset: 0x32D96, size: 0x8, addend: 0x0, symName: __ZNKSt3__16vectorINS_5arrayImLm3EEENS_9allocatorIS2_EEE19__annotate_increaseB7v160006Em, symObjAddr: 0x17190, symBinAddr: 0x100018DE4, symSize: 0xF8 }
  - { offsetInCU: 0x32DCA, offset: 0x32DCA, size: 0x8, addend: 0x0, symName: __ZNKSt3__16vectorINS_5arrayImLm3EEENS_9allocatorIS2_EEE4sizeB7v160006Ev, symObjAddr: 0x17288, symBinAddr: 0x100018EDC, symSize: 0xB0 }
  - { offsetInCU: 0x32E08, offset: 0x32E08, size: 0x8, addend: 0x0, symName: __ZNKSt3__114__copy_trivialclB7v160006IKNS_5arrayImLm3EEES3_Li0EEENS_4pairIPT_PT0_EES7_S7_S9_, symObjAddr: 0x181C4, symBinAddr: 0x100019E18, symSize: 0x230 }
  - { offsetInCU: 0x32E8C, offset: 0x32E8C, size: 0x8, addend: 0x0, symName: __ZNSt3__119__unwrap_range_implIPKNS_5arrayImLm3EEES4_E8__unwrapB7v160006ES4_S4_, symObjAddr: 0x18698, symBinAddr: 0x10001A2EC, symSize: 0x30C }
  - { offsetInCU: 0x32EC4, offset: 0x32EC4, size: 0x8, addend: 0x0, symName: __ZNSt3__14pairIPKNS_5arrayImLm3EEES4_EC1B7v160006IS4_S4_LPv0EEEOT_OT0_, symObjAddr: 0x189C8, symBinAddr: 0x10001A61C, symSize: 0x3C }
  - { offsetInCU: 0x32F21, offset: 0x32F21, size: 0x8, addend: 0x0, symName: __ZNSt3__118__unwrap_iter_implIPKNS_5arrayImLm3EEELb1EE8__unwrapB7v160006ES4_, symObjAddr: 0x18A04, symBinAddr: 0x10001A658, symSize: 0x24 }
  - { offsetInCU: 0x32F44, offset: 0x32F44, size: 0x8, addend: 0x0, symName: __ZNSt3__14pairIPKNS_5arrayImLm3EEES4_EC2B7v160006IS4_S4_LPv0EEEOT_OT0_, symObjAddr: 0x18A3C, symBinAddr: 0x10001A690, symSize: 0x138 }
  - { offsetInCU: 0x32FAB, offset: 0x32FAB, size: 0x8, addend: 0x0, symName: __ZNSt3__14pairIPKNS_5arrayImLm3EEEPS2_EC1B7v160006IRS4_S5_LPv0EEEOT_OT0_, symObjAddr: 0x19140, symBinAddr: 0x10001AD94, symSize: 0x3C }
  - { offsetInCU: 0x33008, offset: 0x33008, size: 0x8, addend: 0x0, symName: __ZNSt3__14pairIPKNS_5arrayImLm3EEEPS2_EC2B7v160006IRS4_S5_LPv0EEEOT_OT0_, symObjAddr: 0x1917C, symBinAddr: 0x10001ADD0, symSize: 0x138 }
  - { offsetInCU: 0x33065, offset: 0x33065, size: 0x8, addend: 0x0, symName: __ZNSt3__118__unwrap_iter_implIPNS_5arrayImLm3EEELb1EE8__unwrapB7v160006ES3_, symObjAddr: 0x192B4, symBinAddr: 0x10001AF08, symSize: 0x24 }
  - { offsetInCU: 0x33088, offset: 0x33088, size: 0x8, addend: 0x0, symName: __ZNSt3__14pairIPKNS_5arrayImLm3EEEPS2_EC1B7v160006IS4_S5_LPv0EEEOT_OT0_, symObjAddr: 0x192D8, symBinAddr: 0x10001AF2C, symSize: 0x3C }
  - { offsetInCU: 0x330E5, offset: 0x330E5, size: 0x8, addend: 0x0, symName: __ZNSt3__14pairIPKNS_5arrayImLm3EEEPS2_EC2B7v160006IS4_S5_LPv0EEEOT_OT0_, symObjAddr: 0x19314, symBinAddr: 0x10001AF68, symSize: 0x138 }
  - { offsetInCU: 0x33142, offset: 0x33142, size: 0x8, addend: 0x0, symName: __ZNSt3__119__unwrap_range_implIPKNS_5arrayImLm3EEES4_E8__rewrapB7v160006ES4_S4_, symObjAddr: 0x1944C, symBinAddr: 0x10001B0A0, symSize: 0x2C }
  - { offsetInCU: 0x33173, offset: 0x33173, size: 0x8, addend: 0x0, symName: __ZNSt3__118__unwrap_iter_implIPKNS_5arrayImLm3EEELb1EE8__rewrapB7v160006ES4_S4_, symObjAddr: 0x194C0, symBinAddr: 0x10001B114, symSize: 0x58 }
  - { offsetInCU: 0x331A4, offset: 0x331A4, size: 0x8, addend: 0x0, symName: __ZNSt3__118__unwrap_iter_implIPNS_5arrayImLm3EEELb1EE8__rewrapB7v160006ES3_S3_, symObjAddr: 0x19518, symBinAddr: 0x10001B16C, symSize: 0x58 }
  - { offsetInCU: 0x331D5, offset: 0x331D5, size: 0x8, addend: 0x0, symName: __ZNSt3__16vectorINS_5arrayImLm3EEENS_9allocatorIS2_EEE21_ConstructTransactionD2B7v160006Ev, symObjAddr: 0x19570, symBinAddr: 0x10001B1C4, symSize: 0x278 }
  - { offsetInCU: 0x331FE, offset: 0x331FE, size: 0x8, addend: 0x0, symName: __ZNKSt3__16vectorINS_5arrayImLm3EEENS_9allocatorIS2_EEE17__annotate_shrinkB7v160006Em, symObjAddr: 0x197E8, symBinAddr: 0x10001B43C, symSize: 0xE4 }
  - { offsetInCU: 0x33232, offset: 0x33232, size: 0x8, addend: 0x0, symName: __ZNSt3__128__exception_guard_exceptionsINS_6vectorINS_5arrayImLm3EEENS_9allocatorIS3_EEE16__destroy_vectorEED2B7v160006Ev, symObjAddr: 0x198CC, symBinAddr: 0x10001B520, symSize: 0xBC }
  - { offsetInCU: 0x3325B, offset: 0x3325B, size: 0x8, addend: 0x0, symName: __ZNSt3__16vectorINS_5arrayImLm3EEENS_9allocatorIS2_EEE16__destroy_vectorclB7v160006Ev, symObjAddr: 0x19988, symBinAddr: 0x10001B5DC, symSize: 0x264 }
  - { offsetInCU: 0x33280, offset: 0x33280, size: 0x8, addend: 0x0, symName: __ZNKSt3__16vectorINS_5arrayImLm3EEENS_9allocatorIS2_EEE17__annotate_deleteB7v160006Ev, symObjAddr: 0x19BEC, symBinAddr: 0x10001B840, symSize: 0xE8 }
  - { offsetInCU: 0x332A5, offset: 0x332A5, size: 0x8, addend: 0x0, symName: __ZNSt3__16vectorINS_5arrayImLm3EEENS_9allocatorIS2_EEE7__clearB7v160006Ev, symObjAddr: 0x19CE4, symBinAddr: 0x10001B938, symSize: 0x64 }
  - { offsetInCU: 0x332CA, offset: 0x332CA, size: 0x8, addend: 0x0, symName: __ZNSt3__116allocator_traitsINS_9allocatorINS_5arrayImLm3EEEEEE10deallocateB7v160006ERS4_PS3_m, symObjAddr: 0x19D48, symBinAddr: 0x10001B99C, symSize: 0x34 }
  - { offsetInCU: 0x3330C, offset: 0x3330C, size: 0x8, addend: 0x0, symName: __ZNSt3__16vectorINS_5arrayImLm3EEENS_9allocatorIS2_EEE22__base_destruct_at_endB7v160006EPS2_, symObjAddr: 0x19D7C, symBinAddr: 0x10001B9D0, symSize: 0x114 }
  - { offsetInCU: 0x3334F, offset: 0x3334F, size: 0x8, addend: 0x0, symName: __ZNSt3__116allocator_traitsINS_9allocatorINS_5arrayImLm3EEEEEE7destroyB7v160006IS3_vvEEvRS4_PT_, symObjAddr: 0x19E90, symBinAddr: 0x10001BAE4, symSize: 0x28 }
  - { offsetInCU: 0x33389, offset: 0x33389, size: 0x8, addend: 0x0, symName: __ZNSt3__19allocatorINS_5arrayImLm3EEEE10deallocateB7v160006EPS2_m, symObjAddr: 0x19EEC, symBinAddr: 0x10001BB40, symSize: 0x50 }
  - { offsetInCU: 0x333CA, offset: 0x333CA, size: 0x8, addend: 0x0, symName: __ZNSt3__16vectorINS_5arrayImLm3EEENS_9allocatorIS2_EEED2B7v160006Ev, symObjAddr: 0x19F3C, symBinAddr: 0x10001BB90, symSize: 0x1F8 }
  - { offsetInCU: 0x333F4, offset: 0x333F4, size: 0x8, addend: 0x0, symName: __ZNSt3__16vectorINS_5arrayImLm1EEENS_9allocatorIS2_EEEC2B7v160006ESt16initializer_listIS2_E, symObjAddr: 0x1A134, symBinAddr: 0x10001BD88, symSize: 0x534 }
  - { offsetInCU: 0x3344C, offset: 0x3344C, size: 0x8, addend: 0x0, symName: __ZNSt3__117__compressed_pairIPNS_5arrayImLm1EEENS_9allocatorIS2_EEEC1B7v160006IDnNS_18__default_init_tagEEEOT_OT0_, symObjAddr: 0x1A668, symBinAddr: 0x10001C2BC, symSize: 0x3C }
  - { offsetInCU: 0x334A3, offset: 0x334A3, size: 0x8, addend: 0x0, symName: __ZNSt3__16vectorINS_5arrayImLm1EEENS_9allocatorIS2_EEE16__destroy_vectorC1ERS5_, symObjAddr: 0x1A91C, symBinAddr: 0x10001C570, symSize: 0x34 }
  - { offsetInCU: 0x334DB, offset: 0x334DB, size: 0x8, addend: 0x0, symName: __ZNKSt16initializer_listINSt3__15arrayImLm1EEEE4sizeB7v160006Ev, symObjAddr: 0x1A960, symBinAddr: 0x10001C5B4, symSize: 0x64 }
  - { offsetInCU: 0x33500, offset: 0x33500, size: 0x8, addend: 0x0, symName: __ZNSt3__16vectorINS_5arrayImLm1EEENS_9allocatorIS2_EEE11__vallocateB7v160006Em, symObjAddr: 0x1A9C4, symBinAddr: 0x10001C618, symSize: 0x420 }
  - { offsetInCU: 0x33548, offset: 0x33548, size: 0x8, addend: 0x0, symName: __ZNSt3__16vectorINS_5arrayImLm1EEENS_9allocatorIS2_EEE18__construct_at_endIPKS2_Li0EEEvT_S9_m, symObjAddr: 0x1ADE4, symBinAddr: 0x10001CA38, symSize: 0x380 }
  - { offsetInCU: 0x335C2, offset: 0x335C2, size: 0x8, addend: 0x0, symName: __ZNKSt16initializer_listINSt3__15arrayImLm1EEEE5beginB7v160006Ev, symObjAddr: 0x1B164, symBinAddr: 0x10001CDB8, symSize: 0x60 }
  - { offsetInCU: 0x335E7, offset: 0x335E7, size: 0x8, addend: 0x0, symName: __ZNKSt16initializer_listINSt3__15arrayImLm1EEEE3endB7v160006Ev, symObjAddr: 0x1B1C4, symBinAddr: 0x10001CE18, symSize: 0xA8 }
  - { offsetInCU: 0x3360C, offset: 0x3360C, size: 0x8, addend: 0x0, symName: __ZNSt3__128__exception_guard_exceptionsINS_6vectorINS_5arrayImLm1EEENS_9allocatorIS3_EEE16__destroy_vectorEE10__completeB7v160006Ev, symObjAddr: 0x1B26C, symBinAddr: 0x10001CEC0, symSize: 0x8C }
  - { offsetInCU: 0x33631, offset: 0x33631, size: 0x8, addend: 0x0, symName: __ZNSt3__128__exception_guard_exceptionsINS_6vectorINS_5arrayImLm1EEENS_9allocatorIS3_EEE16__destroy_vectorEED1B7v160006Ev, symObjAddr: 0x1B2F8, symBinAddr: 0x10001CF4C, symSize: 0x2C }
  - { offsetInCU: 0x3365A, offset: 0x3365A, size: 0x8, addend: 0x0, symName: __ZNSt3__117__compressed_pairIPNS_5arrayImLm1EEENS_9allocatorIS2_EEEC2B7v160006IDnNS_18__default_init_tagEEEOT_OT0_, symObjAddr: 0x1B324, symBinAddr: 0x10001CF78, symSize: 0x40 }
  - { offsetInCU: 0x336B1, offset: 0x336B1, size: 0x8, addend: 0x0, symName: __ZNSt3__122__compressed_pair_elemIPNS_5arrayImLm1EEELi0ELb0EEC2B7v160006IDnvEEOT_, symObjAddr: 0x1B364, symBinAddr: 0x10001CFB8, symSize: 0x64 }
  - { offsetInCU: 0x336F2, offset: 0x336F2, size: 0x8, addend: 0x0, symName: __ZNSt3__122__compressed_pair_elemINS_9allocatorINS_5arrayImLm1EEEEELi1ELb1EEC2B7v160006ENS_18__default_init_tagE, symObjAddr: 0x1B3C8, symBinAddr: 0x10001D01C, symSize: 0x2C }
  - { offsetInCU: 0x33725, offset: 0x33725, size: 0x8, addend: 0x0, symName: __ZNSt3__19allocatorINS_5arrayImLm1EEEEC2B7v160006Ev, symObjAddr: 0x1B3F4, symBinAddr: 0x10001D048, symSize: 0x2C }
  - { offsetInCU: 0x3374E, offset: 0x3374E, size: 0x8, addend: 0x0, symName: __ZNSt3__116__non_trivial_ifILb1ENS_9allocatorINS_5arrayImLm1EEEEEEC2B7v160006Ev, symObjAddr: 0x1B420, symBinAddr: 0x10001D074, symSize: 0x14 }
  - { offsetInCU: 0x33777, offset: 0x33777, size: 0x8, addend: 0x0, symName: __ZNSt3__128__exception_guard_exceptionsINS_6vectorINS_5arrayImLm1EEENS_9allocatorIS3_EEE16__destroy_vectorEEC1B7v160006ES7_, symObjAddr: 0x1B434, symBinAddr: 0x10001D088, symSize: 0x238 }
  - { offsetInCU: 0x337B3, offset: 0x337B3, size: 0x8, addend: 0x0, symName: __ZNSt3__128__exception_guard_exceptionsINS_6vectorINS_5arrayImLm1EEENS_9allocatorIS3_EEE16__destroy_vectorEEC2B7v160006ES7_, symObjAddr: 0x1B66C, symBinAddr: 0x10001D2C0, symSize: 0x264 }
  - { offsetInCU: 0x337EF, offset: 0x337EF, size: 0x8, addend: 0x0, symName: __ZNSt3__16vectorINS_5arrayImLm1EEENS_9allocatorIS2_EEE16__destroy_vectorC2ERS5_, symObjAddr: 0x1B8D0, symBinAddr: 0x10001D524, symSize: 0x70 }
  - { offsetInCU: 0x33826, offset: 0x33826, size: 0x8, addend: 0x0, symName: __ZNKSt3__16vectorINS_5arrayImLm1EEENS_9allocatorIS2_EEE8max_sizeEv, symObjAddr: 0x1B940, symBinAddr: 0x10001D594, symSize: 0x2FC }
  - { offsetInCU: 0x3384E, offset: 0x3384E, size: 0x8, addend: 0x0, symName: __ZNKSt3__16vectorINS_5arrayImLm1EEENS_9allocatorIS2_EEE20__throw_length_errorB7v160006Ev, symObjAddr: 0x1BC3C, symBinAddr: 0x10001D890, symSize: 0x20 }
  - { offsetInCU: 0x33873, offset: 0x33873, size: 0x8, addend: 0x0, symName: __ZNSt3__16vectorINS_5arrayImLm1EEENS_9allocatorIS2_EEE7__allocB7v160006Ev, symObjAddr: 0x1BEE8, symBinAddr: 0x10001DB3C, symSize: 0x28 }
  - { offsetInCU: 0x33898, offset: 0x33898, size: 0x8, addend: 0x0, symName: __ZNSt3__16vectorINS_5arrayImLm1EEENS_9allocatorIS2_EEE9__end_capB7v160006Ev, symObjAddr: 0x1BF10, symBinAddr: 0x10001DB64, symSize: 0x28 }
  - { offsetInCU: 0x338BD, offset: 0x338BD, size: 0x8, addend: 0x0, symName: __ZNKSt3__16vectorINS_5arrayImLm1EEENS_9allocatorIS2_EEE14__annotate_newB7v160006Em, symObjAddr: 0x1BF38, symBinAddr: 0x10001DB8C, symSize: 0xC0 }
  - { offsetInCU: 0x338FB, offset: 0x338FB, size: 0x8, addend: 0x0, symName: __ZNSt3__116allocator_traitsINS_9allocatorINS_5arrayImLm1EEEEEE8max_sizeB7v160006IS4_vvEEmRKS4_, symObjAddr: 0x1BFF8, symBinAddr: 0x10001DC4C, symSize: 0x28 }
  - { offsetInCU: 0x33926, offset: 0x33926, size: 0x8, addend: 0x0, symName: __ZNKSt3__16vectorINS_5arrayImLm1EEENS_9allocatorIS2_EEE7__allocB7v160006Ev, symObjAddr: 0x1C020, symBinAddr: 0x10001DC74, symSize: 0x28 }
  - { offsetInCU: 0x3394B, offset: 0x3394B, size: 0x8, addend: 0x0, symName: __ZNKSt3__117__compressed_pairIPNS_5arrayImLm1EEENS_9allocatorIS2_EEE6secondB7v160006Ev, symObjAddr: 0x1C048, symBinAddr: 0x10001DC9C, symSize: 0x24 }
  - { offsetInCU: 0x33970, offset: 0x33970, size: 0x8, addend: 0x0, symName: __ZNKSt3__122__compressed_pair_elemINS_9allocatorINS_5arrayImLm1EEEEELi1ELb1EE5__getB7v160006Ev, symObjAddr: 0x1C06C, symBinAddr: 0x10001DCC0, symSize: 0x14 }
  - { offsetInCU: 0x33995, offset: 0x33995, size: 0x8, addend: 0x0, symName: __ZNSt3__19allocatorINS_5arrayImLm1EEEE8allocateB7v160006Em, symObjAddr: 0x1C080, symBinAddr: 0x10001DCD4, symSize: 0x5C }
  - { offsetInCU: 0x339C8, offset: 0x339C8, size: 0x8, addend: 0x0, symName: __ZNSt3__117__compressed_pairIPNS_5arrayImLm1EEENS_9allocatorIS2_EEE6secondB7v160006Ev, symObjAddr: 0x1C0DC, symBinAddr: 0x10001DD30, symSize: 0x24 }
  - { offsetInCU: 0x339ED, offset: 0x339ED, size: 0x8, addend: 0x0, symName: __ZNSt3__122__compressed_pair_elemINS_9allocatorINS_5arrayImLm1EEEEELi1ELb1EE5__getB7v160006Ev, symObjAddr: 0x1C100, symBinAddr: 0x10001DD54, symSize: 0x14 }
  - { offsetInCU: 0x33A12, offset: 0x33A12, size: 0x8, addend: 0x0, symName: __ZNSt3__117__compressed_pairIPNS_5arrayImLm1EEENS_9allocatorIS2_EEE5firstB7v160006Ev, symObjAddr: 0x1C114, symBinAddr: 0x10001DD68, symSize: 0x24 }
  - { offsetInCU: 0x33A37, offset: 0x33A37, size: 0x8, addend: 0x0, symName: __ZNSt3__122__compressed_pair_elemIPNS_5arrayImLm1EEELi0ELb0EE5__getB7v160006Ev, symObjAddr: 0x1C138, symBinAddr: 0x10001DD8C, symSize: 0x14 }
  - { offsetInCU: 0x33A5C, offset: 0x33A5C, size: 0x8, addend: 0x0, symName: __ZNKSt3__16vectorINS_5arrayImLm1EEENS_9allocatorIS2_EEE31__annotate_contiguous_containerEPKvS7_S7_S7_, symObjAddr: 0x1C14C, symBinAddr: 0x10001DDA0, symSize: 0x58 }
  - { offsetInCU: 0x33ABD, offset: 0x33ABD, size: 0x8, addend: 0x0, symName: __ZNKSt3__16vectorINS_5arrayImLm1EEENS_9allocatorIS2_EEE4dataB7v160006Ev, symObjAddr: 0x1C1A4, symBinAddr: 0x10001DDF8, symSize: 0x64 }
  - { offsetInCU: 0x33AE2, offset: 0x33AE2, size: 0x8, addend: 0x0, symName: __ZNKSt3__16vectorINS_5arrayImLm1EEENS_9allocatorIS2_EEE8capacityB7v160006Ev, symObjAddr: 0x1C208, symBinAddr: 0x10001DE5C, symSize: 0xBC }
  - { offsetInCU: 0x33B07, offset: 0x33B07, size: 0x8, addend: 0x0, symName: __ZNKSt3__16vectorINS_5arrayImLm1EEENS_9allocatorIS2_EEE9__end_capB7v160006Ev, symObjAddr: 0x1C2D8, symBinAddr: 0x10001DF2C, symSize: 0x28 }
  - { offsetInCU: 0x33B2C, offset: 0x33B2C, size: 0x8, addend: 0x0, symName: __ZNKSt3__117__compressed_pairIPNS_5arrayImLm1EEENS_9allocatorIS2_EEE5firstB7v160006Ev, symObjAddr: 0x1C300, symBinAddr: 0x10001DF54, symSize: 0x24 }
  - { offsetInCU: 0x33B51, offset: 0x33B51, size: 0x8, addend: 0x0, symName: __ZNKSt3__122__compressed_pair_elemIPNS_5arrayImLm1EEELi0ELb0EE5__getB7v160006Ev, symObjAddr: 0x1C324, symBinAddr: 0x10001DF78, symSize: 0x14 }
  - { offsetInCU: 0x33B8F, offset: 0x33B8F, size: 0x8, addend: 0x0, symName: __ZNSt3__16vectorINS_5arrayImLm1EEENS_9allocatorIS2_EEE21_ConstructTransactionC1B7v160006ERS5_m, symObjAddr: 0x1C338, symBinAddr: 0x10001DF8C, symSize: 0x3C }
  - { offsetInCU: 0x33BD6, offset: 0x33BD6, size: 0x8, addend: 0x0, symName: __ZNSt3__16vectorINS_5arrayImLm1EEENS_9allocatorIS2_EEE21_ConstructTransactionD1B7v160006Ev, symObjAddr: 0x1C3AC, symBinAddr: 0x10001E000, symSize: 0x2C }
  - { offsetInCU: 0x33BFF, offset: 0x33BFF, size: 0x8, addend: 0x0, symName: __ZNSt3__16vectorINS_5arrayImLm1EEENS_9allocatorIS2_EEE21_ConstructTransactionC2B7v160006ERS5_m, symObjAddr: 0x1C3D8, symBinAddr: 0x10001E02C, symSize: 0x1D0 }
  - { offsetInCU: 0x33C46, offset: 0x33C46, size: 0x8, addend: 0x0, symName: __ZNKSt3__16vectorINS_5arrayImLm1EEENS_9allocatorIS2_EEE19__annotate_increaseB7v160006Em, symObjAddr: 0x1C5A8, symBinAddr: 0x10001E1FC, symSize: 0xD8 }
  - { offsetInCU: 0x33C7A, offset: 0x33C7A, size: 0x8, addend: 0x0, symName: __ZNKSt3__16vectorINS_5arrayImLm1EEENS_9allocatorIS2_EEE4sizeB7v160006Ev, symObjAddr: 0x1C680, symBinAddr: 0x10001E2D4, symSize: 0xB0 }
  - { offsetInCU: 0x33CB8, offset: 0x33CB8, size: 0x8, addend: 0x0, symName: __ZNKSt3__114__copy_trivialclB7v160006IKNS_5arrayImLm1EEES3_Li0EEENS_4pairIPT_PT0_EES7_S7_S9_, symObjAddr: 0x1D5BC, symBinAddr: 0x10001F210, symSize: 0x230 }
  - { offsetInCU: 0x33D3C, offset: 0x33D3C, size: 0x8, addend: 0x0, symName: __ZNSt3__119__unwrap_range_implIPKNS_5arrayImLm1EEES4_E8__unwrapB7v160006ES4_S4_, symObjAddr: 0x1DA90, symBinAddr: 0x10001F6E4, symSize: 0x30C }
  - { offsetInCU: 0x33D74, offset: 0x33D74, size: 0x8, addend: 0x0, symName: __ZNSt3__14pairIPKNS_5arrayImLm1EEES4_EC1B7v160006IS4_S4_LPv0EEEOT_OT0_, symObjAddr: 0x1DDC0, symBinAddr: 0x10001FA14, symSize: 0x3C }
  - { offsetInCU: 0x33DD1, offset: 0x33DD1, size: 0x8, addend: 0x0, symName: __ZNSt3__118__unwrap_iter_implIPKNS_5arrayImLm1EEELb1EE8__unwrapB7v160006ES4_, symObjAddr: 0x1DDFC, symBinAddr: 0x10001FA50, symSize: 0x24 }
  - { offsetInCU: 0x33DF4, offset: 0x33DF4, size: 0x8, addend: 0x0, symName: __ZNSt3__14pairIPKNS_5arrayImLm1EEES4_EC2B7v160006IS4_S4_LPv0EEEOT_OT0_, symObjAddr: 0x1DE34, symBinAddr: 0x10001FA88, symSize: 0x138 }
  - { offsetInCU: 0x33E5B, offset: 0x33E5B, size: 0x8, addend: 0x0, symName: __ZNSt3__14pairIPKNS_5arrayImLm1EEEPS2_EC1B7v160006IRS4_S5_LPv0EEEOT_OT0_, symObjAddr: 0x1E530, symBinAddr: 0x100020184, symSize: 0x3C }
  - { offsetInCU: 0x33EB8, offset: 0x33EB8, size: 0x8, addend: 0x0, symName: __ZNSt3__14pairIPKNS_5arrayImLm1EEEPS2_EC2B7v160006IRS4_S5_LPv0EEEOT_OT0_, symObjAddr: 0x1E56C, symBinAddr: 0x1000201C0, symSize: 0x138 }
  - { offsetInCU: 0x33F15, offset: 0x33F15, size: 0x8, addend: 0x0, symName: __ZNSt3__118__unwrap_iter_implIPNS_5arrayImLm1EEELb1EE8__unwrapB7v160006ES3_, symObjAddr: 0x1E6A4, symBinAddr: 0x1000202F8, symSize: 0x24 }
  - { offsetInCU: 0x33F38, offset: 0x33F38, size: 0x8, addend: 0x0, symName: __ZNSt3__14pairIPKNS_5arrayImLm1EEEPS2_EC1B7v160006IS4_S5_LPv0EEEOT_OT0_, symObjAddr: 0x1E6C8, symBinAddr: 0x10002031C, symSize: 0x3C }
  - { offsetInCU: 0x33F95, offset: 0x33F95, size: 0x8, addend: 0x0, symName: __ZNSt3__14pairIPKNS_5arrayImLm1EEEPS2_EC2B7v160006IS4_S5_LPv0EEEOT_OT0_, symObjAddr: 0x1E704, symBinAddr: 0x100020358, symSize: 0x138 }
  - { offsetInCU: 0x33FF2, offset: 0x33FF2, size: 0x8, addend: 0x0, symName: __ZNSt3__119__unwrap_range_implIPKNS_5arrayImLm1EEES4_E8__rewrapB7v160006ES4_S4_, symObjAddr: 0x1E83C, symBinAddr: 0x100020490, symSize: 0x2C }
  - { offsetInCU: 0x34023, offset: 0x34023, size: 0x8, addend: 0x0, symName: __ZNSt3__118__unwrap_iter_implIPKNS_5arrayImLm1EEELb1EE8__rewrapB7v160006ES4_S4_, symObjAddr: 0x1E8B0, symBinAddr: 0x100020504, symSize: 0x50 }
  - { offsetInCU: 0x34054, offset: 0x34054, size: 0x8, addend: 0x0, symName: __ZNSt3__118__unwrap_iter_implIPNS_5arrayImLm1EEELb1EE8__rewrapB7v160006ES3_S3_, symObjAddr: 0x1E900, symBinAddr: 0x100020554, symSize: 0x50 }
  - { offsetInCU: 0x34085, offset: 0x34085, size: 0x8, addend: 0x0, symName: __ZNSt3__16vectorINS_5arrayImLm1EEENS_9allocatorIS2_EEE21_ConstructTransactionD2B7v160006Ev, symObjAddr: 0x1E950, symBinAddr: 0x1000205A4, symSize: 0x278 }
  - { offsetInCU: 0x340AE, offset: 0x340AE, size: 0x8, addend: 0x0, symName: __ZNKSt3__16vectorINS_5arrayImLm1EEENS_9allocatorIS2_EEE17__annotate_shrinkB7v160006Em, symObjAddr: 0x1EBC8, symBinAddr: 0x10002081C, symSize: 0xC8 }
  - { offsetInCU: 0x340E2, offset: 0x340E2, size: 0x8, addend: 0x0, symName: __ZNSt3__128__exception_guard_exceptionsINS_6vectorINS_5arrayImLm1EEENS_9allocatorIS3_EEE16__destroy_vectorEED2B7v160006Ev, symObjAddr: 0x1EC90, symBinAddr: 0x1000208E4, symSize: 0xBC }
  - { offsetInCU: 0x3410B, offset: 0x3410B, size: 0x8, addend: 0x0, symName: __ZNSt3__16vectorINS_5arrayImLm1EEENS_9allocatorIS2_EEE16__destroy_vectorclB7v160006Ev, symObjAddr: 0x1ED4C, symBinAddr: 0x1000209A0, symSize: 0x264 }
  - { offsetInCU: 0x34130, offset: 0x34130, size: 0x8, addend: 0x0, symName: __ZNKSt3__16vectorINS_5arrayImLm1EEENS_9allocatorIS2_EEE17__annotate_deleteB7v160006Ev, symObjAddr: 0x1EFB0, symBinAddr: 0x100020C04, symSize: 0xCC }
  - { offsetInCU: 0x34155, offset: 0x34155, size: 0x8, addend: 0x0, symName: __ZNSt3__16vectorINS_5arrayImLm1EEENS_9allocatorIS2_EEE7__clearB7v160006Ev, symObjAddr: 0x1F08C, symBinAddr: 0x100020CE0, symSize: 0x64 }
  - { offsetInCU: 0x3417A, offset: 0x3417A, size: 0x8, addend: 0x0, symName: __ZNSt3__116allocator_traitsINS_9allocatorINS_5arrayImLm1EEEEEE10deallocateB7v160006ERS4_PS3_m, symObjAddr: 0x1F0F0, symBinAddr: 0x100020D44, symSize: 0x34 }
  - { offsetInCU: 0x341BC, offset: 0x341BC, size: 0x8, addend: 0x0, symName: __ZNSt3__16vectorINS_5arrayImLm1EEENS_9allocatorIS2_EEE22__base_destruct_at_endB7v160006EPS2_, symObjAddr: 0x1F124, symBinAddr: 0x100020D78, symSize: 0x114 }
  - { offsetInCU: 0x341FF, offset: 0x341FF, size: 0x8, addend: 0x0, symName: __ZNSt3__116allocator_traitsINS_9allocatorINS_5arrayImLm1EEEEEE7destroyB7v160006IS3_vvEEvRS4_PT_, symObjAddr: 0x1F238, symBinAddr: 0x100020E8C, symSize: 0x28 }
  - { offsetInCU: 0x34239, offset: 0x34239, size: 0x8, addend: 0x0, symName: __ZNSt3__19allocatorINS_5arrayImLm1EEEE10deallocateB7v160006EPS2_m, symObjAddr: 0x1F294, symBinAddr: 0x100020EE8, symSize: 0x4C }
  - { offsetInCU: 0x3427A, offset: 0x3427A, size: 0x8, addend: 0x0, symName: __ZNSt3__16vectorINS_5arrayImLm1EEENS_9allocatorIS2_EEED2B7v160006Ev, symObjAddr: 0x1F2E0, symBinAddr: 0x100020F34, symSize: 0x1F8 }
  - { offsetInCU: 0x342A4, offset: 0x342A4, size: 0x8, addend: 0x0, symName: __ZNSt3__16vectorINS_5arrayImLm2EEENS_9allocatorIS2_EEEC2B7v160006Ev, symObjAddr: 0x1F4D8, symBinAddr: 0x10002112C, symSize: 0x2F0 }
  - { offsetInCU: 0x342CE, offset: 0x342CE, size: 0x8, addend: 0x0, symName: __ZN6CDummyC2Ec, symObjAddr: 0x1F7C8, symBinAddr: 0x10002141C, symSize: 0x94 }
  - { offsetInCU: 0x34305, offset: 0x34305, size: 0x8, addend: 0x0, symName: __ZN10CSelfMatchIiED2Ev, symObjAddr: 0x1F85C, symBinAddr: 0x1000214B0, symSize: 0x2C }
  - { offsetInCU: 0x34330, offset: 0x34330, size: 0x8, addend: 0x0, symName: __ZNSt3__16vectorIiNS_9allocatorIiEEED1B7v160006Ev, symObjAddr: 0x1F888, symBinAddr: 0x1000214DC, symSize: 0x2C }
  - { offsetInCU: 0x34359, offset: 0x34359, size: 0x8, addend: 0x0, symName: __ZNSt3__16vectorIiNS_9allocatorIiEEED2B7v160006Ev, symObjAddr: 0x1F8B4, symBinAddr: 0x100021508, symSize: 0x1F8 }
  - { offsetInCU: 0x34383, offset: 0x34383, size: 0x8, addend: 0x0, symName: __ZNSt3__16vectorIiNS_9allocatorIiEEE16__destroy_vectorC1ERS3_, symObjAddr: 0x1FAAC, symBinAddr: 0x100021700, symSize: 0x34 }
  - { offsetInCU: 0x343BB, offset: 0x343BB, size: 0x8, addend: 0x0, symName: __ZNSt3__16vectorIiNS_9allocatorIiEEE16__destroy_vectorclB7v160006Ev, symObjAddr: 0x1FAE0, symBinAddr: 0x100021734, symSize: 0x264 }
  - { offsetInCU: 0x343E0, offset: 0x343E0, size: 0x8, addend: 0x0, symName: __ZNSt3__16vectorIiNS_9allocatorIiEEE16__destroy_vectorC2ERS3_, symObjAddr: 0x1FD44, symBinAddr: 0x100021998, symSize: 0x70 }
  - { offsetInCU: 0x34418, offset: 0x34418, size: 0x8, addend: 0x0, symName: __ZNKSt3__16vectorIiNS_9allocatorIiEEE17__annotate_deleteB7v160006Ev, symObjAddr: 0x1FDB4, symBinAddr: 0x100021A08, symSize: 0xCC }
  - { offsetInCU: 0x3443D, offset: 0x3443D, size: 0x8, addend: 0x0, symName: __ZNSt3__16vectorIiNS_9allocatorIiEEE7__clearB7v160006Ev, symObjAddr: 0x1FE90, symBinAddr: 0x100021AE4, symSize: 0x64 }
  - { offsetInCU: 0x34462, offset: 0x34462, size: 0x8, addend: 0x0, symName: __ZNSt3__116allocator_traitsINS_9allocatorIiEEE10deallocateB7v160006ERS2_Pim, symObjAddr: 0x1FEF4, symBinAddr: 0x100021B48, symSize: 0x34 }
  - { offsetInCU: 0x344A4, offset: 0x344A4, size: 0x8, addend: 0x0, symName: __ZNSt3__16vectorIiNS_9allocatorIiEEE7__allocB7v160006Ev, symObjAddr: 0x1FF28, symBinAddr: 0x100021B7C, symSize: 0x28 }
  - { offsetInCU: 0x344C9, offset: 0x344C9, size: 0x8, addend: 0x0, symName: __ZNKSt3__16vectorIiNS_9allocatorIiEEE8capacityB7v160006Ev, symObjAddr: 0x1FF50, symBinAddr: 0x100021BA4, symSize: 0xBC }
  - { offsetInCU: 0x344EE, offset: 0x344EE, size: 0x8, addend: 0x0, symName: __ZNKSt3__16vectorIiNS_9allocatorIiEEE31__annotate_contiguous_containerEPKvS5_S5_S5_, symObjAddr: 0x2000C, symBinAddr: 0x100021C60, symSize: 0x58 }
  - { offsetInCU: 0x3454F, offset: 0x3454F, size: 0x8, addend: 0x0, symName: __ZNKSt3__16vectorIiNS_9allocatorIiEEE4dataB7v160006Ev, symObjAddr: 0x20064, symBinAddr: 0x100021CB8, symSize: 0x64 }
  - { offsetInCU: 0x34574, offset: 0x34574, size: 0x8, addend: 0x0, symName: __ZNKSt3__16vectorIiNS_9allocatorIiEEE4sizeB7v160006Ev, symObjAddr: 0x200C8, symBinAddr: 0x100021D1C, symSize: 0xB0 }
  - { offsetInCU: 0x34599, offset: 0x34599, size: 0x8, addend: 0x0, symName: __ZNSt3__16vectorIiNS_9allocatorIiEEE22__base_destruct_at_endB7v160006EPi, symObjAddr: 0x2018C, symBinAddr: 0x100021DE0, symSize: 0x114 }
  - { offsetInCU: 0x345DC, offset: 0x345DC, size: 0x8, addend: 0x0, symName: __ZNSt3__116allocator_traitsINS_9allocatorIiEEE7destroyB7v160006IivvEEvRS2_PT_, symObjAddr: 0x202A0, symBinAddr: 0x100021EF4, symSize: 0x28 }
  - { offsetInCU: 0x34616, offset: 0x34616, size: 0x8, addend: 0x0, symName: __ZNSt3__19allocatorIiE10deallocateB7v160006EPim, symObjAddr: 0x202FC, symBinAddr: 0x100021F50, symSize: 0x4C }
  - { offsetInCU: 0x34657, offset: 0x34657, size: 0x8, addend: 0x0, symName: __ZNSt3__117__compressed_pairIPiNS_9allocatorIiEEE6secondB7v160006Ev, symObjAddr: 0x20348, symBinAddr: 0x100021F9C, symSize: 0x24 }
  - { offsetInCU: 0x3467C, offset: 0x3467C, size: 0x8, addend: 0x0, symName: __ZNSt3__122__compressed_pair_elemINS_9allocatorIiEELi1ELb1EE5__getB7v160006Ev, symObjAddr: 0x2036C, symBinAddr: 0x100021FC0, symSize: 0x14 }
  - { offsetInCU: 0x346A1, offset: 0x346A1, size: 0x8, addend: 0x0, symName: __ZNKSt3__16vectorIiNS_9allocatorIiEEE9__end_capB7v160006Ev, symObjAddr: 0x20380, symBinAddr: 0x100021FD4, symSize: 0x28 }
  - { offsetInCU: 0x346C6, offset: 0x346C6, size: 0x8, addend: 0x0, symName: __ZNKSt3__117__compressed_pairIPiNS_9allocatorIiEEE5firstB7v160006Ev, symObjAddr: 0x203A8, symBinAddr: 0x100021FFC, symSize: 0x24 }
  - { offsetInCU: 0x346EB, offset: 0x346EB, size: 0x8, addend: 0x0, symName: __ZNKSt3__122__compressed_pair_elemIPiLi0ELb0EE5__getB7v160006Ev, symObjAddr: 0x203CC, symBinAddr: 0x100022020, symSize: 0x14 }
  - { offsetInCU: 0x34710, offset: 0x34710, size: 0x8, addend: 0x0, symName: __ZN10CSelfMatchI6CDummyED2Ev, symObjAddr: 0x203E0, symBinAddr: 0x100022034, symSize: 0x2C }
  - { offsetInCU: 0x3473B, offset: 0x3473B, size: 0x8, addend: 0x0, symName: __ZNSt3__16vectorI6CDummyNS_9allocatorIS1_EEED1B7v160006Ev, symObjAddr: 0x2040C, symBinAddr: 0x100022060, symSize: 0x2C }
  - { offsetInCU: 0x34764, offset: 0x34764, size: 0x8, addend: 0x0, symName: __ZNSt3__16vectorI6CDummyNS_9allocatorIS1_EEED2B7v160006Ev, symObjAddr: 0x20438, symBinAddr: 0x10002208C, symSize: 0x1F8 }
  - { offsetInCU: 0x3478E, offset: 0x3478E, size: 0x8, addend: 0x0, symName: __ZNSt3__16vectorI6CDummyNS_9allocatorIS1_EEE16__destroy_vectorC1ERS4_, symObjAddr: 0x20630, symBinAddr: 0x100022284, symSize: 0x34 }
  - { offsetInCU: 0x347C6, offset: 0x347C6, size: 0x8, addend: 0x0, symName: __ZNSt3__16vectorI6CDummyNS_9allocatorIS1_EEE16__destroy_vectorclB7v160006Ev, symObjAddr: 0x20664, symBinAddr: 0x1000222B8, symSize: 0x264 }
  - { offsetInCU: 0x347EB, offset: 0x347EB, size: 0x8, addend: 0x0, symName: __ZNSt3__16vectorI6CDummyNS_9allocatorIS1_EEE16__destroy_vectorC2ERS4_, symObjAddr: 0x208C8, symBinAddr: 0x10002251C, symSize: 0x70 }
  - { offsetInCU: 0x34823, offset: 0x34823, size: 0x8, addend: 0x0, symName: __ZNKSt3__16vectorI6CDummyNS_9allocatorIS1_EEE17__annotate_deleteB7v160006Ev, symObjAddr: 0x20938, symBinAddr: 0x10002258C, symSize: 0xCC }
  - { offsetInCU: 0x34848, offset: 0x34848, size: 0x8, addend: 0x0, symName: __ZNSt3__16vectorI6CDummyNS_9allocatorIS1_EEE7__clearB7v160006Ev, symObjAddr: 0x20A14, symBinAddr: 0x100022668, symSize: 0x64 }
  - { offsetInCU: 0x3486D, offset: 0x3486D, size: 0x8, addend: 0x0, symName: __ZNSt3__116allocator_traitsINS_9allocatorI6CDummyEEE10deallocateB7v160006ERS3_PS2_m, symObjAddr: 0x20A78, symBinAddr: 0x1000226CC, symSize: 0x34 }
  - { offsetInCU: 0x348AF, offset: 0x348AF, size: 0x8, addend: 0x0, symName: __ZNSt3__16vectorI6CDummyNS_9allocatorIS1_EEE7__allocB7v160006Ev, symObjAddr: 0x20AAC, symBinAddr: 0x100022700, symSize: 0x28 }
  - { offsetInCU: 0x348D4, offset: 0x348D4, size: 0x8, addend: 0x0, symName: __ZNKSt3__16vectorI6CDummyNS_9allocatorIS1_EEE8capacityB7v160006Ev, symObjAddr: 0x20AD4, symBinAddr: 0x100022728, symSize: 0xB4 }
  - { offsetInCU: 0x348F9, offset: 0x348F9, size: 0x8, addend: 0x0, symName: __ZNKSt3__16vectorI6CDummyNS_9allocatorIS1_EEE31__annotate_contiguous_containerEPKvS6_S6_S6_, symObjAddr: 0x20B88, symBinAddr: 0x1000227DC, symSize: 0x58 }
  - { offsetInCU: 0x3495A, offset: 0x3495A, size: 0x8, addend: 0x0, symName: __ZNKSt3__16vectorI6CDummyNS_9allocatorIS1_EEE4dataB7v160006Ev, symObjAddr: 0x20BE0, symBinAddr: 0x100022834, symSize: 0x64 }
  - { offsetInCU: 0x3497F, offset: 0x3497F, size: 0x8, addend: 0x0, symName: __ZNKSt3__16vectorI6CDummyNS_9allocatorIS1_EEE4sizeB7v160006Ev, symObjAddr: 0x20C44, symBinAddr: 0x100022898, symSize: 0xA8 }
  - { offsetInCU: 0x349A4, offset: 0x349A4, size: 0x8, addend: 0x0, symName: __ZNSt3__16vectorI6CDummyNS_9allocatorIS1_EEE22__base_destruct_at_endB7v160006EPS1_, symObjAddr: 0x20D00, symBinAddr: 0x100022954, symSize: 0x114 }
  - { offsetInCU: 0x349E7, offset: 0x349E7, size: 0x8, addend: 0x0, symName: __ZNSt3__116allocator_traitsINS_9allocatorI6CDummyEEE7destroyB7v160006IS2_vvEEvRS3_PT_, symObjAddr: 0x20E14, symBinAddr: 0x100022A68, symSize: 0x28 }
  - { offsetInCU: 0x34A21, offset: 0x34A21, size: 0x8, addend: 0x0, symName: __ZNSt3__19allocatorI6CDummyE10deallocateB7v160006EPS1_m, symObjAddr: 0x20E70, symBinAddr: 0x100022AC4, symSize: 0x4C }
  - { offsetInCU: 0x34A62, offset: 0x34A62, size: 0x8, addend: 0x0, symName: __ZNSt3__117__compressed_pairIP6CDummyNS_9allocatorIS1_EEE6secondB7v160006Ev, symObjAddr: 0x20EBC, symBinAddr: 0x100022B10, symSize: 0x24 }
  - { offsetInCU: 0x34A87, offset: 0x34A87, size: 0x8, addend: 0x0, symName: __ZNSt3__122__compressed_pair_elemINS_9allocatorI6CDummyEELi1ELb1EE5__getB7v160006Ev, symObjAddr: 0x20EE0, symBinAddr: 0x100022B34, symSize: 0x14 }
  - { offsetInCU: 0x34AAC, offset: 0x34AAC, size: 0x8, addend: 0x0, symName: __ZNKSt3__16vectorI6CDummyNS_9allocatorIS1_EEE9__end_capB7v160006Ev, symObjAddr: 0x20EF4, symBinAddr: 0x100022B48, symSize: 0x28 }
  - { offsetInCU: 0x34AD1, offset: 0x34AD1, size: 0x8, addend: 0x0, symName: __ZNKSt3__117__compressed_pairIP6CDummyNS_9allocatorIS1_EEE5firstB7v160006Ev, symObjAddr: 0x20F1C, symBinAddr: 0x100022B70, symSize: 0x24 }
  - { offsetInCU: 0x34AF6, offset: 0x34AF6, size: 0x8, addend: 0x0, symName: __ZNKSt3__122__compressed_pair_elemIP6CDummyLi0ELb0EE5__getB7v160006Ev, symObjAddr: 0x20F40, symBinAddr: 0x100022B94, symSize: 0x14 }
  - { offsetInCU: 0x34B1B, offset: 0x34B1B, size: 0x8, addend: 0x0, symName: __ZN10CSelfMatchIcED2Ev, symObjAddr: 0x20F54, symBinAddr: 0x100022BA8, symSize: 0x2C }
  - { offsetInCU: 0x34B46, offset: 0x34B46, size: 0x8, addend: 0x0, symName: __ZNSt3__16vectorIcNS_9allocatorIcEEED1B7v160006Ev, symObjAddr: 0x20F80, symBinAddr: 0x100022BD4, symSize: 0x2C }
  - { offsetInCU: 0x34B6F, offset: 0x34B6F, size: 0x8, addend: 0x0, symName: __ZNSt3__16vectorIcNS_9allocatorIcEEED2B7v160006Ev, symObjAddr: 0x20FAC, symBinAddr: 0x100022C00, symSize: 0x1F8 }
  - { offsetInCU: 0x34B99, offset: 0x34B99, size: 0x8, addend: 0x0, symName: __ZNSt3__16vectorIcNS_9allocatorIcEEE16__destroy_vectorC1ERS3_, symObjAddr: 0x211A4, symBinAddr: 0x100022DF8, symSize: 0x34 }
  - { offsetInCU: 0x34BD1, offset: 0x34BD1, size: 0x8, addend: 0x0, symName: __ZNSt3__16vectorIcNS_9allocatorIcEEE16__destroy_vectorclB7v160006Ev, symObjAddr: 0x211D8, symBinAddr: 0x100022E2C, symSize: 0x264 }
  - { offsetInCU: 0x34BF6, offset: 0x34BF6, size: 0x8, addend: 0x0, symName: __ZNSt3__16vectorIcNS_9allocatorIcEEE16__destroy_vectorC2ERS3_, symObjAddr: 0x2143C, symBinAddr: 0x100023090, symSize: 0x70 }
  - { offsetInCU: 0x34C2E, offset: 0x34C2E, size: 0x8, addend: 0x0, symName: __ZNKSt3__16vectorIcNS_9allocatorIcEEE17__annotate_deleteB7v160006Ev, symObjAddr: 0x214AC, symBinAddr: 0x100023100, symSize: 0xCC }
  - { offsetInCU: 0x34C53, offset: 0x34C53, size: 0x8, addend: 0x0, symName: __ZNSt3__16vectorIcNS_9allocatorIcEEE7__clearB7v160006Ev, symObjAddr: 0x21588, symBinAddr: 0x1000231DC, symSize: 0x64 }
  - { offsetInCU: 0x34C78, offset: 0x34C78, size: 0x8, addend: 0x0, symName: __ZNSt3__116allocator_traitsINS_9allocatorIcEEE10deallocateB7v160006ERS2_Pcm, symObjAddr: 0x215EC, symBinAddr: 0x100023240, symSize: 0x34 }
  - { offsetInCU: 0x34CBA, offset: 0x34CBA, size: 0x8, addend: 0x0, symName: __ZNSt3__16vectorIcNS_9allocatorIcEEE7__allocB7v160006Ev, symObjAddr: 0x21620, symBinAddr: 0x100023274, symSize: 0x28 }
  - { offsetInCU: 0x34CDF, offset: 0x34CDF, size: 0x8, addend: 0x0, symName: __ZNKSt3__16vectorIcNS_9allocatorIcEEE8capacityB7v160006Ev, symObjAddr: 0x21648, symBinAddr: 0x10002329C, symSize: 0xB4 }
  - { offsetInCU: 0x34D04, offset: 0x34D04, size: 0x8, addend: 0x0, symName: __ZNKSt3__16vectorIcNS_9allocatorIcEEE31__annotate_contiguous_containerEPKvS5_S5_S5_, symObjAddr: 0x216FC, symBinAddr: 0x100023350, symSize: 0x58 }
  - { offsetInCU: 0x34D65, offset: 0x34D65, size: 0x8, addend: 0x0, symName: __ZNKSt3__16vectorIcNS_9allocatorIcEEE4dataB7v160006Ev, symObjAddr: 0x21754, symBinAddr: 0x1000233A8, symSize: 0x64 }
  - { offsetInCU: 0x34D8A, offset: 0x34D8A, size: 0x8, addend: 0x0, symName: __ZNKSt3__16vectorIcNS_9allocatorIcEEE4sizeB7v160006Ev, symObjAddr: 0x217B8, symBinAddr: 0x10002340C, symSize: 0xA8 }
  - { offsetInCU: 0x34DAF, offset: 0x34DAF, size: 0x8, addend: 0x0, symName: __ZNSt3__16vectorIcNS_9allocatorIcEEE22__base_destruct_at_endB7v160006EPc, symObjAddr: 0x21874, symBinAddr: 0x1000234C8, symSize: 0x114 }
  - { offsetInCU: 0x34DF2, offset: 0x34DF2, size: 0x8, addend: 0x0, symName: __ZNSt3__116allocator_traitsINS_9allocatorIcEEE7destroyB7v160006IcvvEEvRS2_PT_, symObjAddr: 0x21988, symBinAddr: 0x1000235DC, symSize: 0x28 }
  - { offsetInCU: 0x34E2C, offset: 0x34E2C, size: 0x8, addend: 0x0, symName: __ZNSt3__19allocatorIcE10deallocateB7v160006EPcm, symObjAddr: 0x219E4, symBinAddr: 0x100023638, symSize: 0x4C }
  - { offsetInCU: 0x34E6D, offset: 0x34E6D, size: 0x8, addend: 0x0, symName: __ZNSt3__117__compressed_pairIPcNS_9allocatorIcEEE6secondB7v160006Ev, symObjAddr: 0x21A30, symBinAddr: 0x100023684, symSize: 0x24 }
  - { offsetInCU: 0x34E92, offset: 0x34E92, size: 0x8, addend: 0x0, symName: __ZNSt3__122__compressed_pair_elemINS_9allocatorIcEELi1ELb1EE5__getB7v160006Ev, symObjAddr: 0x21A54, symBinAddr: 0x1000236A8, symSize: 0x14 }
  - { offsetInCU: 0x34EB7, offset: 0x34EB7, size: 0x8, addend: 0x0, symName: __ZNKSt3__16vectorIcNS_9allocatorIcEEE9__end_capB7v160006Ev, symObjAddr: 0x21A68, symBinAddr: 0x1000236BC, symSize: 0x28 }
  - { offsetInCU: 0x34EDC, offset: 0x34EDC, size: 0x8, addend: 0x0, symName: __ZNKSt3__117__compressed_pairIPcNS_9allocatorIcEEE5firstB7v160006Ev, symObjAddr: 0x21A90, symBinAddr: 0x1000236E4, symSize: 0x24 }
  - { offsetInCU: 0x34F01, offset: 0x34F01, size: 0x8, addend: 0x0, symName: __ZNKSt3__122__compressed_pair_elemIPcLi0ELb0EE5__getB7v160006Ev, symObjAddr: 0x21AB4, symBinAddr: 0x100023708, symSize: 0x14 }
  - { offsetInCU: 0x34F26, offset: 0x34F26, size: 0x8, addend: 0x0, symName: __ZN10CSelfMatchIcEC2INSt3__112basic_stringIcNS2_11char_traitsIcEENS2_9allocatorIcEEEEEERKT_, symObjAddr: 0x21AC8, symBinAddr: 0x10002371C, symSize: 0x310 }
  - { offsetInCU: 0x34F68, offset: 0x34F68, size: 0x8, addend: 0x0, symName: __ZNSt3__16vectorIcNS_9allocatorIcEEEC1INS_11__wrap_iterIPKcEELi0EEET_S9_, symObjAddr: 0x22240, symBinAddr: 0x100023E94, symSize: 0x2FC }
  - { offsetInCU: 0x34FC9, offset: 0x34FC9, size: 0x8, addend: 0x0, symName: __ZNKSt3__112basic_stringIcNS_11char_traitsIcEENS_9allocatorIcEEE5beginB7v160006Ev, symObjAddr: 0x2253C, symBinAddr: 0x100024190, symSize: 0x258 }
  - { offsetInCU: 0x34FEF, offset: 0x34FEF, size: 0x8, addend: 0x0, symName: __ZNKSt3__112basic_stringIcNS_11char_traitsIcEENS_9allocatorIcEEE21__make_const_iteratorB7v160006EPKc, symObjAddr: 0x22794, symBinAddr: 0x1000243E8, symSize: 0x200 }
  - { offsetInCU: 0x35025, offset: 0x35025, size: 0x8, addend: 0x0, symName: __ZNKSt3__112basic_stringIcNS_11char_traitsIcEENS_9allocatorIcEEE13__get_pointerB7v160006Ev, symObjAddr: 0x22994, symBinAddr: 0x1000245E8, symSize: 0x54 }
  - { offsetInCU: 0x3504A, offset: 0x3504A, size: 0x8, addend: 0x0, symName: __ZNSt3__111__wrap_iterIPKcEC1B7v160006EPKvS2_, symObjAddr: 0x229E8, symBinAddr: 0x10002463C, symSize: 0x3C }
  - { offsetInCU: 0x3508F, offset: 0x3508F, size: 0x8, addend: 0x0, symName: __ZNSt3__111__wrap_iterIPKcEC2B7v160006EPKvS2_, symObjAddr: 0x22A24, symBinAddr: 0x100024678, symSize: 0x74 }
  - { offsetInCU: 0x350D4, offset: 0x350D4, size: 0x8, addend: 0x0, symName: __ZNKSt3__112basic_stringIcNS_11char_traitsIcEENS_9allocatorIcEEE9__is_longB7v160006Ev, symObjAddr: 0x22A98, symBinAddr: 0x1000246EC, symSize: 0xA4 }
  - { offsetInCU: 0x350F9, offset: 0x350F9, size: 0x8, addend: 0x0, symName: __ZNKSt3__112basic_stringIcNS_11char_traitsIcEENS_9allocatorIcEEE18__get_long_pointerB7v160006Ev, symObjAddr: 0x22B3C, symBinAddr: 0x100024790, symSize: 0x6C }
  - { offsetInCU: 0x3511E, offset: 0x3511E, size: 0x8, addend: 0x0, symName: __ZNKSt3__112basic_stringIcNS_11char_traitsIcEENS_9allocatorIcEEE19__get_short_pointerB7v160006Ev, symObjAddr: 0x22BA8, symBinAddr: 0x1000247FC, symSize: 0x28 }
  - { offsetInCU: 0x35143, offset: 0x35143, size: 0x8, addend: 0x0, symName: __ZNKSt3__117__compressed_pairINS_12basic_stringIcNS_11char_traitsIcEENS_9allocatorIcEEE5__repES5_E5firstB7v160006Ev, symObjAddr: 0x22BD0, symBinAddr: 0x100024824, symSize: 0x24 }
  - { offsetInCU: 0x35168, offset: 0x35168, size: 0x8, addend: 0x0, symName: __ZNKSt3__122__compressed_pair_elemINS_12basic_stringIcNS_11char_traitsIcEENS_9allocatorIcEEE5__repELi0ELb0EE5__getB7v160006Ev, symObjAddr: 0x22BF4, symBinAddr: 0x100024848, symSize: 0x14 }
  - { offsetInCU: 0x3518D, offset: 0x3518D, size: 0x8, addend: 0x0, symName: __ZNSt3__114pointer_traitsIPKcE10pointer_toB7v160006ERS1_, symObjAddr: 0x22C08, symBinAddr: 0x10002485C, symSize: 0x14 }
  - { offsetInCU: 0x351B0, offset: 0x351B0, size: 0x8, addend: 0x0, symName: __ZNKSt3__112basic_stringIcNS_11char_traitsIcEENS_9allocatorIcEEE3endB7v160006Ev, symObjAddr: 0x22C1C, symBinAddr: 0x100024870, symSize: 0x25C }
  - { offsetInCU: 0x351D6, offset: 0x351D6, size: 0x8, addend: 0x0, symName: __ZNKSt3__112basic_stringIcNS_11char_traitsIcEENS_9allocatorIcEEE4sizeB7v160006Ev, symObjAddr: 0x22E78, symBinAddr: 0x100024ACC, symSize: 0x54 }
  - { offsetInCU: 0x351FB, offset: 0x351FB, size: 0x8, addend: 0x0, symName: __ZNKSt3__112basic_stringIcNS_11char_traitsIcEENS_9allocatorIcEEE15__get_long_sizeB7v160006Ev, symObjAddr: 0x22ECC, symBinAddr: 0x100024B20, symSize: 0x70 }
  - { offsetInCU: 0x35220, offset: 0x35220, size: 0x8, addend: 0x0, symName: __ZNKSt3__112basic_stringIcNS_11char_traitsIcEENS_9allocatorIcEEE16__get_short_sizeB7v160006Ev, symObjAddr: 0x22F3C, symBinAddr: 0x100024B90, symSize: 0xA0 }
  - { offsetInCU: 0x35245, offset: 0x35245, size: 0x8, addend: 0x0, symName: __ZNSt3__16vectorIcNS_9allocatorIcEEEC2INS_11__wrap_iterIPKcEELi0EEET_S9_, symObjAddr: 0x22FDC, symBinAddr: 0x100024C30, symSize: 0x700 }
  - { offsetInCU: 0x352D0, offset: 0x352D0, size: 0x8, addend: 0x0, symName: __ZNSt3__117__compressed_pairIPcNS_9allocatorIcEEEC1B7v160006IDnNS_18__default_init_tagEEEOT_OT0_, symObjAddr: 0x236DC, symBinAddr: 0x100025330, symSize: 0x3C }
  - { offsetInCU: 0x35327, offset: 0x35327, size: 0x8, addend: 0x0, symName: __ZNSt3__16vectorIcNS_9allocatorIcEEE11__vallocateB7v160006Em, symObjAddr: 0x23CF0, symBinAddr: 0x100025944, symSize: 0x420 }
  - { offsetInCU: 0x3536F, offset: 0x3536F, size: 0x8, addend: 0x0, symName: __ZNSt3__16vectorIcNS_9allocatorIcEEE18__construct_at_endINS_11__wrap_iterIPKcEELi0EEEvT_S9_m, symObjAddr: 0x24110, symBinAddr: 0x100025D64, symSize: 0x548 }
  - { offsetInCU: 0x353EF, offset: 0x353EF, size: 0x8, addend: 0x0, symName: __ZNSt3__128__exception_guard_exceptionsINS_6vectorIcNS_9allocatorIcEEE16__destroy_vectorEE10__completeB7v160006Ev, symObjAddr: 0x24658, symBinAddr: 0x1000262AC, symSize: 0x8C }
  - { offsetInCU: 0x35414, offset: 0x35414, size: 0x8, addend: 0x0, symName: __ZNSt3__128__exception_guard_exceptionsINS_6vectorIcNS_9allocatorIcEEE16__destroy_vectorEED1B7v160006Ev, symObjAddr: 0x246E4, symBinAddr: 0x100026338, symSize: 0x2C }
  - { offsetInCU: 0x3543D, offset: 0x3543D, size: 0x8, addend: 0x0, symName: __ZNSt3__117__compressed_pairIPcNS_9allocatorIcEEEC2B7v160006IDnNS_18__default_init_tagEEEOT_OT0_, symObjAddr: 0x24710, symBinAddr: 0x100026364, symSize: 0x40 }
  - { offsetInCU: 0x35494, offset: 0x35494, size: 0x8, addend: 0x0, symName: __ZNSt3__122__compressed_pair_elemIPcLi0ELb0EEC2B7v160006IDnvEEOT_, symObjAddr: 0x24750, symBinAddr: 0x1000263A4, symSize: 0x64 }
  - { offsetInCU: 0x354D5, offset: 0x354D5, size: 0x8, addend: 0x0, symName: __ZNSt3__128__exception_guard_exceptionsINS_6vectorIcNS_9allocatorIcEEE16__destroy_vectorEEC1B7v160006ES5_, symObjAddr: 0x247B4, symBinAddr: 0x100026408, symSize: 0x238 }
  - { offsetInCU: 0x35511, offset: 0x35511, size: 0x8, addend: 0x0, symName: __ZNSt3__128__exception_guard_exceptionsINS_6vectorIcNS_9allocatorIcEEE16__destroy_vectorEEC2B7v160006ES5_, symObjAddr: 0x249EC, symBinAddr: 0x100026640, symSize: 0x264 }
  - { offsetInCU: 0x3554D, offset: 0x3554D, size: 0x8, addend: 0x0, symName: __ZNKSt3__111__wrap_iterIPKcE4baseB7v160006Ev, symObjAddr: 0x24F04, symBinAddr: 0x100026B58, symSize: 0x60 }
  - { offsetInCU: 0x35571, offset: 0x35571, size: 0x8, addend: 0x0, symName: __ZNKSt3__16vectorIcNS_9allocatorIcEEE8max_sizeEv, symObjAddr: 0x24F64, symBinAddr: 0x100026BB8, symSize: 0x2FC }
  - { offsetInCU: 0x35599, offset: 0x35599, size: 0x8, addend: 0x0, symName: __ZNKSt3__16vectorIcNS_9allocatorIcEEE20__throw_length_errorB7v160006Ev, symObjAddr: 0x25260, symBinAddr: 0x100026EB4, symSize: 0x20 }
  - { offsetInCU: 0x355BE, offset: 0x355BE, size: 0x8, addend: 0x0, symName: __ZNSt3__16vectorIcNS_9allocatorIcEEE9__end_capB7v160006Ev, symObjAddr: 0x2550C, symBinAddr: 0x100027160, symSize: 0x28 }
  - { offsetInCU: 0x355E3, offset: 0x355E3, size: 0x8, addend: 0x0, symName: __ZNKSt3__16vectorIcNS_9allocatorIcEEE14__annotate_newB7v160006Em, symObjAddr: 0x25534, symBinAddr: 0x100027188, symSize: 0xC0 }
  - { offsetInCU: 0x35621, offset: 0x35621, size: 0x8, addend: 0x0, symName: __ZNSt3__116allocator_traitsINS_9allocatorIcEEE8max_sizeB7v160006IS2_vvEEmRKS2_, symObjAddr: 0x255F4, symBinAddr: 0x100027248, symSize: 0x28 }
  - { offsetInCU: 0x3564C, offset: 0x3564C, size: 0x8, addend: 0x0, symName: __ZNKSt3__16vectorIcNS_9allocatorIcEEE7__allocB7v160006Ev, symObjAddr: 0x2561C, symBinAddr: 0x100027270, symSize: 0x28 }
  - { offsetInCU: 0x35671, offset: 0x35671, size: 0x8, addend: 0x0, symName: __ZNKSt3__117__compressed_pairIPcNS_9allocatorIcEEE6secondB7v160006Ev, symObjAddr: 0x25644, symBinAddr: 0x100027298, symSize: 0x24 }
  - { offsetInCU: 0x35696, offset: 0x35696, size: 0x8, addend: 0x0, symName: __ZNKSt3__122__compressed_pair_elemINS_9allocatorIcEELi1ELb1EE5__getB7v160006Ev, symObjAddr: 0x25668, symBinAddr: 0x1000272BC, symSize: 0x14 }
  - { offsetInCU: 0x356BB, offset: 0x356BB, size: 0x8, addend: 0x0, symName: __ZNSt3__19allocatorIcE8allocateB7v160006Em, symObjAddr: 0x2567C, symBinAddr: 0x1000272D0, symSize: 0x5C }
  - { offsetInCU: 0x356EE, offset: 0x356EE, size: 0x8, addend: 0x0, symName: __ZNSt3__117__compressed_pairIPcNS_9allocatorIcEEE5firstB7v160006Ev, symObjAddr: 0x256D8, symBinAddr: 0x10002732C, symSize: 0x24 }
  - { offsetInCU: 0x35713, offset: 0x35713, size: 0x8, addend: 0x0, symName: __ZNSt3__122__compressed_pair_elemIPcLi0ELb0EE5__getB7v160006Ev, symObjAddr: 0x256FC, symBinAddr: 0x100027350, symSize: 0x14 }
  - { offsetInCU: 0x35751, offset: 0x35751, size: 0x8, addend: 0x0, symName: __ZNSt3__16vectorIcNS_9allocatorIcEEE21_ConstructTransactionC1B7v160006ERS3_m, symObjAddr: 0x25710, symBinAddr: 0x100027364, symSize: 0x3C }
  - { offsetInCU: 0x35798, offset: 0x35798, size: 0x8, addend: 0x0, symName: __ZNSt3__16vectorIcNS_9allocatorIcEEE21_ConstructTransactionD1B7v160006Ev, symObjAddr: 0x25D08, symBinAddr: 0x10002795C, symSize: 0x2C }
  - { offsetInCU: 0x357C1, offset: 0x357C1, size: 0x8, addend: 0x0, symName: __ZNSt3__16vectorIcNS_9allocatorIcEEE21_ConstructTransactionC2B7v160006ERS3_m, symObjAddr: 0x25D34, symBinAddr: 0x100027988, symSize: 0x1D0 }
  - { offsetInCU: 0x35808, offset: 0x35808, size: 0x8, addend: 0x0, symName: __ZNKSt3__16vectorIcNS_9allocatorIcEEE19__annotate_increaseB7v160006Em, symObjAddr: 0x25F04, symBinAddr: 0x100027B58, symSize: 0xD8 }
  - { offsetInCU: 0x3583C, offset: 0x3583C, size: 0x8, addend: 0x0, symName: __ZNSt3__129_AllocatorDestroyRangeReverseINS_9allocatorIcEEPcEC1B7v160006ERS2_RS3_S6_, symObjAddr: 0x261D4, symBinAddr: 0x100027E28, symSize: 0x44 }
  - { offsetInCU: 0x35892, offset: 0x35892, size: 0x8, addend: 0x0, symName: __ZNSt3__116allocator_traitsINS_9allocatorIcEEE9constructB7v160006IcJRKcEvvEEvRS2_PT_DpOT0_, symObjAddr: 0x2624C, symBinAddr: 0x100027EA0, symSize: 0x30 }
  - { offsetInCU: 0x358E6, offset: 0x358E6, size: 0x8, addend: 0x0, symName: __ZNKSt3__111__wrap_iterIPKcEdeB7v160006Ev, symObjAddr: 0x2627C, symBinAddr: 0x100027ED0, symSize: 0x60 }
  - { offsetInCU: 0x3590B, offset: 0x3590B, size: 0x8, addend: 0x0, symName: __ZNSt3__111__wrap_iterIPKcEppB7v160006Ev, symObjAddr: 0x262DC, symBinAddr: 0x100027F30, symSize: 0x68 }
  - { offsetInCU: 0x35930, offset: 0x35930, size: 0x8, addend: 0x0, symName: __ZNSt3__128__exception_guard_exceptionsINS_29_AllocatorDestroyRangeReverseINS_9allocatorIcEEPcEEE10__completeB7v160006Ev, symObjAddr: 0x26344, symBinAddr: 0x100027F98, symSize: 0x8C }
  - { offsetInCU: 0x35955, offset: 0x35955, size: 0x8, addend: 0x0, symName: __ZNSt3__128__exception_guard_exceptionsINS_29_AllocatorDestroyRangeReverseINS_9allocatorIcEEPcEEED1B7v160006Ev, symObjAddr: 0x263D0, symBinAddr: 0x100028024, symSize: 0x2C }
  - { offsetInCU: 0x3597E, offset: 0x3597E, size: 0x8, addend: 0x0, symName: __ZNSt3__128__exception_guard_exceptionsINS_29_AllocatorDestroyRangeReverseINS_9allocatorIcEEPcEEEC1B7v160006ES5_, symObjAddr: 0x263FC, symBinAddr: 0x100028050, symSize: 0x34 }
  - { offsetInCU: 0x359B6, offset: 0x359B6, size: 0x8, addend: 0x0, symName: __ZNSt3__128__exception_guard_exceptionsINS_29_AllocatorDestroyRangeReverseINS_9allocatorIcEEPcEEEC2B7v160006ES5_, symObjAddr: 0x26430, symBinAddr: 0x100028084, symSize: 0xA4 }
  - { offsetInCU: 0x359EE, offset: 0x359EE, size: 0x8, addend: 0x0, symName: __ZNSt3__129_AllocatorDestroyRangeReverseINS_9allocatorIcEEPcEC2B7v160006ERS2_RS3_S6_, symObjAddr: 0x264D4, symBinAddr: 0x100028128, symSize: 0x104 }
  - { offsetInCU: 0x35A44, offset: 0x35A44, size: 0x8, addend: 0x0, symName: __ZNSt3__128__exception_guard_exceptionsINS_29_AllocatorDestroyRangeReverseINS_9allocatorIcEEPcEEED2B7v160006Ev, symObjAddr: 0x26720, symBinAddr: 0x100028374, symSize: 0xBC }
  - { offsetInCU: 0x35A6D, offset: 0x35A6D, size: 0x8, addend: 0x0, symName: __ZNKSt3__129_AllocatorDestroyRangeReverseINS_9allocatorIcEEPcEclB7v160006Ev, symObjAddr: 0x267DC, symBinAddr: 0x100028430, symSize: 0x39C }
  - { offsetInCU: 0x35A93, offset: 0x35A93, size: 0x8, addend: 0x0, symName: __ZNSt3__116reverse_iteratorIPcEC1B7v160006ES1_, symObjAddr: 0x26E30, symBinAddr: 0x100028A84, symSize: 0x34 }
  - { offsetInCU: 0x35ACA, offset: 0x35ACA, size: 0x8, addend: 0x0, symName: __ZNSt3__116reverse_iteratorIPcEppB7v160006Ev, symObjAddr: 0x26ED0, symBinAddr: 0x100028B24, symSize: 0x6C }
  - { offsetInCU: 0x35AEF, offset: 0x35AEF, size: 0x8, addend: 0x0, symName: __ZNKSt3__116reverse_iteratorIPcE4baseB7v160006Ev, symObjAddr: 0x26F3C, symBinAddr: 0x100028B90, symSize: 0x64 }
  - { offsetInCU: 0x35B19, offset: 0x35B19, size: 0x8, addend: 0x0, symName: __ZNSt3__119__to_address_helperINS_16reverse_iteratorIPcEEvE6__callB7v160006ERKS3_, symObjAddr: 0x26FA0, symBinAddr: 0x100028BF4, symSize: 0x44 }
  - { offsetInCU: 0x35B3C, offset: 0x35B3C, size: 0x8, addend: 0x0, symName: __ZNKSt3__116reverse_iteratorIPcEptB7v160006Ev, symObjAddr: 0x26FE4, symBinAddr: 0x100028C38, symSize: 0x6C }
  - { offsetInCU: 0x35B61, offset: 0x35B61, size: 0x8, addend: 0x0, symName: __ZNSt3__116reverse_iteratorIPcEC2B7v160006ES1_, symObjAddr: 0x27388, symBinAddr: 0x100028FDC, symSize: 0xB8 }
  - { offsetInCU: 0x35B98, offset: 0x35B98, size: 0x8, addend: 0x0, symName: __ZNSt3__16vectorIcNS_9allocatorIcEEE21_ConstructTransactionD2B7v160006Ev, symObjAddr: 0x27440, symBinAddr: 0x100029094, symSize: 0x270 }
  - { offsetInCU: 0x35BC1, offset: 0x35BC1, size: 0x8, addend: 0x0, symName: __ZNKSt3__16vectorIcNS_9allocatorIcEEE17__annotate_shrinkB7v160006Em, symObjAddr: 0x276B0, symBinAddr: 0x100029304, symSize: 0xC8 }
  - { offsetInCU: 0x35BF5, offset: 0x35BF5, size: 0x8, addend: 0x0, symName: __ZNSt3__128__exception_guard_exceptionsINS_6vectorIcNS_9allocatorIcEEE16__destroy_vectorEED2B7v160006Ev, symObjAddr: 0x27778, symBinAddr: 0x1000293CC, symSize: 0xBC }
  - { offsetInCU: 0x35C1E, offset: 0x35C1E, size: 0x8, addend: 0x0, symName: __ZNSt16invalid_argumentC1B7v160006EPKc, symObjAddr: 0x27834, symBinAddr: 0x100029488, symSize: 0x34 }
  - { offsetInCU: 0x35C55, offset: 0x35C55, size: 0x8, addend: 0x0, symName: __ZNSt3__16vectorINS0_IcNS_9allocatorIcEEEENS1_IS3_EEEC1B7v160006Ev, symObjAddr: 0x27868, symBinAddr: 0x1000294BC, symSize: 0x2C }
  - { offsetInCU: 0x35C7E, offset: 0x35C7E, size: 0x8, addend: 0x0, symName: __ZNSt3__16vectorIiNS_9allocatorIiEEEC1B7v160006Ev, symObjAddr: 0x27894, symBinAddr: 0x1000294E8, symSize: 0x2C }
  - { offsetInCU: 0x35CA6, offset: 0x35CA6, size: 0x8, addend: 0x0, symName: __ZNKSt3__16vectorIcNS_9allocatorIcEEE5beginB7v160006Ev, symObjAddr: 0x278C0, symBinAddr: 0x100029514, symSize: 0x268 }
  - { offsetInCU: 0x35CCE, offset: 0x35CCE, size: 0x8, addend: 0x0, symName: __ZNKSt3__111__wrap_iterIPKcEplB7v160006El, symObjAddr: 0x27B28, symBinAddr: 0x10002977C, symSize: 0x20C }
  - { offsetInCU: 0x35D15, offset: 0x35D15, size: 0x8, addend: 0x0, symName: __ZNKSt3__16vectorINS0_IcNS_9allocatorIcEEEENS1_IS3_EEE4sizeB7v160006Ev, symObjAddr: 0x27D34, symBinAddr: 0x100029988, symSize: 0xB0 }
  - { offsetInCU: 0x35D39, offset: 0x35D39, size: 0x8, addend: 0x0, symName: __ZNSt3__16vectorINS0_IcNS_9allocatorIcEEEENS1_IS3_EEEixB7v160006Em, symObjAddr: 0x281E0, symBinAddr: 0x100029E34, symSize: 0x74 }
  - { offsetInCU: 0x35D6E, offset: 0x35D6E, size: 0x8, addend: 0x0, symName: __ZNSt3__16vectorIiNS_9allocatorIiEEEixB7v160006Em, symObjAddr: 0x28254, symBinAddr: 0x100029EA8, symSize: 0x6C }
  - { offsetInCU: 0x35DA3, offset: 0x35DA3, size: 0x8, addend: 0x0, symName: __ZNSt3__16vectorINS0_IcNS_9allocatorIcEEEENS1_IS3_EEE9push_backB7v160006ERKS3_, symObjAddr: 0x282C0, symBinAddr: 0x100029F14, symSize: 0xE0 }
  - { offsetInCU: 0x35DD8, offset: 0x35DD8, size: 0x8, addend: 0x0, symName: __ZNSt3__16vectorIiNS_9allocatorIiEEE9push_backB7v160006EOi, symObjAddr: 0x283A0, symBinAddr: 0x100029FF4, symSize: 0xE0 }
  - { offsetInCU: 0x35E0D, offset: 0x35E0D, size: 0x8, addend: 0x0, symName: __ZNSt3__16vectorIiNS_9allocatorIiEEE5beginB7v160006Ev, symObjAddr: 0x28480, symBinAddr: 0x10002A0D4, symSize: 0x268 }
  - { offsetInCU: 0x35E34, offset: 0x35E34, size: 0x8, addend: 0x0, symName: __ZNSt3__16vectorIiNS_9allocatorIiEEE3endB7v160006Ev, symObjAddr: 0x286E8, symBinAddr: 0x10002A33C, symSize: 0x26C }
  - { offsetInCU: 0x35E5C, offset: 0x35E5C, size: 0x8, addend: 0x0, symName: __ZNKSt3__111__wrap_iterIPiEdeB7v160006Ev, symObjAddr: 0x28988, symBinAddr: 0x10002A5DC, symSize: 0x60 }
  - { offsetInCU: 0x35E81, offset: 0x35E81, size: 0x8, addend: 0x0, symName: __ZNSt3__111__wrap_iterIPiEppB7v160006Ev, symObjAddr: 0x289E8, symBinAddr: 0x10002A63C, symSize: 0x68 }
  - { offsetInCU: 0x35EA6, offset: 0x35EA6, size: 0x8, addend: 0x0, symName: __ZNSt3__16vectorINS0_IcNS_9allocatorIcEEEENS1_IS3_EEE5clearB7v160006Ev, symObjAddr: 0x28A50, symBinAddr: 0x10002A6A4, symSize: 0x4C }
  - { offsetInCU: 0x35EDA, offset: 0x35EDA, size: 0x8, addend: 0x0, symName: __ZNSt3__16vectorIiNS_9allocatorIiEEE5clearB7v160006Ev, symObjAddr: 0x28A9C, symBinAddr: 0x10002A6F0, symSize: 0x4C }
  - { offsetInCU: 0x35F0E, offset: 0x35F0E, size: 0x8, addend: 0x0, symName: __ZNSt3__16vectorINS0_IcNS_9allocatorIcEEEENS1_IS3_EEED1B7v160006Ev, symObjAddr: 0x28AE8, symBinAddr: 0x10002A73C, symSize: 0x2C }
  - { offsetInCU: 0x35F37, offset: 0x35F37, size: 0x8, addend: 0x0, symName: __ZNSt16invalid_argumentC2B7v160006EPKc, symObjAddr: 0x28B14, symBinAddr: 0x10002A768, symSize: 0x8C }
  - { offsetInCU: 0x35F6E, offset: 0x35F6E, size: 0x8, addend: 0x0, symName: __ZNSt3__16vectorINS0_IcNS_9allocatorIcEEEENS1_IS3_EEEC2B7v160006Ev, symObjAddr: 0x28BA0, symBinAddr: 0x10002A7F4, symSize: 0x2F4 }
  - { offsetInCU: 0x35F98, offset: 0x35F98, size: 0x8, addend: 0x0, symName: __ZNSt3__117__compressed_pairIPNS_6vectorIcNS_9allocatorIcEEEENS2_IS4_EEEC1B7v160006IDnNS_18__default_init_tagEEEOT_OT0_, symObjAddr: 0x28E94, symBinAddr: 0x10002AAE8, symSize: 0x3C }
  - { offsetInCU: 0x35FEF, offset: 0x35FEF, size: 0x8, addend: 0x0, symName: __ZNSt3__117__compressed_pairIPNS_6vectorIcNS_9allocatorIcEEEENS2_IS4_EEEC2B7v160006IDnNS_18__default_init_tagEEEOT_OT0_, symObjAddr: 0x28EE0, symBinAddr: 0x10002AB34, symSize: 0x40 }
  - { offsetInCU: 0x36046, offset: 0x36046, size: 0x8, addend: 0x0, symName: __ZNSt3__122__compressed_pair_elemIPNS_6vectorIcNS_9allocatorIcEEEELi0ELb0EEC2B7v160006IDnvEEOT_, symObjAddr: 0x28F20, symBinAddr: 0x10002AB74, symSize: 0x64 }
  - { offsetInCU: 0x36087, offset: 0x36087, size: 0x8, addend: 0x0, symName: __ZNSt3__122__compressed_pair_elemINS_9allocatorINS_6vectorIcNS1_IcEEEEEELi1ELb1EEC2B7v160006ENS_18__default_init_tagE, symObjAddr: 0x28F84, symBinAddr: 0x10002ABD8, symSize: 0x2C }
  - { offsetInCU: 0x360BA, offset: 0x360BA, size: 0x8, addend: 0x0, symName: __ZNSt3__19allocatorINS_6vectorIcNS0_IcEEEEEC2B7v160006Ev, symObjAddr: 0x28FB0, symBinAddr: 0x10002AC04, symSize: 0x2C }
  - { offsetInCU: 0x360E3, offset: 0x360E3, size: 0x8, addend: 0x0, symName: __ZNSt3__116__non_trivial_ifILb1ENS_9allocatorINS_6vectorIcNS1_IcEEEEEEEC2B7v160006Ev, symObjAddr: 0x28FDC, symBinAddr: 0x10002AC30, symSize: 0x14 }
  - { offsetInCU: 0x3610C, offset: 0x3610C, size: 0x8, addend: 0x0, symName: __ZNSt3__16vectorIiNS_9allocatorIiEEEC2B7v160006Ev, symObjAddr: 0x28FF0, symBinAddr: 0x10002AC44, symSize: 0x2F4 }
  - { offsetInCU: 0x36136, offset: 0x36136, size: 0x8, addend: 0x0, symName: __ZNSt3__117__compressed_pairIPiNS_9allocatorIiEEEC1B7v160006IDnNS_18__default_init_tagEEEOT_OT0_, symObjAddr: 0x292E4, symBinAddr: 0x10002AF38, symSize: 0x3C }
  - { offsetInCU: 0x3618D, offset: 0x3618D, size: 0x8, addend: 0x0, symName: __ZNSt3__117__compressed_pairIPiNS_9allocatorIiEEEC2B7v160006IDnNS_18__default_init_tagEEEOT_OT0_, symObjAddr: 0x29330, symBinAddr: 0x10002AF84, symSize: 0x40 }
  - { offsetInCU: 0x361E4, offset: 0x361E4, size: 0x8, addend: 0x0, symName: __ZNSt3__122__compressed_pair_elemIPiLi0ELb0EEC2B7v160006IDnvEEOT_, symObjAddr: 0x29370, symBinAddr: 0x10002AFC4, symSize: 0x64 }
  - { offsetInCU: 0x36225, offset: 0x36225, size: 0x8, addend: 0x0, symName: __ZNSt3__122__compressed_pair_elemINS_9allocatorIiEELi1ELb1EEC2B7v160006ENS_18__default_init_tagE, symObjAddr: 0x293D4, symBinAddr: 0x10002B028, symSize: 0x2C }
  - { offsetInCU: 0x36258, offset: 0x36258, size: 0x8, addend: 0x0, symName: __ZNSt3__19allocatorIiEC2B7v160006Ev, symObjAddr: 0x29400, symBinAddr: 0x10002B054, symSize: 0x2C }
  - { offsetInCU: 0x36281, offset: 0x36281, size: 0x8, addend: 0x0, symName: __ZNSt3__116__non_trivial_ifILb1ENS_9allocatorIiEEEC2B7v160006Ev, symObjAddr: 0x2942C, symBinAddr: 0x10002B080, symSize: 0x14 }
  - { offsetInCU: 0x362AA, offset: 0x362AA, size: 0x8, addend: 0x0, symName: __ZNKSt3__16vectorIcNS_9allocatorIcEEE11__make_iterB7v160006EPKc, symObjAddr: 0x29440, symBinAddr: 0x10002B094, symSize: 0x200 }
  - { offsetInCU: 0x362E0, offset: 0x362E0, size: 0x8, addend: 0x0, symName: __ZNSt3__111__wrap_iterIPKcEpLB7v160006El, symObjAddr: 0x29640, symBinAddr: 0x10002B294, symSize: 0x78 }
  - { offsetInCU: 0x36312, offset: 0x36312, size: 0x8, addend: 0x0, symName: __ZNKSt3__16vectorIcNS_9allocatorIcEEE3endB7v160006Ev, symObjAddr: 0x29AC4, symBinAddr: 0x10002B718, symSize: 0x26C }
  - { offsetInCU: 0x36344, offset: 0x36344, size: 0x8, addend: 0x0, symName: __ZNKSt3__110__equal_toclB7v160006IccEEbRKT_RKT0_, symObjAddr: 0x2A0B0, symBinAddr: 0x10002BD04, symSize: 0x104 }
  - { offsetInCU: 0x36397, offset: 0x36397, size: 0x8, addend: 0x0, symName: __ZNSt3__16vectorINS0_IcNS_9allocatorIcEEEENS1_IS3_EEE9__end_capB7v160006Ev, symObjAddr: 0x2A1B4, symBinAddr: 0x10002BE08, symSize: 0x28 }
  - { offsetInCU: 0x363BC, offset: 0x363BC, size: 0x8, addend: 0x0, symName: __ZNSt3__16vectorINS0_IcNS_9allocatorIcEEEENS1_IS3_EEE22__construct_one_at_endB7v160006IJRKS3_EEEvDpOT_, symObjAddr: 0x2A1DC, symBinAddr: 0x10002BE30, symSize: 0x36C }
  - { offsetInCU: 0x3640F, offset: 0x3640F, size: 0x8, addend: 0x0, symName: __ZNSt3__16vectorINS0_IcNS_9allocatorIcEEEENS1_IS3_EEE21__push_back_slow_pathIRKS3_EEvOT_, symObjAddr: 0x2A548, symBinAddr: 0x10002C19C, symSize: 0x3C0 }
  - { offsetInCU: 0x36473, offset: 0x36473, size: 0x8, addend: 0x0, symName: __ZNSt3__117__compressed_pairIPNS_6vectorIcNS_9allocatorIcEEEENS2_IS4_EEE5firstB7v160006Ev, symObjAddr: 0x2A908, symBinAddr: 0x10002C55C, symSize: 0x24 }
  - { offsetInCU: 0x36498, offset: 0x36498, size: 0x8, addend: 0x0, symName: __ZNSt3__122__compressed_pair_elemIPNS_6vectorIcNS_9allocatorIcEEEELi0ELb0EE5__getB7v160006Ev, symObjAddr: 0x2A92C, symBinAddr: 0x10002C580, symSize: 0x14 }
  - { offsetInCU: 0x364D6, offset: 0x364D6, size: 0x8, addend: 0x0, symName: __ZNSt3__16vectorINS0_IcNS_9allocatorIcEEEENS1_IS3_EEE21_ConstructTransactionC1B7v160006ERS5_m, symObjAddr: 0x2A940, symBinAddr: 0x10002C594, symSize: 0x3C }
  - { offsetInCU: 0x3651D, offset: 0x3651D, size: 0x8, addend: 0x0, symName: __ZNSt3__116allocator_traitsINS_9allocatorINS_6vectorIcNS1_IcEEEEEEE9constructB7v160006IS4_JRKS4_EvvEEvRS5_PT_DpOT0_, symObjAddr: 0x2A97C, symBinAddr: 0x10002C5D0, symSize: 0x30 }
  - { offsetInCU: 0x36571, offset: 0x36571, size: 0x8, addend: 0x0, symName: __ZNSt3__16vectorINS0_IcNS_9allocatorIcEEEENS1_IS3_EEE7__allocB7v160006Ev, symObjAddr: 0x2A9AC, symBinAddr: 0x10002C600, symSize: 0x28 }
  - { offsetInCU: 0x36596, offset: 0x36596, size: 0x8, addend: 0x0, symName: __ZNSt3__16vectorINS0_IcNS_9allocatorIcEEEENS1_IS3_EEE21_ConstructTransactionD1B7v160006Ev, symObjAddr: 0x2A9E8, symBinAddr: 0x10002C63C, symSize: 0x2C }
  - { offsetInCU: 0x365BF, offset: 0x365BF, size: 0x8, addend: 0x0, symName: __ZNSt3__16vectorINS0_IcNS_9allocatorIcEEEENS1_IS3_EEE21_ConstructTransactionC2B7v160006ERS5_m, symObjAddr: 0x2AA14, symBinAddr: 0x10002C668, symSize: 0x1D8 }
  - { offsetInCU: 0x36606, offset: 0x36606, size: 0x8, addend: 0x0, symName: __ZNKSt3__16vectorINS0_IcNS_9allocatorIcEEEENS1_IS3_EEE19__annotate_increaseB7v160006Em, symObjAddr: 0x2ABEC, symBinAddr: 0x10002C840, symSize: 0xF8 }
  - { offsetInCU: 0x3663A, offset: 0x3663A, size: 0x8, addend: 0x0, symName: __ZNKSt3__16vectorINS0_IcNS_9allocatorIcEEEENS1_IS3_EEE31__annotate_contiguous_containerEPKvS7_S7_S7_, symObjAddr: 0x2ACE4, symBinAddr: 0x10002C938, symSize: 0x58 }
  - { offsetInCU: 0x3669B, offset: 0x3669B, size: 0x8, addend: 0x0, symName: __ZNKSt3__16vectorINS0_IcNS_9allocatorIcEEEENS1_IS3_EEE4dataB7v160006Ev, symObjAddr: 0x2AD3C, symBinAddr: 0x10002C990, symSize: 0x64 }
  - { offsetInCU: 0x366C0, offset: 0x366C0, size: 0x8, addend: 0x0, symName: __ZNKSt3__16vectorINS0_IcNS_9allocatorIcEEEENS1_IS3_EEE8capacityB7v160006Ev, symObjAddr: 0x2ADA0, symBinAddr: 0x10002C9F4, symSize: 0xBC }
  - { offsetInCU: 0x366E5, offset: 0x366E5, size: 0x8, addend: 0x0, symName: __ZNKSt3__16vectorINS0_IcNS_9allocatorIcEEEENS1_IS3_EEE9__end_capB7v160006Ev, symObjAddr: 0x2AE5C, symBinAddr: 0x10002CAB0, symSize: 0x28 }
  - { offsetInCU: 0x3670A, offset: 0x3670A, size: 0x8, addend: 0x0, symName: __ZNKSt3__117__compressed_pairIPNS_6vectorIcNS_9allocatorIcEEEENS2_IS4_EEE5firstB7v160006Ev, symObjAddr: 0x2AE84, symBinAddr: 0x10002CAD8, symSize: 0x24 }
  - { offsetInCU: 0x3672F, offset: 0x3672F, size: 0x8, addend: 0x0, symName: __ZNKSt3__122__compressed_pair_elemIPNS_6vectorIcNS_9allocatorIcEEEELi0ELb0EE5__getB7v160006Ev, symObjAddr: 0x2AEA8, symBinAddr: 0x10002CAFC, symSize: 0x14 }
  - { offsetInCU: 0x36754, offset: 0x36754, size: 0x8, addend: 0x0, symName: __ZNSt3__16vectorIcNS_9allocatorIcEEEC1ERKS3_, symObjAddr: 0x2AEF8, symBinAddr: 0x10002CB4C, symSize: 0x34 }
  - { offsetInCU: 0x3678E, offset: 0x3678E, size: 0x8, addend: 0x0, symName: __ZNSt3__16vectorIcNS_9allocatorIcEEEC2ERKS3_, symObjAddr: 0x2AF2C, symBinAddr: 0x10002CB80, symSize: 0x538 }
  - { offsetInCU: 0x367F3, offset: 0x367F3, size: 0x8, addend: 0x0, symName: __ZNSt3__116allocator_traitsINS_9allocatorIcEEE37select_on_container_copy_constructionB7v160006IS2_vvEES2_RKS2_, symObjAddr: 0x2B464, symBinAddr: 0x10002D0B8, symSize: 0x10 }
  - { offsetInCU: 0x36827, offset: 0x36827, size: 0x8, addend: 0x0, symName: __ZNSt3__117__compressed_pairIPcNS_9allocatorIcEEEC1B7v160006IDnS3_EEOT_OT0_, symObjAddr: 0x2B474, symBinAddr: 0x10002D0C8, symSize: 0x3C }
  - { offsetInCU: 0x3687D, offset: 0x3687D, size: 0x8, addend: 0x0, symName: __ZNSt3__16vectorIcNS_9allocatorIcEEE18__construct_at_endIPcLi0EEEvT_S6_m, symObjAddr: 0x2B4B0, symBinAddr: 0x10002D104, symSize: 0x380 }
  - { offsetInCU: 0x368F7, offset: 0x368F7, size: 0x8, addend: 0x0, symName: __ZNSt3__117__compressed_pairIPcNS_9allocatorIcEEEC2B7v160006IDnS3_EEOT_OT0_, symObjAddr: 0x2B830, symBinAddr: 0x10002D484, symSize: 0x44 }
  - { offsetInCU: 0x3694E, offset: 0x3694E, size: 0x8, addend: 0x0, symName: __ZNSt3__122__compressed_pair_elemINS_9allocatorIcEELi1ELb1EEC2B7v160006IS2_vEEOT_, symObjAddr: 0x2B874, symBinAddr: 0x10002D4C8, symSize: 0x18 }
  - { offsetInCU: 0x3698F, offset: 0x3698F, size: 0x8, addend: 0x0, symName: __ZNSt3__116allocator_traitsINS_9allocatorIcEEE9constructB7v160006IcJRcEvvEEvRS2_PT_DpOT0_, symObjAddr: 0x2BDAC, symBinAddr: 0x10002DA00, symSize: 0x30 }
  - { offsetInCU: 0x369E3, offset: 0x369E3, size: 0x8, addend: 0x0, symName: __ZNSt3__117__compressed_pairIPNS_6vectorIcNS_9allocatorIcEEEENS2_IS4_EEE6secondB7v160006Ev, symObjAddr: 0x2BEDC, symBinAddr: 0x10002DB30, symSize: 0x24 }
  - { offsetInCU: 0x36A08, offset: 0x36A08, size: 0x8, addend: 0x0, symName: __ZNSt3__122__compressed_pair_elemINS_9allocatorINS_6vectorIcNS1_IcEEEEEELi1ELb1EE5__getB7v160006Ev, symObjAddr: 0x2BF00, symBinAddr: 0x10002DB54, symSize: 0x14 }
  - { offsetInCU: 0x36A2D, offset: 0x36A2D, size: 0x8, addend: 0x0, symName: __ZNSt3__16vectorINS0_IcNS_9allocatorIcEEEENS1_IS3_EEE21_ConstructTransactionD2B7v160006Ev, symObjAddr: 0x2BF14, symBinAddr: 0x10002DB68, symSize: 0x278 }
  - { offsetInCU: 0x36A56, offset: 0x36A56, size: 0x8, addend: 0x0, symName: __ZNKSt3__16vectorINS0_IcNS_9allocatorIcEEEENS1_IS3_EEE17__annotate_shrinkB7v160006Em, symObjAddr: 0x2C18C, symBinAddr: 0x10002DDE0, symSize: 0xE4 }
  - { offsetInCU: 0x36A89, offset: 0x36A89, size: 0x8, addend: 0x0, symName: __ZNKSt3__16vectorINS0_IcNS_9allocatorIcEEEENS1_IS3_EEE11__recommendB7v160006Em, symObjAddr: 0x2C270, symBinAddr: 0x10002DEC4, symSize: 0x384 }
  - { offsetInCU: 0x36AE4, offset: 0x36AE4, size: 0x8, addend: 0x0, symName: __ZNSt3__114__split_bufferINS_6vectorIcNS_9allocatorIcEEEERNS2_IS4_EEEC1EmmS6_, symObjAddr: 0x2C5F4, symBinAddr: 0x10002E248, symSize: 0x44 }
  - { offsetInCU: 0x36B39, offset: 0x36B39, size: 0x8, addend: 0x0, symName: __ZNSt3__114__split_bufferINS_6vectorIcNS_9allocatorIcEEEERNS2_IS4_EEED1Ev, symObjAddr: 0x2CBAC, symBinAddr: 0x10002E800, symSize: 0x2C }
  - { offsetInCU: 0x36B63, offset: 0x36B63, size: 0x8, addend: 0x0, symName: __ZNKSt3__16vectorINS0_IcNS_9allocatorIcEEEENS1_IS3_EEE8max_sizeEv, symObjAddr: 0x2CBD8, symBinAddr: 0x10002E82C, symSize: 0x2FC }
  - { offsetInCU: 0x36B8B, offset: 0x36B8B, size: 0x8, addend: 0x0, symName: __ZNKSt3__16vectorINS0_IcNS_9allocatorIcEEEENS1_IS3_EEE20__throw_length_errorB7v160006Ev, symObjAddr: 0x2CED4, symBinAddr: 0x10002EB28, symSize: 0x20 }
  - { offsetInCU: 0x36BBA, offset: 0x36BBA, size: 0x8, addend: 0x0, symName: __ZNSt3__116allocator_traitsINS_9allocatorINS_6vectorIcNS1_IcEEEEEEE8max_sizeB7v160006IS5_vvEEmRKS5_, symObjAddr: 0x2CF20, symBinAddr: 0x10002EB74, symSize: 0x28 }
  - { offsetInCU: 0x36BE5, offset: 0x36BE5, size: 0x8, addend: 0x0, symName: __ZNKSt3__16vectorINS0_IcNS_9allocatorIcEEEENS1_IS3_EEE7__allocB7v160006Ev, symObjAddr: 0x2CF48, symBinAddr: 0x10002EB9C, symSize: 0x28 }
  - { offsetInCU: 0x36C0A, offset: 0x36C0A, size: 0x8, addend: 0x0, symName: __ZNKSt3__117__compressed_pairIPNS_6vectorIcNS_9allocatorIcEEEENS2_IS4_EEE6secondB7v160006Ev, symObjAddr: 0x2CF70, symBinAddr: 0x10002EBC4, symSize: 0x24 }
  - { offsetInCU: 0x36C2F, offset: 0x36C2F, size: 0x8, addend: 0x0, symName: __ZNKSt3__122__compressed_pair_elemINS_9allocatorINS_6vectorIcNS1_IcEEEEEELi1ELb1EE5__getB7v160006Ev, symObjAddr: 0x2CF94, symBinAddr: 0x10002EBE8, symSize: 0x14 }
  - { offsetInCU: 0x36C54, offset: 0x36C54, size: 0x8, addend: 0x0, symName: __ZNSt3__114__split_bufferINS_6vectorIcNS_9allocatorIcEEEERNS2_IS4_EEEC2EmmS6_, symObjAddr: 0x2D190, symBinAddr: 0x10002EDE4, symSize: 0x530 }
  - { offsetInCU: 0x36CCE, offset: 0x36CCE, size: 0x8, addend: 0x0, symName: __ZNSt3__117__compressed_pairIPNS_6vectorIcNS_9allocatorIcEEEERNS2_IS4_EEEC1B7v160006IDnS7_EEOT_OT0_, symObjAddr: 0x2D6C0, symBinAddr: 0x10002F314, symSize: 0x3C }
  - { offsetInCU: 0x36D25, offset: 0x36D25, size: 0x8, addend: 0x0, symName: __ZNSt3__114__split_bufferINS_6vectorIcNS_9allocatorIcEEEERNS2_IS4_EEE7__allocB7v160006Ev, symObjAddr: 0x2D988, symBinAddr: 0x10002F5DC, symSize: 0x28 }
  - { offsetInCU: 0x36D4A, offset: 0x36D4A, size: 0x8, addend: 0x0, symName: __ZNSt3__114__split_bufferINS_6vectorIcNS_9allocatorIcEEEERNS2_IS4_EEE9__end_capB7v160006Ev, symObjAddr: 0x2D9B0, symBinAddr: 0x10002F604, symSize: 0x28 }
  - { offsetInCU: 0x36D6F, offset: 0x36D6F, size: 0x8, addend: 0x0, symName: __ZNSt3__117__compressed_pairIPNS_6vectorIcNS_9allocatorIcEEEERNS2_IS4_EEEC2B7v160006IDnS7_EEOT_OT0_, symObjAddr: 0x2D9D8, symBinAddr: 0x10002F62C, symSize: 0x48 }
  - { offsetInCU: 0x36DC6, offset: 0x36DC6, size: 0x8, addend: 0x0, symName: __ZNSt3__122__compressed_pair_elemIRNS_9allocatorINS_6vectorIcNS1_IcEEEEEELi1ELb0EEC2B7v160006IS6_vEEOT_, symObjAddr: 0x2DA20, symBinAddr: 0x10002F674, symSize: 0x70 }
  - { offsetInCU: 0x36E07, offset: 0x36E07, size: 0x8, addend: 0x0, symName: __ZNSt3__19allocatorINS_6vectorIcNS0_IcEEEEE8allocateB7v160006Em, symObjAddr: 0x2DA90, symBinAddr: 0x10002F6E4, symSize: 0x60 }
  - { offsetInCU: 0x36E3A, offset: 0x36E3A, size: 0x8, addend: 0x0, symName: __ZNSt3__117__compressed_pairIPNS_6vectorIcNS_9allocatorIcEEEERNS2_IS4_EEE6secondB7v160006Ev, symObjAddr: 0x2DAF0, symBinAddr: 0x10002F744, symSize: 0x28 }
  - { offsetInCU: 0x36E5F, offset: 0x36E5F, size: 0x8, addend: 0x0, symName: __ZNSt3__122__compressed_pair_elemIRNS_9allocatorINS_6vectorIcNS1_IcEEEEEELi1ELb0EE5__getB7v160006Ev, symObjAddr: 0x2DB18, symBinAddr: 0x10002F76C, symSize: 0x60 }
  - { offsetInCU: 0x36E84, offset: 0x36E84, size: 0x8, addend: 0x0, symName: __ZNSt3__117__compressed_pairIPNS_6vectorIcNS_9allocatorIcEEEERNS2_IS4_EEE5firstB7v160006Ev, symObjAddr: 0x2DB78, symBinAddr: 0x10002F7CC, symSize: 0x24 }
  - { offsetInCU: 0x36EA9, offset: 0x36EA9, size: 0x8, addend: 0x0, symName: __ZNKSt3__16vectorINS0_IcNS_9allocatorIcEEEENS1_IS3_EEE17__annotate_deleteB7v160006Ev, symObjAddr: 0x2DB9C, symBinAddr: 0x10002F7F0, symSize: 0xE8 }
  - { offsetInCU: 0x36ECE, offset: 0x36ECE, size: 0x8, addend: 0x0, symName: __ZNSt3__116reverse_iteratorIPNS_6vectorIcNS_9allocatorIcEEEEEC1B7v160006ES5_, symObjAddr: 0x2E1C8, symBinAddr: 0x10002FE1C, symSize: 0x34 }
  - { offsetInCU: 0x36F05, offset: 0x36F05, size: 0x8, addend: 0x0, symName: __ZNKSt3__116reverse_iteratorIPNS_6vectorIcNS_9allocatorIcEEEEE4baseB7v160006Ev, symObjAddr: 0x2E1FC, symBinAddr: 0x10002FE50, symSize: 0x64 }
  - { offsetInCU: 0x36F2A, offset: 0x36F2A, size: 0x8, addend: 0x0, symName: __ZNKSt3__16vectorINS0_IcNS_9allocatorIcEEEENS1_IS3_EEE14__annotate_newB7v160006Em, symObjAddr: 0x2E394, symBinAddr: 0x10002FFE8, symSize: 0xDC }
  - { offsetInCU: 0x36F5E, offset: 0x36F5E, size: 0x8, addend: 0x0, symName: __ZNSt3__129_AllocatorDestroyRangeReverseINS_9allocatorINS_6vectorIcNS1_IcEEEEEENS_16reverse_iteratorIPS4_EEEC1B7v160006ERS5_RS8_SB_, symObjAddr: 0x2E678, symBinAddr: 0x1000302CC, symSize: 0x44 }
  - { offsetInCU: 0x36FB4, offset: 0x36FB4, size: 0x8, addend: 0x0, symName: __ZNSt3__116allocator_traitsINS_9allocatorINS_6vectorIcNS1_IcEEEEEEE9constructB7v160006IS4_JS4_EvvEEvRS5_PT_DpOT0_, symObjAddr: 0x2E704, symBinAddr: 0x100030358, symSize: 0x30 }
  - { offsetInCU: 0x37008, offset: 0x37008, size: 0x8, addend: 0x0, symName: __ZNKSt3__116reverse_iteratorIPNS_6vectorIcNS_9allocatorIcEEEEEdeB7v160006Ev, symObjAddr: 0x2E758, symBinAddr: 0x1000303AC, symSize: 0x74 }
  - { offsetInCU: 0x3703B, offset: 0x3703B, size: 0x8, addend: 0x0, symName: __ZNSt3__116reverse_iteratorIPNS_6vectorIcNS_9allocatorIcEEEEEppB7v160006Ev, symObjAddr: 0x2E7CC, symBinAddr: 0x100030420, symSize: 0x6C }
  - { offsetInCU: 0x37060, offset: 0x37060, size: 0x8, addend: 0x0, symName: __ZNSt3__128__exception_guard_exceptionsINS_29_AllocatorDestroyRangeReverseINS_9allocatorINS_6vectorIcNS2_IcEEEEEENS_16reverse_iteratorIPS5_EEEEE10__completeB7v160006Ev, symObjAddr: 0x2E838, symBinAddr: 0x10003048C, symSize: 0x8C }
  - { offsetInCU: 0x37085, offset: 0x37085, size: 0x8, addend: 0x0, symName: __ZNSt3__128__exception_guard_exceptionsINS_29_AllocatorDestroyRangeReverseINS_9allocatorINS_6vectorIcNS2_IcEEEEEENS_16reverse_iteratorIPS5_EEEEED1B7v160006Ev, symObjAddr: 0x2E8C4, symBinAddr: 0x100030518, symSize: 0x2C }
  - { offsetInCU: 0x370AE, offset: 0x370AE, size: 0x8, addend: 0x0, symName: __ZNSt3__128__exception_guard_exceptionsINS_29_AllocatorDestroyRangeReverseINS_9allocatorINS_6vectorIcNS2_IcEEEEEENS_16reverse_iteratorIPS5_EEEEEC1B7v160006ESA_, symObjAddr: 0x2E8F0, symBinAddr: 0x100030544, symSize: 0x34 }
  - { offsetInCU: 0x370E6, offset: 0x370E6, size: 0x8, addend: 0x0, symName: __ZNSt3__128__exception_guard_exceptionsINS_29_AllocatorDestroyRangeReverseINS_9allocatorINS_6vectorIcNS2_IcEEEEEENS_16reverse_iteratorIPS5_EEEEEC2B7v160006ESA_, symObjAddr: 0x2E924, symBinAddr: 0x100030578, symSize: 0xA4 }
  - { offsetInCU: 0x3711E, offset: 0x3711E, size: 0x8, addend: 0x0, symName: __ZNSt3__129_AllocatorDestroyRangeReverseINS_9allocatorINS_6vectorIcNS1_IcEEEEEENS_16reverse_iteratorIPS4_EEEC2B7v160006ERS5_RS8_SB_, symObjAddr: 0x2E9C8, symBinAddr: 0x10003061C, symSize: 0x104 }
  - { offsetInCU: 0x37174, offset: 0x37174, size: 0x8, addend: 0x0, symName: __ZNSt3__16vectorIcNS_9allocatorIcEEEC1B7v160006EOS3_, symObjAddr: 0x2EB08, symBinAddr: 0x10003075C, symSize: 0x34 }
  - { offsetInCU: 0x371AE, offset: 0x371AE, size: 0x8, addend: 0x0, symName: __ZNSt3__16vectorIcNS_9allocatorIcEEEC2B7v160006EOS3_, symObjAddr: 0x2EB3C, symBinAddr: 0x100030790, symSize: 0x50C }
  - { offsetInCU: 0x371EF, offset: 0x371EF, size: 0x8, addend: 0x0, symName: __ZNSt3__119__to_address_helperINS_16reverse_iteratorIPNS_6vectorIcNS_9allocatorIcEEEEEEvE6__callB7v160006ERKS7_, symObjAddr: 0x2F05C, symBinAddr: 0x100030CB0, symSize: 0x44 }
  - { offsetInCU: 0x37212, offset: 0x37212, size: 0x8, addend: 0x0, symName: __ZNKSt3__116reverse_iteratorIPNS_6vectorIcNS_9allocatorIcEEEEEptB7v160006Ev, symObjAddr: 0x2F0A0, symBinAddr: 0x100030CF4, symSize: 0x6C }
  - { offsetInCU: 0x37237, offset: 0x37237, size: 0x8, addend: 0x0, symName: __ZNSt3__128__exception_guard_exceptionsINS_29_AllocatorDestroyRangeReverseINS_9allocatorINS_6vectorIcNS2_IcEEEEEENS_16reverse_iteratorIPS5_EEEEED2B7v160006Ev, symObjAddr: 0x2F438, symBinAddr: 0x10003108C, symSize: 0xBC }
  - { offsetInCU: 0x37260, offset: 0x37260, size: 0x8, addend: 0x0, symName: __ZNKSt3__129_AllocatorDestroyRangeReverseINS_9allocatorINS_6vectorIcNS1_IcEEEEEENS_16reverse_iteratorIPS4_EEEclB7v160006Ev, symObjAddr: 0x2F4F4, symBinAddr: 0x100031148, symSize: 0x3A8 }
  - { offsetInCU: 0x37286, offset: 0x37286, size: 0x8, addend: 0x0, symName: __ZNSt3__116reverse_iteratorINS0_IPNS_6vectorIcNS_9allocatorIcEEEEEEEC1B7v160006ES6_, symObjAddr: 0x2F90C, symBinAddr: 0x100031560, symSize: 0x248 }
  - { offsetInCU: 0x372C2, offset: 0x372C2, size: 0x8, addend: 0x0, symName: __ZNSt3__116allocator_traitsINS_9allocatorINS_6vectorIcNS1_IcEEEEEEE7destroyB7v160006IS4_vvEEvRS5_PT_, symObjAddr: 0x2FE20, symBinAddr: 0x100031A74, symSize: 0x28 }
  - { offsetInCU: 0x372FC, offset: 0x372FC, size: 0x8, addend: 0x0, symName: __ZNSt3__116reverse_iteratorINS0_IPNS_6vectorIcNS_9allocatorIcEEEEEEEppB7v160006Ev, symObjAddr: 0x2FE6C, symBinAddr: 0x100031AC0, symSize: 0x30 }
  - { offsetInCU: 0x37321, offset: 0x37321, size: 0x8, addend: 0x0, symName: __ZNKSt3__116reverse_iteratorINS0_IPNS_6vectorIcNS_9allocatorIcEEEEEEE4baseB7v160006Ev, symObjAddr: 0x2FE9C, symBinAddr: 0x100031AF0, symSize: 0x20C }
  - { offsetInCU: 0x3734C, offset: 0x3734C, size: 0x8, addend: 0x0, symName: __ZNSt3__119__to_address_helperINS_16reverse_iteratorINS1_IPNS_6vectorIcNS_9allocatorIcEEEEEEEEvE6__callB7v160006ERKS8_, symObjAddr: 0x300F0, symBinAddr: 0x100031D44, symSize: 0x44 }
  - { offsetInCU: 0x3736F, offset: 0x3736F, size: 0x8, addend: 0x0, symName: __ZNKSt3__116reverse_iteratorINS0_IPNS_6vectorIcNS_9allocatorIcEEEEEEEptB7v160006Ev, symObjAddr: 0x30134, symBinAddr: 0x100031D88, symSize: 0x2A0 }
  - { offsetInCU: 0x37395, offset: 0x37395, size: 0x8, addend: 0x0, symName: __ZNSt3__116reverse_iteratorIPNS_6vectorIcNS_9allocatorIcEEEEEpLB7v160006El, symObjAddr: 0x30700, symBinAddr: 0x100032354, symSize: 0x84 }
  - { offsetInCU: 0x373C8, offset: 0x373C8, size: 0x8, addend: 0x0, symName: __ZNSt3__116reverse_iteratorIPNS_6vectorIcNS_9allocatorIcEEEEEmmB7v160006Ev, symObjAddr: 0x30784, symBinAddr: 0x1000323D8, symSize: 0x6C }
  - { offsetInCU: 0x373ED, offset: 0x373ED, size: 0x8, addend: 0x0, symName: __ZNSt3__116reverse_iteratorINS0_IPNS_6vectorIcNS_9allocatorIcEEEEEEEC2B7v160006ES6_, symObjAddr: 0x307F0, symBinAddr: 0x100032444, symSize: 0x22C }
  - { offsetInCU: 0x37429, offset: 0x37429, size: 0x8, addend: 0x0, symName: __ZNSt3__116reverse_iteratorIPNS_6vectorIcNS_9allocatorIcEEEEEC2B7v160006ES5_, symObjAddr: 0x30A1C, symBinAddr: 0x100032670, symSize: 0xB8 }
  - { offsetInCU: 0x37460, offset: 0x37460, size: 0x8, addend: 0x0, symName: __ZNSt3__114__split_bufferINS_6vectorIcNS_9allocatorIcEEEERNS2_IS4_EEED2Ev, symObjAddr: 0x30AD4, symBinAddr: 0x100032728, symSize: 0x104 }
  - { offsetInCU: 0x3748B, offset: 0x3748B, size: 0x8, addend: 0x0, symName: __ZNSt3__114__split_bufferINS_6vectorIcNS_9allocatorIcEEEERNS2_IS4_EEE5clearB7v160006Ev, symObjAddr: 0x30BD8, symBinAddr: 0x10003282C, symSize: 0x68 }
  - { offsetInCU: 0x374B0, offset: 0x374B0, size: 0x8, addend: 0x0, symName: __ZNSt3__116allocator_traitsINS_9allocatorINS_6vectorIcNS1_IcEEEEEEE10deallocateB7v160006ERS5_PS4_m, symObjAddr: 0x30C40, symBinAddr: 0x100032894, symSize: 0x34 }
  - { offsetInCU: 0x374F2, offset: 0x374F2, size: 0x8, addend: 0x0, symName: __ZNKSt3__114__split_bufferINS_6vectorIcNS_9allocatorIcEEEERNS2_IS4_EEE8capacityB7v160006Ev, symObjAddr: 0x30C74, symBinAddr: 0x1000328C8, symSize: 0xBC }
  - { offsetInCU: 0x37517, offset: 0x37517, size: 0x8, addend: 0x0, symName: __ZNSt3__114__split_bufferINS_6vectorIcNS_9allocatorIcEEEERNS2_IS4_EEE17__destruct_at_endB7v160006EPS4_, symObjAddr: 0x30D30, symBinAddr: 0x100032984, symSize: 0x2C }
  - { offsetInCU: 0x37549, offset: 0x37549, size: 0x8, addend: 0x0, symName: __ZNSt3__114__split_bufferINS_6vectorIcNS_9allocatorIcEEEERNS2_IS4_EEE17__destruct_at_endB7v160006EPS4_NS_17integral_constantIbLb0EEE, symObjAddr: 0x30D5C, symBinAddr: 0x1000329B0, symSize: 0x10C }
  - { offsetInCU: 0x37588, offset: 0x37588, size: 0x8, addend: 0x0, symName: __ZNSt3__19allocatorINS_6vectorIcNS0_IcEEEEE10deallocateB7v160006EPS3_m, symObjAddr: 0x30E68, symBinAddr: 0x100032ABC, symSize: 0x50 }
  - { offsetInCU: 0x375C9, offset: 0x375C9, size: 0x8, addend: 0x0, symName: __ZNKSt3__114__split_bufferINS_6vectorIcNS_9allocatorIcEEEERNS2_IS4_EEE9__end_capB7v160006Ev, symObjAddr: 0x30EB8, symBinAddr: 0x100032B0C, symSize: 0x28 }
  - { offsetInCU: 0x375EE, offset: 0x375EE, size: 0x8, addend: 0x0, symName: __ZNKSt3__117__compressed_pairIPNS_6vectorIcNS_9allocatorIcEEEERNS2_IS4_EEE5firstB7v160006Ev, symObjAddr: 0x30EE0, symBinAddr: 0x100032B34, symSize: 0x24 }
  - { offsetInCU: 0x37613, offset: 0x37613, size: 0x8, addend: 0x0, symName: __ZNSt3__16vectorIiNS_9allocatorIiEEE9__end_capB7v160006Ev, symObjAddr: 0x30F04, symBinAddr: 0x100032B58, symSize: 0x28 }
  - { offsetInCU: 0x3763D, offset: 0x3763D, size: 0x8, addend: 0x0, symName: __ZNSt3__16vectorIiNS_9allocatorIiEEE22__construct_one_at_endB7v160006IJiEEEvDpOT_, symObjAddr: 0x30F2C, symBinAddr: 0x100032B80, symSize: 0x36C }
  - { offsetInCU: 0x37690, offset: 0x37690, size: 0x8, addend: 0x0, symName: __ZNSt3__16vectorIiNS_9allocatorIiEEE21__push_back_slow_pathIiEEvOT_, symObjAddr: 0x31298, symBinAddr: 0x100032EEC, symSize: 0x3C0 }
  - { offsetInCU: 0x376F4, offset: 0x376F4, size: 0x8, addend: 0x0, symName: __ZNSt3__117__compressed_pairIPiNS_9allocatorIiEEE5firstB7v160006Ev, symObjAddr: 0x31658, symBinAddr: 0x1000332AC, symSize: 0x24 }
  - { offsetInCU: 0x37719, offset: 0x37719, size: 0x8, addend: 0x0, symName: __ZNSt3__122__compressed_pair_elemIPiLi0ELb0EE5__getB7v160006Ev, symObjAddr: 0x3167C, symBinAddr: 0x1000332D0, symSize: 0x14 }
  - { offsetInCU: 0x37757, offset: 0x37757, size: 0x8, addend: 0x0, symName: __ZNSt3__16vectorIiNS_9allocatorIiEEE21_ConstructTransactionC1B7v160006ERS3_m, symObjAddr: 0x31690, symBinAddr: 0x1000332E4, symSize: 0x3C }
  - { offsetInCU: 0x3779E, offset: 0x3779E, size: 0x8, addend: 0x0, symName: __ZNSt3__116allocator_traitsINS_9allocatorIiEEE9constructB7v160006IiJiEvvEEvRS2_PT_DpOT0_, symObjAddr: 0x316CC, symBinAddr: 0x100033320, symSize: 0x30 }
  - { offsetInCU: 0x377F2, offset: 0x377F2, size: 0x8, addend: 0x0, symName: __ZNSt3__16vectorIiNS_9allocatorIiEEE21_ConstructTransactionD1B7v160006Ev, symObjAddr: 0x316FC, symBinAddr: 0x100033350, symSize: 0x2C }
  - { offsetInCU: 0x3781B, offset: 0x3781B, size: 0x8, addend: 0x0, symName: __ZNSt3__16vectorIiNS_9allocatorIiEEE21_ConstructTransactionC2B7v160006ERS3_m, symObjAddr: 0x31728, symBinAddr: 0x10003337C, symSize: 0x1D0 }
  - { offsetInCU: 0x37862, offset: 0x37862, size: 0x8, addend: 0x0, symName: __ZNKSt3__16vectorIiNS_9allocatorIiEEE19__annotate_increaseB7v160006Em, symObjAddr: 0x318F8, symBinAddr: 0x10003354C, symSize: 0xD8 }
  - { offsetInCU: 0x37896, offset: 0x37896, size: 0x8, addend: 0x0, symName: __ZNSt3__16vectorIiNS_9allocatorIiEEE21_ConstructTransactionD2B7v160006Ev, symObjAddr: 0x31AD8, symBinAddr: 0x10003372C, symSize: 0x278 }
  - { offsetInCU: 0x378BF, offset: 0x378BF, size: 0x8, addend: 0x0, symName: __ZNKSt3__16vectorIiNS_9allocatorIiEEE17__annotate_shrinkB7v160006Em, symObjAddr: 0x31D50, symBinAddr: 0x1000339A4, symSize: 0xC8 }
  - { offsetInCU: 0x378F2, offset: 0x378F2, size: 0x8, addend: 0x0, symName: __ZNKSt3__16vectorIiNS_9allocatorIiEEE11__recommendB7v160006Em, symObjAddr: 0x31E18, symBinAddr: 0x100033A6C, symSize: 0x384 }
  - { offsetInCU: 0x3794D, offset: 0x3794D, size: 0x8, addend: 0x0, symName: __ZNSt3__114__split_bufferIiRNS_9allocatorIiEEEC1EmmS3_, symObjAddr: 0x3219C, symBinAddr: 0x100033DF0, symSize: 0x44 }
  - { offsetInCU: 0x379A2, offset: 0x379A2, size: 0x8, addend: 0x0, symName: __ZNSt3__114__split_bufferIiRNS_9allocatorIiEEED1Ev, symObjAddr: 0x32754, symBinAddr: 0x1000343A8, symSize: 0x2C }
  - { offsetInCU: 0x379CC, offset: 0x379CC, size: 0x8, addend: 0x0, symName: __ZNKSt3__16vectorIiNS_9allocatorIiEEE8max_sizeEv, symObjAddr: 0x32780, symBinAddr: 0x1000343D4, symSize: 0x2FC }
  - { offsetInCU: 0x379F4, offset: 0x379F4, size: 0x8, addend: 0x0, symName: __ZNKSt3__16vectorIiNS_9allocatorIiEEE20__throw_length_errorB7v160006Ev, symObjAddr: 0x32A7C, symBinAddr: 0x1000346D0, symSize: 0x20 }
  - { offsetInCU: 0x37A23, offset: 0x37A23, size: 0x8, addend: 0x0, symName: __ZNSt3__116allocator_traitsINS_9allocatorIiEEE8max_sizeB7v160006IS2_vvEEmRKS2_, symObjAddr: 0x32A9C, symBinAddr: 0x1000346F0, symSize: 0x28 }
  - { offsetInCU: 0x37A4E, offset: 0x37A4E, size: 0x8, addend: 0x0, symName: __ZNKSt3__16vectorIiNS_9allocatorIiEEE7__allocB7v160006Ev, symObjAddr: 0x32AC4, symBinAddr: 0x100034718, symSize: 0x28 }
  - { offsetInCU: 0x37A73, offset: 0x37A73, size: 0x8, addend: 0x0, symName: __ZNKSt3__117__compressed_pairIPiNS_9allocatorIiEEE6secondB7v160006Ev, symObjAddr: 0x32AEC, symBinAddr: 0x100034740, symSize: 0x24 }
  - { offsetInCU: 0x37A98, offset: 0x37A98, size: 0x8, addend: 0x0, symName: __ZNKSt3__122__compressed_pair_elemINS_9allocatorIiEELi1ELb1EE5__getB7v160006Ev, symObjAddr: 0x32B10, symBinAddr: 0x100034764, symSize: 0x14 }
  - { offsetInCU: 0x37ABD, offset: 0x37ABD, size: 0x8, addend: 0x0, symName: __ZNSt3__114__split_bufferIiRNS_9allocatorIiEEEC2EmmS3_, symObjAddr: 0x32B24, symBinAddr: 0x100034778, symSize: 0x520 }
  - { offsetInCU: 0x37B37, offset: 0x37B37, size: 0x8, addend: 0x0, symName: __ZNSt3__117__compressed_pairIPiRNS_9allocatorIiEEEC1B7v160006IDnS4_EEOT_OT0_, symObjAddr: 0x33044, symBinAddr: 0x100034C98, symSize: 0x3C }
  - { offsetInCU: 0x37B8E, offset: 0x37B8E, size: 0x8, addend: 0x0, symName: __ZNSt3__114__split_bufferIiRNS_9allocatorIiEEE7__allocB7v160006Ev, symObjAddr: 0x3330C, symBinAddr: 0x100034F60, symSize: 0x28 }
  - { offsetInCU: 0x37BB3, offset: 0x37BB3, size: 0x8, addend: 0x0, symName: __ZNSt3__114__split_bufferIiRNS_9allocatorIiEEE9__end_capB7v160006Ev, symObjAddr: 0x33334, symBinAddr: 0x100034F88, symSize: 0x28 }
  - { offsetInCU: 0x37BD8, offset: 0x37BD8, size: 0x8, addend: 0x0, symName: __ZNSt3__117__compressed_pairIPiRNS_9allocatorIiEEEC2B7v160006IDnS4_EEOT_OT0_, symObjAddr: 0x3335C, symBinAddr: 0x100034FB0, symSize: 0x48 }
  - { offsetInCU: 0x37C2F, offset: 0x37C2F, size: 0x8, addend: 0x0, symName: __ZNSt3__122__compressed_pair_elemIRNS_9allocatorIiEELi1ELb0EEC2B7v160006IS3_vEEOT_, symObjAddr: 0x333A4, symBinAddr: 0x100034FF8, symSize: 0x70 }
  - { offsetInCU: 0x37C70, offset: 0x37C70, size: 0x8, addend: 0x0, symName: __ZNSt3__19allocatorIiE8allocateB7v160006Em, symObjAddr: 0x33414, symBinAddr: 0x100035068, symSize: 0x5C }
  - { offsetInCU: 0x37CA3, offset: 0x37CA3, size: 0x8, addend: 0x0, symName: __ZNSt3__117__compressed_pairIPiRNS_9allocatorIiEEE6secondB7v160006Ev, symObjAddr: 0x33470, symBinAddr: 0x1000350C4, symSize: 0x28 }
  - { offsetInCU: 0x37CC8, offset: 0x37CC8, size: 0x8, addend: 0x0, symName: __ZNSt3__122__compressed_pair_elemIRNS_9allocatorIiEELi1ELb0EE5__getB7v160006Ev, symObjAddr: 0x33498, symBinAddr: 0x1000350EC, symSize: 0x60 }
  - { offsetInCU: 0x37CED, offset: 0x37CED, size: 0x8, addend: 0x0, symName: __ZNSt3__117__compressed_pairIPiRNS_9allocatorIiEEE5firstB7v160006Ev, symObjAddr: 0x334F8, symBinAddr: 0x10003514C, symSize: 0x24 }
  - { offsetInCU: 0x37D12, offset: 0x37D12, size: 0x8, addend: 0x0, symName: __ZNSt3__116reverse_iteratorIPiEC1B7v160006ES1_, symObjAddr: 0x339C4, symBinAddr: 0x100035618, symSize: 0x34 }
  - { offsetInCU: 0x37D49, offset: 0x37D49, size: 0x8, addend: 0x0, symName: __ZNKSt3__116reverse_iteratorIPiE4baseB7v160006Ev, symObjAddr: 0x339F8, symBinAddr: 0x10003564C, symSize: 0x64 }
  - { offsetInCU: 0x37D6E, offset: 0x37D6E, size: 0x8, addend: 0x0, symName: __ZNKSt3__16vectorIiNS_9allocatorIiEEE14__annotate_newB7v160006Em, symObjAddr: 0x33B90, symBinAddr: 0x1000357E4, symSize: 0xC0 }
  - { offsetInCU: 0x37DC5, offset: 0x37DC5, size: 0x8, addend: 0x0, symName: __ZNKSt3__111__move_loopINS_17_ClassicAlgPolicyEEclB7v160006INS_16reverse_iteratorIPiEES6_S6_EENS_4pairIT_T1_EES8_T0_S9_, symObjAddr: 0x35534, symBinAddr: 0x100037188, symSize: 0x3F8 }
  - { offsetInCU: 0x37E3C, offset: 0x37E3C, size: 0x8, addend: 0x0, symName: __ZNSt3__119__unwrap_range_implINS_16reverse_iteratorIPiEES3_E8__unwrapB7v160006ES3_S3_, symObjAddr: 0x3640C, symBinAddr: 0x100038060, symSize: 0x448 }
  - { offsetInCU: 0x37E7A, offset: 0x37E7A, size: 0x8, addend: 0x0, symName: __ZNSt3__14pairINS_16reverse_iteratorIPiEES3_EC1B7v160006IS3_S3_LPv0EEEOT_OT0_, symObjAddr: 0x36854, symBinAddr: 0x1000384A8, symSize: 0x3C }
  - { offsetInCU: 0x37ED7, offset: 0x37ED7, size: 0x8, addend: 0x0, symName: __ZNSt3__14pairINS_16reverse_iteratorIPiEES3_EC2B7v160006IS3_S3_LPv0EEEOT_OT0_, symObjAddr: 0x36890, symBinAddr: 0x1000384E4, symSize: 0x54 }
  - { offsetInCU: 0x37F34, offset: 0x37F34, size: 0x8, addend: 0x0, symName: __ZNSt3__18_IterOpsINS_17_ClassicAlgPolicyEE11__iter_moveB7v160006IRNS_16reverse_iteratorIPiEEEENS_9enable_ifIXsr12is_referenceIDTdeclsr3stdE7declvalIRT_EEEEE5valueEDTclsr3stdE4movedeclsr3stdE7declvalISA_EEEEE4typeEOS9_, symObjAddr: 0x3692C, symBinAddr: 0x100038580, symSize: 0x28 }
  - { offsetInCU: 0x37F60, offset: 0x37F60, size: 0x8, addend: 0x0, symName: __ZNKSt3__116reverse_iteratorIPiEdeB7v160006Ev, symObjAddr: 0x36954, symBinAddr: 0x1000385A8, symSize: 0x74 }
  - { offsetInCU: 0x37F93, offset: 0x37F93, size: 0x8, addend: 0x0, symName: __ZNSt3__116reverse_iteratorIPiEppB7v160006Ev, symObjAddr: 0x369C8, symBinAddr: 0x10003861C, symSize: 0x6C }
  - { offsetInCU: 0x37FB8, offset: 0x37FB8, size: 0x8, addend: 0x0, symName: __ZNSt3__18_IterOpsINS_17_ClassicAlgPolicyEE25__validate_iter_referenceB7v160006IRNS_16reverse_iteratorIPiEEEEvv, symObjAddr: 0x36A34, symBinAddr: 0x100038688, symSize: 0x4 }
  - { offsetInCU: 0x37FD6, offset: 0x37FD6, size: 0x8, addend: 0x0, symName: __ZNSt3__118__unwrap_iter_implINS_16reverse_iteratorIPiEELb0EE8__unwrapB7v160006ES3_, symObjAddr: 0x36A38, symBinAddr: 0x10003868C, symSize: 0x274 }
  - { offsetInCU: 0x37FFD, offset: 0x37FFD, size: 0x8, addend: 0x0, symName: __ZNSt3__119__unwrap_range_implINS_16reverse_iteratorIPiEES3_E8__rewrapB7v160006ES3_S3_, symObjAddr: 0x36CAC, symBinAddr: 0x100038900, symSize: 0x3D4 }
  - { offsetInCU: 0x38036, offset: 0x38036, size: 0x8, addend: 0x0, symName: __ZNSt3__118__unwrap_iter_implINS_16reverse_iteratorIPiEELb0EE8__rewrapB7v160006ES3_S3_, symObjAddr: 0x37080, symBinAddr: 0x100038CD4, symSize: 0x2E0 }
  - { offsetInCU: 0x3806B, offset: 0x3806B, size: 0x8, addend: 0x0, symName: __ZNSt3__116reverse_iteratorIPiEC2B7v160006ES1_, symObjAddr: 0x37360, symBinAddr: 0x100038FB4, symSize: 0xB8 }
  - { offsetInCU: 0x380A2, offset: 0x380A2, size: 0x8, addend: 0x0, symName: __ZNSt3__114__split_bufferIiRNS_9allocatorIiEEED2Ev, symObjAddr: 0x37418, symBinAddr: 0x10003906C, symSize: 0x104 }
  - { offsetInCU: 0x380CD, offset: 0x380CD, size: 0x8, addend: 0x0, symName: __ZNSt3__114__split_bufferIiRNS_9allocatorIiEEE5clearB7v160006Ev, symObjAddr: 0x3751C, symBinAddr: 0x100039170, symSize: 0x68 }
  - { offsetInCU: 0x380F2, offset: 0x380F2, size: 0x8, addend: 0x0, symName: __ZNKSt3__114__split_bufferIiRNS_9allocatorIiEEE8capacityB7v160006Ev, symObjAddr: 0x37584, symBinAddr: 0x1000391D8, symSize: 0xBC }
  - { offsetInCU: 0x38117, offset: 0x38117, size: 0x8, addend: 0x0, symName: __ZNSt3__114__split_bufferIiRNS_9allocatorIiEEE17__destruct_at_endB7v160006EPi, symObjAddr: 0x37640, symBinAddr: 0x100039294, symSize: 0x2C }
  - { offsetInCU: 0x38149, offset: 0x38149, size: 0x8, addend: 0x0, symName: __ZNSt3__114__split_bufferIiRNS_9allocatorIiEEE17__destruct_at_endB7v160006EPiNS_17integral_constantIbLb0EEE, symObjAddr: 0x3766C, symBinAddr: 0x1000392C0, symSize: 0x10C }
  - { offsetInCU: 0x38188, offset: 0x38188, size: 0x8, addend: 0x0, symName: __ZNKSt3__114__split_bufferIiRNS_9allocatorIiEEE9__end_capB7v160006Ev, symObjAddr: 0x37778, symBinAddr: 0x1000393CC, symSize: 0x28 }
  - { offsetInCU: 0x381AD, offset: 0x381AD, size: 0x8, addend: 0x0, symName: __ZNKSt3__117__compressed_pairIPiRNS_9allocatorIiEEE5firstB7v160006Ev, symObjAddr: 0x377A0, symBinAddr: 0x1000393F4, symSize: 0x24 }
  - { offsetInCU: 0x381D2, offset: 0x381D2, size: 0x8, addend: 0x0, symName: __ZNSt3__16vectorIiNS_9allocatorIiEEE11__make_iterB7v160006EPi, symObjAddr: 0x377C4, symBinAddr: 0x100039418, symSize: 0x200 }
  - { offsetInCU: 0x38208, offset: 0x38208, size: 0x8, addend: 0x0, symName: __ZNSt3__111__wrap_iterIPiEC1B7v160006EPKvS1_, symObjAddr: 0x379C4, symBinAddr: 0x100039618, symSize: 0x3C }
  - { offsetInCU: 0x3824D, offset: 0x3824D, size: 0x8, addend: 0x0, symName: __ZNSt3__111__wrap_iterIPiEC2B7v160006EPKvS1_, symObjAddr: 0x37A00, symBinAddr: 0x100039654, symSize: 0x74 }
  - { offsetInCU: 0x38292, offset: 0x38292, size: 0x8, addend: 0x0, symName: __ZNKSt3__111__wrap_iterIPiE4baseB7v160006Ev, symObjAddr: 0x37ABC, symBinAddr: 0x100039710, symSize: 0x60 }
  - { offsetInCU: 0x382B7, offset: 0x382B7, size: 0x8, addend: 0x0, symName: __ZNSt3__16vectorINS0_IcNS_9allocatorIcEEEENS1_IS3_EEE7__clearB7v160006Ev, symObjAddr: 0x37B1C, symBinAddr: 0x100039770, symSize: 0x64 }
  - { offsetInCU: 0x382DC, offset: 0x382DC, size: 0x8, addend: 0x0, symName: __ZNSt3__16vectorINS0_IcNS_9allocatorIcEEEENS1_IS3_EEE22__base_destruct_at_endB7v160006EPS3_, symObjAddr: 0x37B80, symBinAddr: 0x1000397D4, symSize: 0x114 }
  - { offsetInCU: 0x3831F, offset: 0x3831F, size: 0x8, addend: 0x0, symName: __ZNSt3__16vectorINS0_IcNS_9allocatorIcEEEENS1_IS3_EEED2B7v160006Ev, symObjAddr: 0x37C94, symBinAddr: 0x1000398E8, symSize: 0x1F8 }
  - { offsetInCU: 0x38349, offset: 0x38349, size: 0x8, addend: 0x0, symName: __ZNSt3__16vectorINS0_IcNS_9allocatorIcEEEENS1_IS3_EEE16__destroy_vectorC1ERS5_, symObjAddr: 0x37E8C, symBinAddr: 0x100039AE0, symSize: 0x34 }
  - { offsetInCU: 0x38381, offset: 0x38381, size: 0x8, addend: 0x0, symName: __ZNSt3__16vectorINS0_IcNS_9allocatorIcEEEENS1_IS3_EEE16__destroy_vectorclB7v160006Ev, symObjAddr: 0x37EC0, symBinAddr: 0x100039B14, symSize: 0x264 }
  - { offsetInCU: 0x383A6, offset: 0x383A6, size: 0x8, addend: 0x0, symName: __ZNSt3__16vectorINS0_IcNS_9allocatorIcEEEENS1_IS3_EEE16__destroy_vectorC2ERS5_, symObjAddr: 0x38124, symBinAddr: 0x100039D78, symSize: 0x70 }
  - { offsetInCU: 0x383DE, offset: 0x383DE, size: 0x8, addend: 0x0, symName: __ZNSt3__16vectorINS_4pairINS0_IcNS_9allocatorIcEEEENS0_ImNS2_ImEEEEEENS2_IS7_EEEC1B7v160006Ev, symObjAddr: 0x381A4, symBinAddr: 0x100039DF8, symSize: 0x2C }
  - { offsetInCU: 0x38406, offset: 0x38406, size: 0x8, addend: 0x0, symName: __ZNSt3__16vectorINS_4pairINS0_IcNS_9allocatorIcEEEENS0_ImNS2_ImEEEEEENS2_IS7_EEE5beginB7v160006Ev, symObjAddr: 0x381D0, symBinAddr: 0x100039E24, symSize: 0x268 }
  - { offsetInCU: 0x3842D, offset: 0x3842D, size: 0x8, addend: 0x0, symName: __ZNSt3__16vectorINS_4pairINS0_IcNS_9allocatorIcEEEENS0_ImNS2_ImEEEEEENS2_IS7_EEE3endB7v160006Ev, symObjAddr: 0x38438, symBinAddr: 0x10003A08C, symSize: 0x26C }
  - { offsetInCU: 0x38455, offset: 0x38455, size: 0x8, addend: 0x0, symName: __ZNKSt3__111__wrap_iterIPNS_4pairINS_6vectorIcNS_9allocatorIcEEEENS2_ImNS3_ImEEEEEEEdeB7v160006Ev, symObjAddr: 0x386D8, symBinAddr: 0x10003A32C, symSize: 0x60 }
  - { offsetInCU: 0x38479, offset: 0x38479, size: 0x8, addend: 0x0, symName: __ZNSt3__16vectorIcNS_9allocatorIcEEE5beginB7v160006Ev, symObjAddr: 0x38B8C, symBinAddr: 0x10003A7E0, symSize: 0x268 }
  - { offsetInCU: 0x384A0, offset: 0x384A0, size: 0x8, addend: 0x0, symName: __ZNSt3__16vectorIcNS_9allocatorIcEEE3endB7v160006Ev, symObjAddr: 0x38DF4, symBinAddr: 0x10003AA48, symSize: 0x26C }
  - { offsetInCU: 0x384C7, offset: 0x384C7, size: 0x8, addend: 0x0, symName: __ZNSt3__16vectorImNS_9allocatorImEEE9push_backB7v160006ERKm, symObjAddr: 0x39060, symBinAddr: 0x10003ACB4, symSize: 0xE0 }
  - { offsetInCU: 0x384FD, offset: 0x384FD, size: 0x8, addend: 0x0, symName: __ZNSt3__111__wrap_iterIPNS_4pairINS_6vectorIcNS_9allocatorIcEEEENS2_ImNS3_ImEEEEEEEppB7v160006Ev, symObjAddr: 0x39140, symBinAddr: 0x10003AD94, symSize: 0x68 }
  - { offsetInCU: 0x38521, offset: 0x38521, size: 0x8, addend: 0x0, symName: __ZNSt3__16vectorINS_4pairINS0_IcNS_9allocatorIcEEEENS0_ImNS2_ImEEEEEENS2_IS7_EEE12emplace_backIJRS4_S6_EEERS7_DpOT_, symObjAddr: 0x391A8, symBinAddr: 0x10003ADFC, symSize: 0xF4 }
  - { offsetInCU: 0x38576, offset: 0x38576, size: 0x8, addend: 0x0, symName: __ZNSt3__16vectorImNS_9allocatorImEEEC1B7v160006ESt16initializer_listImE, symObjAddr: 0x3929C, symBinAddr: 0x10003AEF0, symSize: 0x248 }
  - { offsetInCU: 0x385B5, offset: 0x385B5, size: 0x8, addend: 0x0, symName: __ZNSt3__16vectorImNS_9allocatorImEEED1B7v160006Ev, symObjAddr: 0x394E4, symBinAddr: 0x10003B138, symSize: 0x2C }
  - { offsetInCU: 0x385DE, offset: 0x385DE, size: 0x8, addend: 0x0, symName: __ZNKSt3__16vectorImNS_9allocatorImEEE4sizeB7v160006Ev, symObjAddr: 0x39558, symBinAddr: 0x10003B1AC, symSize: 0xB0 }
  - { offsetInCU: 0x38603, offset: 0x38603, size: 0x8, addend: 0x0, symName: __ZNSt3__16vectorImNS_9allocatorImEEEC1B7v160006Ev, symObjAddr: 0x39608, symBinAddr: 0x10003B25C, symSize: 0x2C }
  - { offsetInCU: 0x3862C, offset: 0x3862C, size: 0x8, addend: 0x0, symName: __ZNK10CSelfMatchIcE7combineILm2EEEvRNSt3__16vectorINS2_5arrayImXT_EEENS2_9allocatorIS5_EEEERKNS3_ImNS6_ImEEEERSB_mmm, symObjAddr: 0x39634, symBinAddr: 0x10003B288, symSize: 0x39C }
  - { offsetInCU: 0x386F3, offset: 0x386F3, size: 0x8, addend: 0x0, symName: __ZNSt3__16vectorINS_4pairINS0_IcNS_9allocatorIcEEEENS0_ImNS2_ImEEEEEENS2_IS7_EEED1B7v160006Ev, symObjAddr: 0x399D0, symBinAddr: 0x10003B624, symSize: 0x2C }
  - { offsetInCU: 0x3871C, offset: 0x3871C, size: 0x8, addend: 0x0, symName: __ZNSt3__16vectorINS_4pairINS0_IcNS_9allocatorIcEEEENS0_ImNS2_ImEEEEEENS2_IS7_EEEC2B7v160006Ev, symObjAddr: 0x399FC, symBinAddr: 0x10003B650, symSize: 0x2F4 }
  - { offsetInCU: 0x38746, offset: 0x38746, size: 0x8, addend: 0x0, symName: __ZNSt3__117__compressed_pairIPNS_4pairINS_6vectorIcNS_9allocatorIcEEEENS2_ImNS3_ImEEEEEENS3_IS8_EEEC1B7v160006IDnNS_18__default_init_tagEEEOT_OT0_, symObjAddr: 0x39CF0, symBinAddr: 0x10003B944, symSize: 0x3C }
  - { offsetInCU: 0x3879D, offset: 0x3879D, size: 0x8, addend: 0x0, symName: __ZNSt3__117__compressed_pairIPNS_4pairINS_6vectorIcNS_9allocatorIcEEEENS2_ImNS3_ImEEEEEENS3_IS8_EEEC2B7v160006IDnNS_18__default_init_tagEEEOT_OT0_, symObjAddr: 0x39D3C, symBinAddr: 0x10003B990, symSize: 0x40 }
  - { offsetInCU: 0x387F4, offset: 0x387F4, size: 0x8, addend: 0x0, symName: __ZNSt3__122__compressed_pair_elemIPNS_4pairINS_6vectorIcNS_9allocatorIcEEEENS2_ImNS3_ImEEEEEELi0ELb0EEC2B7v160006IDnvEEOT_, symObjAddr: 0x39D7C, symBinAddr: 0x10003B9D0, symSize: 0x64 }
  - { offsetInCU: 0x38835, offset: 0x38835, size: 0x8, addend: 0x0, symName: __ZNSt3__122__compressed_pair_elemINS_9allocatorINS_4pairINS_6vectorIcNS1_IcEEEENS3_ImNS1_ImEEEEEEEELi1ELb1EEC2B7v160006ENS_18__default_init_tagE, symObjAddr: 0x39DE0, symBinAddr: 0x10003BA34, symSize: 0x2C }
  - { offsetInCU: 0x38868, offset: 0x38868, size: 0x8, addend: 0x0, symName: __ZNSt3__19allocatorINS_4pairINS_6vectorIcNS0_IcEEEENS2_ImNS0_ImEEEEEEEC2B7v160006Ev, symObjAddr: 0x39E0C, symBinAddr: 0x10003BA60, symSize: 0x2C }
  - { offsetInCU: 0x38891, offset: 0x38891, size: 0x8, addend: 0x0, symName: __ZNSt3__116__non_trivial_ifILb1ENS_9allocatorINS_4pairINS_6vectorIcNS1_IcEEEENS3_ImNS1_ImEEEEEEEEEC2B7v160006Ev, symObjAddr: 0x39E38, symBinAddr: 0x10003BA8C, symSize: 0x14 }
  - { offsetInCU: 0x388BA, offset: 0x388BA, size: 0x8, addend: 0x0, symName: __ZNSt3__16vectorINS_4pairINS0_IcNS_9allocatorIcEEEENS0_ImNS2_ImEEEEEENS2_IS7_EEE11__make_iterB7v160006EPS7_, symObjAddr: 0x39E4C, symBinAddr: 0x10003BAA0, symSize: 0x200 }
  - { offsetInCU: 0x388F0, offset: 0x388F0, size: 0x8, addend: 0x0, symName: __ZNSt3__111__wrap_iterIPNS_4pairINS_6vectorIcNS_9allocatorIcEEEENS2_ImNS3_ImEEEEEEEC1B7v160006EPKvS9_, symObjAddr: 0x3A04C, symBinAddr: 0x10003BCA0, symSize: 0x3C }
  - { offsetInCU: 0x38935, offset: 0x38935, size: 0x8, addend: 0x0, symName: __ZNSt3__111__wrap_iterIPNS_4pairINS_6vectorIcNS_9allocatorIcEEEENS2_ImNS3_ImEEEEEEEC2B7v160006EPKvS9_, symObjAddr: 0x3A088, symBinAddr: 0x10003BCDC, symSize: 0x74 }
  - { offsetInCU: 0x3897A, offset: 0x3897A, size: 0x8, addend: 0x0, symName: __ZNKSt3__111__wrap_iterIPNS_4pairINS_6vectorIcNS_9allocatorIcEEEENS2_ImNS3_ImEEEEEEE4baseB7v160006Ev, symObjAddr: 0x3A144, symBinAddr: 0x10003BD98, symSize: 0x60 }
  - { offsetInCU: 0x3899F, offset: 0x3899F, size: 0x8, addend: 0x0, symName: __ZNSt3__110__get_pairILm0EE3getB7v160006INS_6vectorIcNS_9allocatorIcEEEENS3_ImNS4_ImEEEEEERT_RNS_4pairIS9_T0_EE, symObjAddr: 0x3A1A4, symBinAddr: 0x10003BDF8, symSize: 0x14 }
  - { offsetInCU: 0x389D5, offset: 0x389D5, size: 0x8, addend: 0x0, symName: __ZNSt3__110__get_pairILm1EE3getB7v160006INS_6vectorIcNS_9allocatorIcEEEENS3_ImNS4_ImEEEEEERT0_RNS_4pairIT_S9_EE, symObjAddr: 0x3A1B8, symBinAddr: 0x10003BE0C, symSize: 0x18 }
  - { offsetInCU: 0x38A0B, offset: 0x38A0B, size: 0x8, addend: 0x0, symName: __ZNKSt3__111__wrap_iterIPcEdeB7v160006Ev, symObjAddr: 0x3A584, symBinAddr: 0x10003C1D8, symSize: 0x60 }
  - { offsetInCU: 0x38A30, offset: 0x38A30, size: 0x8, addend: 0x0, symName: __ZNSt3__111__wrap_iterIPcEppB7v160006Ev, symObjAddr: 0x3A5E4, symBinAddr: 0x10003C238, symSize: 0x68 }
  - { offsetInCU: 0x38A55, offset: 0x38A55, size: 0x8, addend: 0x0, symName: __ZNKSt3__111__wrap_iterIPcE4baseB7v160006Ev, symObjAddr: 0x3A694, symBinAddr: 0x10003C2E8, symSize: 0x60 }
  - { offsetInCU: 0x38A7A, offset: 0x38A7A, size: 0x8, addend: 0x0, symName: __ZNSt3__16vectorIcNS_9allocatorIcEEE11__make_iterB7v160006EPc, symObjAddr: 0x3A6F4, symBinAddr: 0x10003C348, symSize: 0x200 }
  - { offsetInCU: 0x38AB0, offset: 0x38AB0, size: 0x8, addend: 0x0, symName: __ZNSt3__111__wrap_iterIPcEC1B7v160006EPKvS1_, symObjAddr: 0x3A8F4, symBinAddr: 0x10003C548, symSize: 0x3C }
  - { offsetInCU: 0x38AF5, offset: 0x38AF5, size: 0x8, addend: 0x0, symName: __ZNSt3__111__wrap_iterIPcEC2B7v160006EPKvS1_, symObjAddr: 0x3A930, symBinAddr: 0x10003C584, symSize: 0x74 }
  - { offsetInCU: 0x38B3A, offset: 0x38B3A, size: 0x8, addend: 0x0, symName: __ZNSt3__16vectorImNS_9allocatorImEEE9__end_capB7v160006Ev, symObjAddr: 0x3A9A4, symBinAddr: 0x10003C5F8, symSize: 0x28 }
  - { offsetInCU: 0x38B5F, offset: 0x38B5F, size: 0x8, addend: 0x0, symName: __ZNSt3__16vectorImNS_9allocatorImEEE22__construct_one_at_endB7v160006IJRKmEEEvDpOT_, symObjAddr: 0x3A9CC, symBinAddr: 0x10003C620, symSize: 0x36C }
  - { offsetInCU: 0x38BB2, offset: 0x38BB2, size: 0x8, addend: 0x0, symName: __ZNSt3__16vectorImNS_9allocatorImEEE21__push_back_slow_pathIRKmEEvOT_, symObjAddr: 0x3AD38, symBinAddr: 0x10003C98C, symSize: 0x3C0 }
  - { offsetInCU: 0x38C16, offset: 0x38C16, size: 0x8, addend: 0x0, symName: __ZNSt3__117__compressed_pairIPmNS_9allocatorImEEE5firstB7v160006Ev, symObjAddr: 0x3B0F8, symBinAddr: 0x10003CD4C, symSize: 0x24 }
  - { offsetInCU: 0x38C3B, offset: 0x38C3B, size: 0x8, addend: 0x0, symName: __ZNSt3__122__compressed_pair_elemIPmLi0ELb0EE5__getB7v160006Ev, symObjAddr: 0x3B11C, symBinAddr: 0x10003CD70, symSize: 0x14 }
  - { offsetInCU: 0x38C79, offset: 0x38C79, size: 0x8, addend: 0x0, symName: __ZNSt3__16vectorImNS_9allocatorImEEE21_ConstructTransactionC1B7v160006ERS3_m, symObjAddr: 0x3B130, symBinAddr: 0x10003CD84, symSize: 0x3C }
  - { offsetInCU: 0x38CC0, offset: 0x38CC0, size: 0x8, addend: 0x0, symName: __ZNSt3__116allocator_traitsINS_9allocatorImEEE9constructB7v160006ImJRKmEvvEEvRS2_PT_DpOT0_, symObjAddr: 0x3B16C, symBinAddr: 0x10003CDC0, symSize: 0x30 }
  - { offsetInCU: 0x38D14, offset: 0x38D14, size: 0x8, addend: 0x0, symName: __ZNSt3__16vectorImNS_9allocatorImEEE7__allocB7v160006Ev, symObjAddr: 0x3B19C, symBinAddr: 0x10003CDF0, symSize: 0x28 }
  - { offsetInCU: 0x38D39, offset: 0x38D39, size: 0x8, addend: 0x0, symName: __ZNSt3__16vectorImNS_9allocatorImEEE21_ConstructTransactionD1B7v160006Ev, symObjAddr: 0x3B1D8, symBinAddr: 0x10003CE2C, symSize: 0x2C }
  - { offsetInCU: 0x38D62, offset: 0x38D62, size: 0x8, addend: 0x0, symName: __ZNSt3__16vectorImNS_9allocatorImEEE21_ConstructTransactionC2B7v160006ERS3_m, symObjAddr: 0x3B204, symBinAddr: 0x10003CE58, symSize: 0x1D0 }
  - { offsetInCU: 0x38DA9, offset: 0x38DA9, size: 0x8, addend: 0x0, symName: __ZNKSt3__16vectorImNS_9allocatorImEEE19__annotate_increaseB7v160006Em, symObjAddr: 0x3B3D4, symBinAddr: 0x10003D028, symSize: 0xD8 }
  - { offsetInCU: 0x38DDD, offset: 0x38DDD, size: 0x8, addend: 0x0, symName: __ZNKSt3__16vectorImNS_9allocatorImEEE31__annotate_contiguous_containerEPKvS5_S5_S5_, symObjAddr: 0x3B4AC, symBinAddr: 0x10003D100, symSize: 0x58 }
  - { offsetInCU: 0x38E3E, offset: 0x38E3E, size: 0x8, addend: 0x0, symName: __ZNKSt3__16vectorImNS_9allocatorImEEE4dataB7v160006Ev, symObjAddr: 0x3B504, symBinAddr: 0x10003D158, symSize: 0x64 }
  - { offsetInCU: 0x38E63, offset: 0x38E63, size: 0x8, addend: 0x0, symName: __ZNKSt3__16vectorImNS_9allocatorImEEE8capacityB7v160006Ev, symObjAddr: 0x3B568, symBinAddr: 0x10003D1BC, symSize: 0xBC }
  - { offsetInCU: 0x38E88, offset: 0x38E88, size: 0x8, addend: 0x0, symName: __ZNKSt3__16vectorImNS_9allocatorImEEE9__end_capB7v160006Ev, symObjAddr: 0x3B624, symBinAddr: 0x10003D278, symSize: 0x28 }
  - { offsetInCU: 0x38EAD, offset: 0x38EAD, size: 0x8, addend: 0x0, symName: __ZNKSt3__117__compressed_pairIPmNS_9allocatorImEEE5firstB7v160006Ev, symObjAddr: 0x3B64C, symBinAddr: 0x10003D2A0, symSize: 0x24 }
  - { offsetInCU: 0x38ED2, offset: 0x38ED2, size: 0x8, addend: 0x0, symName: __ZNKSt3__122__compressed_pair_elemIPmLi0ELb0EE5__getB7v160006Ev, symObjAddr: 0x3B670, symBinAddr: 0x10003D2C4, symSize: 0x14 }
  - { offsetInCU: 0x38EF7, offset: 0x38EF7, size: 0x8, addend: 0x0, symName: __ZNSt3__117__compressed_pairIPmNS_9allocatorImEEE6secondB7v160006Ev, symObjAddr: 0x3B73C, symBinAddr: 0x10003D390, symSize: 0x24 }
  - { offsetInCU: 0x38F1C, offset: 0x38F1C, size: 0x8, addend: 0x0, symName: __ZNSt3__122__compressed_pair_elemINS_9allocatorImEELi1ELb1EE5__getB7v160006Ev, symObjAddr: 0x3B760, symBinAddr: 0x10003D3B4, symSize: 0x14 }
  - { offsetInCU: 0x38F41, offset: 0x38F41, size: 0x8, addend: 0x0, symName: __ZNSt3__16vectorImNS_9allocatorImEEE21_ConstructTransactionD2B7v160006Ev, symObjAddr: 0x3B774, symBinAddr: 0x10003D3C8, symSize: 0x278 }
  - { offsetInCU: 0x38F6A, offset: 0x38F6A, size: 0x8, addend: 0x0, symName: __ZNKSt3__16vectorImNS_9allocatorImEEE17__annotate_shrinkB7v160006Em, symObjAddr: 0x3B9EC, symBinAddr: 0x10003D640, symSize: 0xC8 }
  - { offsetInCU: 0x38F9D, offset: 0x38F9D, size: 0x8, addend: 0x0, symName: __ZNKSt3__16vectorImNS_9allocatorImEEE11__recommendB7v160006Em, symObjAddr: 0x3BAB4, symBinAddr: 0x10003D708, symSize: 0x384 }
  - { offsetInCU: 0x38FF8, offset: 0x38FF8, size: 0x8, addend: 0x0, symName: __ZNSt3__114__split_bufferImRNS_9allocatorImEEEC1EmmS3_, symObjAddr: 0x3BE38, symBinAddr: 0x10003DA8C, symSize: 0x44 }
  - { offsetInCU: 0x3904D, offset: 0x3904D, size: 0x8, addend: 0x0, symName: __ZNSt3__114__split_bufferImRNS_9allocatorImEEED1Ev, symObjAddr: 0x3C3F0, symBinAddr: 0x10003E044, symSize: 0x2C }
  - { offsetInCU: 0x39077, offset: 0x39077, size: 0x8, addend: 0x0, symName: __ZNKSt3__16vectorImNS_9allocatorImEEE8max_sizeEv, symObjAddr: 0x3C41C, symBinAddr: 0x10003E070, symSize: 0x2FC }
  - { offsetInCU: 0x3909F, offset: 0x3909F, size: 0x8, addend: 0x0, symName: __ZNKSt3__16vectorImNS_9allocatorImEEE20__throw_length_errorB7v160006Ev, symObjAddr: 0x3C718, symBinAddr: 0x10003E36C, symSize: 0x20 }
  - { offsetInCU: 0x390CE, offset: 0x390CE, size: 0x8, addend: 0x0, symName: __ZNSt3__116allocator_traitsINS_9allocatorImEEE8max_sizeB7v160006IS2_vvEEmRKS2_, symObjAddr: 0x3C738, symBinAddr: 0x10003E38C, symSize: 0x28 }
  - { offsetInCU: 0x390F9, offset: 0x390F9, size: 0x8, addend: 0x0, symName: __ZNKSt3__16vectorImNS_9allocatorImEEE7__allocB7v160006Ev, symObjAddr: 0x3C760, symBinAddr: 0x10003E3B4, symSize: 0x28 }
  - { offsetInCU: 0x3911E, offset: 0x3911E, size: 0x8, addend: 0x0, symName: __ZNKSt3__117__compressed_pairIPmNS_9allocatorImEEE6secondB7v160006Ev, symObjAddr: 0x3C788, symBinAddr: 0x10003E3DC, symSize: 0x24 }
  - { offsetInCU: 0x39143, offset: 0x39143, size: 0x8, addend: 0x0, symName: __ZNKSt3__122__compressed_pair_elemINS_9allocatorImEELi1ELb1EE5__getB7v160006Ev, symObjAddr: 0x3C7AC, symBinAddr: 0x10003E400, symSize: 0x14 }
  - { offsetInCU: 0x39168, offset: 0x39168, size: 0x8, addend: 0x0, symName: __ZNSt3__114__split_bufferImRNS_9allocatorImEEEC2EmmS3_, symObjAddr: 0x3C7C0, symBinAddr: 0x10003E414, symSize: 0x520 }
  - { offsetInCU: 0x391E2, offset: 0x391E2, size: 0x8, addend: 0x0, symName: __ZNSt3__117__compressed_pairIPmRNS_9allocatorImEEEC1B7v160006IDnS4_EEOT_OT0_, symObjAddr: 0x3CCE0, symBinAddr: 0x10003E934, symSize: 0x3C }
  - { offsetInCU: 0x39239, offset: 0x39239, size: 0x8, addend: 0x0, symName: __ZNSt3__114__split_bufferImRNS_9allocatorImEEE7__allocB7v160006Ev, symObjAddr: 0x3CFA8, symBinAddr: 0x10003EBFC, symSize: 0x28 }
  - { offsetInCU: 0x3925E, offset: 0x3925E, size: 0x8, addend: 0x0, symName: __ZNSt3__114__split_bufferImRNS_9allocatorImEEE9__end_capB7v160006Ev, symObjAddr: 0x3CFD0, symBinAddr: 0x10003EC24, symSize: 0x28 }
  - { offsetInCU: 0x39283, offset: 0x39283, size: 0x8, addend: 0x0, symName: __ZNSt3__117__compressed_pairIPmRNS_9allocatorImEEEC2B7v160006IDnS4_EEOT_OT0_, symObjAddr: 0x3CFF8, symBinAddr: 0x10003EC4C, symSize: 0x48 }
  - { offsetInCU: 0x392DA, offset: 0x392DA, size: 0x8, addend: 0x0, symName: __ZNSt3__122__compressed_pair_elemIPmLi0ELb0EEC2B7v160006IDnvEEOT_, symObjAddr: 0x3D040, symBinAddr: 0x10003EC94, symSize: 0x64 }
  - { offsetInCU: 0x3931B, offset: 0x3931B, size: 0x8, addend: 0x0, symName: __ZNSt3__122__compressed_pair_elemIRNS_9allocatorImEELi1ELb0EEC2B7v160006IS3_vEEOT_, symObjAddr: 0x3D0A4, symBinAddr: 0x10003ECF8, symSize: 0x70 }
  - { offsetInCU: 0x3935C, offset: 0x3935C, size: 0x8, addend: 0x0, symName: __ZNSt3__19allocatorImE8allocateB7v160006Em, symObjAddr: 0x3D114, symBinAddr: 0x10003ED68, symSize: 0x5C }
  - { offsetInCU: 0x3938F, offset: 0x3938F, size: 0x8, addend: 0x0, symName: __ZNSt3__117__compressed_pairIPmRNS_9allocatorImEEE6secondB7v160006Ev, symObjAddr: 0x3D170, symBinAddr: 0x10003EDC4, symSize: 0x28 }
  - { offsetInCU: 0x393B4, offset: 0x393B4, size: 0x8, addend: 0x0, symName: __ZNSt3__122__compressed_pair_elemIRNS_9allocatorImEELi1ELb0EE5__getB7v160006Ev, symObjAddr: 0x3D198, symBinAddr: 0x10003EDEC, symSize: 0x60 }
  - { offsetInCU: 0x393D9, offset: 0x393D9, size: 0x8, addend: 0x0, symName: __ZNSt3__117__compressed_pairIPmRNS_9allocatorImEEE5firstB7v160006Ev, symObjAddr: 0x3D1F8, symBinAddr: 0x10003EE4C, symSize: 0x24 }
  - { offsetInCU: 0x393FE, offset: 0x393FE, size: 0x8, addend: 0x0, symName: __ZNKSt3__16vectorImNS_9allocatorImEEE17__annotate_deleteB7v160006Ev, symObjAddr: 0x3D21C, symBinAddr: 0x10003EE70, symSize: 0xCC }
  - { offsetInCU: 0x39423, offset: 0x39423, size: 0x8, addend: 0x0, symName: __ZNSt3__116reverse_iteratorIPmEC1B7v160006ES1_, symObjAddr: 0x3D790, symBinAddr: 0x10003F3E4, symSize: 0x34 }
  - { offsetInCU: 0x3945A, offset: 0x3945A, size: 0x8, addend: 0x0, symName: __ZNKSt3__116reverse_iteratorIPmE4baseB7v160006Ev, symObjAddr: 0x3D7C4, symBinAddr: 0x10003F418, symSize: 0x64 }
  - { offsetInCU: 0x3947F, offset: 0x3947F, size: 0x8, addend: 0x0, symName: __ZNKSt3__16vectorImNS_9allocatorImEEE14__annotate_newB7v160006Em, symObjAddr: 0x3D95C, symBinAddr: 0x10003F5B0, symSize: 0xC0 }
  - { offsetInCU: 0x394CC, offset: 0x394CC, size: 0x8, addend: 0x0, symName: __ZNKSt3__111__move_loopINS_17_ClassicAlgPolicyEEclB7v160006INS_16reverse_iteratorIPmEES6_S6_EENS_4pairIT_T1_EES8_T0_S9_, symObjAddr: 0x3F300, symBinAddr: 0x100040F54, symSize: 0x3A8 }
  - { offsetInCU: 0x39543, offset: 0x39543, size: 0x8, addend: 0x0, symName: __ZNSt3__119__unwrap_range_implINS_16reverse_iteratorIPmEES3_E8__unwrapB7v160006ES3_S3_, symObjAddr: 0x40188, symBinAddr: 0x100041DDC, symSize: 0x448 }
  - { offsetInCU: 0x39581, offset: 0x39581, size: 0x8, addend: 0x0, symName: __ZNSt3__14pairINS_16reverse_iteratorIPmEES3_EC1B7v160006IS3_S3_LPv0EEEOT_OT0_, symObjAddr: 0x405D0, symBinAddr: 0x100042224, symSize: 0x3C }
  - { offsetInCU: 0x395DE, offset: 0x395DE, size: 0x8, addend: 0x0, symName: __ZNSt3__14pairINS_16reverse_iteratorIPmEES3_EC2B7v160006IS3_S3_LPv0EEEOT_OT0_, symObjAddr: 0x4060C, symBinAddr: 0x100042260, symSize: 0x54 }
  - { offsetInCU: 0x39640, offset: 0x39640, size: 0x8, addend: 0x0, symName: __ZNSt3__18_IterOpsINS_17_ClassicAlgPolicyEE11__iter_moveB7v160006IRNS_16reverse_iteratorIPmEEEENS_9enable_ifIXsr12is_referenceIDTdeclsr3stdE7declvalIRT_EEEEE5valueEDTclsr3stdE4movedeclsr3stdE7declvalISA_EEEEE4typeEOS9_, symObjAddr: 0x406A8, symBinAddr: 0x1000422FC, symSize: 0x28 }
  - { offsetInCU: 0x3966C, offset: 0x3966C, size: 0x8, addend: 0x0, symName: __ZNKSt3__116reverse_iteratorIPmEdeB7v160006Ev, symObjAddr: 0x406D0, symBinAddr: 0x100042324, symSize: 0x74 }
  - { offsetInCU: 0x3969F, offset: 0x3969F, size: 0x8, addend: 0x0, symName: __ZNSt3__116reverse_iteratorIPmEppB7v160006Ev, symObjAddr: 0x40744, symBinAddr: 0x100042398, symSize: 0x6C }
  - { offsetInCU: 0x396C4, offset: 0x396C4, size: 0x8, addend: 0x0, symName: __ZNSt3__18_IterOpsINS_17_ClassicAlgPolicyEE25__validate_iter_referenceB7v160006IRNS_16reverse_iteratorIPmEEEEvv, symObjAddr: 0x407B0, symBinAddr: 0x100042404, symSize: 0x4 }
  - { offsetInCU: 0x396E2, offset: 0x396E2, size: 0x8, addend: 0x0, symName: __ZNSt3__118__unwrap_iter_implINS_16reverse_iteratorIPmEELb0EE8__unwrapB7v160006ES3_, symObjAddr: 0x407B4, symBinAddr: 0x100042408, symSize: 0x274 }
  - { offsetInCU: 0x39709, offset: 0x39709, size: 0x8, addend: 0x0, symName: __ZNSt3__119__unwrap_range_implINS_16reverse_iteratorIPmEES3_E8__rewrapB7v160006ES3_S3_, symObjAddr: 0x40A28, symBinAddr: 0x10004267C, symSize: 0x3D4 }
  - { offsetInCU: 0x39742, offset: 0x39742, size: 0x8, addend: 0x0, symName: __ZNSt3__118__unwrap_iter_implINS_16reverse_iteratorIPmEELb0EE8__rewrapB7v160006ES3_S3_, symObjAddr: 0x40DFC, symBinAddr: 0x100042A50, symSize: 0x2E0 }
  - { offsetInCU: 0x39777, offset: 0x39777, size: 0x8, addend: 0x0, symName: __ZNSt3__116reverse_iteratorIPmEC2B7v160006ES1_, symObjAddr: 0x410DC, symBinAddr: 0x100042D30, symSize: 0xB8 }
  - { offsetInCU: 0x397AE, offset: 0x397AE, size: 0x8, addend: 0x0, symName: __ZNSt3__114__split_bufferImRNS_9allocatorImEEED2Ev, symObjAddr: 0x41194, symBinAddr: 0x100042DE8, symSize: 0x104 }
  - { offsetInCU: 0x397D9, offset: 0x397D9, size: 0x8, addend: 0x0, symName: __ZNSt3__114__split_bufferImRNS_9allocatorImEEE5clearB7v160006Ev, symObjAddr: 0x41298, symBinAddr: 0x100042EEC, symSize: 0x68 }
  - { offsetInCU: 0x397FE, offset: 0x397FE, size: 0x8, addend: 0x0, symName: __ZNSt3__116allocator_traitsINS_9allocatorImEEE10deallocateB7v160006ERS2_Pmm, symObjAddr: 0x41300, symBinAddr: 0x100042F54, symSize: 0x34 }
  - { offsetInCU: 0x39840, offset: 0x39840, size: 0x8, addend: 0x0, symName: __ZNKSt3__114__split_bufferImRNS_9allocatorImEEE8capacityB7v160006Ev, symObjAddr: 0x41334, symBinAddr: 0x100042F88, symSize: 0xBC }
  - { offsetInCU: 0x39865, offset: 0x39865, size: 0x8, addend: 0x0, symName: __ZNSt3__114__split_bufferImRNS_9allocatorImEEE17__destruct_at_endB7v160006EPm, symObjAddr: 0x413F0, symBinAddr: 0x100043044, symSize: 0x2C }
  - { offsetInCU: 0x39897, offset: 0x39897, size: 0x8, addend: 0x0, symName: __ZNSt3__114__split_bufferImRNS_9allocatorImEEE17__destruct_at_endB7v160006EPmNS_17integral_constantIbLb0EEE, symObjAddr: 0x4141C, symBinAddr: 0x100043070, symSize: 0x10C }
  - { offsetInCU: 0x398D6, offset: 0x398D6, size: 0x8, addend: 0x0, symName: __ZNSt3__116allocator_traitsINS_9allocatorImEEE7destroyB7v160006ImvvEEvRS2_PT_, symObjAddr: 0x41528, symBinAddr: 0x10004317C, symSize: 0x28 }
  - { offsetInCU: 0x39910, offset: 0x39910, size: 0x8, addend: 0x0, symName: __ZNSt3__19allocatorImE10deallocateB7v160006EPmm, symObjAddr: 0x41584, symBinAddr: 0x1000431D8, symSize: 0x4C }
  - { offsetInCU: 0x39951, offset: 0x39951, size: 0x8, addend: 0x0, symName: __ZNKSt3__114__split_bufferImRNS_9allocatorImEEE9__end_capB7v160006Ev, symObjAddr: 0x415D0, symBinAddr: 0x100043224, symSize: 0x28 }
  - { offsetInCU: 0x39976, offset: 0x39976, size: 0x8, addend: 0x0, symName: __ZNKSt3__117__compressed_pairIPmRNS_9allocatorImEEE5firstB7v160006Ev, symObjAddr: 0x415F8, symBinAddr: 0x10004324C, symSize: 0x24 }
  - { offsetInCU: 0x3999B, offset: 0x3999B, size: 0x8, addend: 0x0, symName: __ZNSt3__16vectorINS_4pairINS0_IcNS_9allocatorIcEEEENS0_ImNS2_ImEEEEEENS2_IS7_EEE9__end_capB7v160006Ev, symObjAddr: 0x4161C, symBinAddr: 0x100043270, symSize: 0x28 }
  - { offsetInCU: 0x399C0, offset: 0x399C0, size: 0x8, addend: 0x0, symName: __ZNSt3__16vectorINS_4pairINS0_IcNS_9allocatorIcEEEENS0_ImNS2_ImEEEEEENS2_IS7_EEE22__construct_one_at_endB7v160006IJRS4_S6_EEEvDpOT_, symObjAddr: 0x41644, symBinAddr: 0x100043298, symSize: 0x374 }
  - { offsetInCU: 0x39A28, offset: 0x39A28, size: 0x8, addend: 0x0, symName: __ZNSt3__16vectorINS_4pairINS0_IcNS_9allocatorIcEEEENS0_ImNS2_ImEEEEEENS2_IS7_EEE24__emplace_back_slow_pathIJRS4_S6_EEEvDpOT_, symObjAddr: 0x419B8, symBinAddr: 0x10004360C, symSize: 0x3C8 }
  - { offsetInCU: 0x39AA3, offset: 0x39AA3, size: 0x8, addend: 0x0, symName: __ZNSt3__16vectorINS_4pairINS0_IcNS_9allocatorIcEEEENS0_ImNS2_ImEEEEEENS2_IS7_EEE4backB7v160006Ev, symObjAddr: 0x41D80, symBinAddr: 0x1000439D4, symSize: 0x68 }
  - { offsetInCU: 0x39AC8, offset: 0x39AC8, size: 0x8, addend: 0x0, symName: __ZNSt3__117__compressed_pairIPNS_4pairINS_6vectorIcNS_9allocatorIcEEEENS2_ImNS3_ImEEEEEENS3_IS8_EEE5firstB7v160006Ev, symObjAddr: 0x41DE8, symBinAddr: 0x100043A3C, symSize: 0x24 }
  - { offsetInCU: 0x39AED, offset: 0x39AED, size: 0x8, addend: 0x0, symName: __ZNSt3__122__compressed_pair_elemIPNS_4pairINS_6vectorIcNS_9allocatorIcEEEENS2_ImNS3_ImEEEEEELi0ELb0EE5__getB7v160006Ev, symObjAddr: 0x41E0C, symBinAddr: 0x100043A60, symSize: 0x14 }
  - { offsetInCU: 0x39B2B, offset: 0x39B2B, size: 0x8, addend: 0x0, symName: __ZNSt3__16vectorINS_4pairINS0_IcNS_9allocatorIcEEEENS0_ImNS2_ImEEEEEENS2_IS7_EEE21_ConstructTransactionC1B7v160006ERS9_m, symObjAddr: 0x41E20, symBinAddr: 0x100043A74, symSize: 0x3C }
  - { offsetInCU: 0x39B72, offset: 0x39B72, size: 0x8, addend: 0x0, symName: __ZNSt3__116allocator_traitsINS_9allocatorINS_4pairINS_6vectorIcNS1_IcEEEENS3_ImNS1_ImEEEEEEEEE9constructB7v160006IS8_JRS5_S7_EvvEEvRS9_PT_DpOT0_, symObjAddr: 0x41E5C, symBinAddr: 0x100043AB0, symSize: 0x38 }
  - { offsetInCU: 0x39BDA, offset: 0x39BDA, size: 0x8, addend: 0x0, symName: __ZNSt3__16vectorINS_4pairINS0_IcNS_9allocatorIcEEEENS0_ImNS2_ImEEEEEENS2_IS7_EEE7__allocB7v160006Ev, symObjAddr: 0x41E94, symBinAddr: 0x100043AE8, symSize: 0x28 }
  - { offsetInCU: 0x39BFF, offset: 0x39BFF, size: 0x8, addend: 0x0, symName: __ZNSt3__16vectorINS_4pairINS0_IcNS_9allocatorIcEEEENS0_ImNS2_ImEEEEEENS2_IS7_EEE21_ConstructTransactionD1B7v160006Ev, symObjAddr: 0x41ED0, symBinAddr: 0x100043B24, symSize: 0x2C }
  - { offsetInCU: 0x39C28, offset: 0x39C28, size: 0x8, addend: 0x0, symName: __ZNSt3__16vectorINS_4pairINS0_IcNS_9allocatorIcEEEENS0_ImNS2_ImEEEEEENS2_IS7_EEE21_ConstructTransactionC2B7v160006ERS9_m, symObjAddr: 0x41EFC, symBinAddr: 0x100043B50, symSize: 0x1D8 }
  - { offsetInCU: 0x39C6F, offset: 0x39C6F, size: 0x8, addend: 0x0, symName: __ZNKSt3__16vectorINS_4pairINS0_IcNS_9allocatorIcEEEENS0_ImNS2_ImEEEEEENS2_IS7_EEE19__annotate_increaseB7v160006Em, symObjAddr: 0x420D4, symBinAddr: 0x100043D28, symSize: 0xF8 }
  - { offsetInCU: 0x39CA3, offset: 0x39CA3, size: 0x8, addend: 0x0, symName: __ZNKSt3__16vectorINS_4pairINS0_IcNS_9allocatorIcEEEENS0_ImNS2_ImEEEEEENS2_IS7_EEE31__annotate_contiguous_containerEPKvSB_SB_SB_, symObjAddr: 0x421CC, symBinAddr: 0x100043E20, symSize: 0x58 }
  - { offsetInCU: 0x39D04, offset: 0x39D04, size: 0x8, addend: 0x0, symName: __ZNKSt3__16vectorINS_4pairINS0_IcNS_9allocatorIcEEEENS0_ImNS2_ImEEEEEENS2_IS7_EEE4dataB7v160006Ev, symObjAddr: 0x42224, symBinAddr: 0x100043E78, symSize: 0x64 }
  - { offsetInCU: 0x39D29, offset: 0x39D29, size: 0x8, addend: 0x0, symName: __ZNKSt3__16vectorINS_4pairINS0_IcNS_9allocatorIcEEEENS0_ImNS2_ImEEEEEENS2_IS7_EEE8capacityB7v160006Ev, symObjAddr: 0x42288, symBinAddr: 0x100043EDC, symSize: 0xBC }
  - { offsetInCU: 0x39D4E, offset: 0x39D4E, size: 0x8, addend: 0x0, symName: __ZNKSt3__16vectorINS_4pairINS0_IcNS_9allocatorIcEEEENS0_ImNS2_ImEEEEEENS2_IS7_EEE4sizeB7v160006Ev, symObjAddr: 0x42344, symBinAddr: 0x100043F98, symSize: 0xB0 }
  - { offsetInCU: 0x39D73, offset: 0x39D73, size: 0x8, addend: 0x0, symName: __ZNKSt3__16vectorINS_4pairINS0_IcNS_9allocatorIcEEEENS0_ImNS2_ImEEEEEENS2_IS7_EEE9__end_capB7v160006Ev, symObjAddr: 0x423F4, symBinAddr: 0x100044048, symSize: 0x28 }
  - { offsetInCU: 0x39D98, offset: 0x39D98, size: 0x8, addend: 0x0, symName: __ZNKSt3__117__compressed_pairIPNS_4pairINS_6vectorIcNS_9allocatorIcEEEENS2_ImNS3_ImEEEEEENS3_IS8_EEE5firstB7v160006Ev, symObjAddr: 0x4241C, symBinAddr: 0x100044070, symSize: 0x24 }
  - { offsetInCU: 0x39DBD, offset: 0x39DBD, size: 0x8, addend: 0x0, symName: __ZNKSt3__122__compressed_pair_elemIPNS_4pairINS_6vectorIcNS_9allocatorIcEEEENS2_ImNS3_ImEEEEEELi0ELb0EE5__getB7v160006Ev, symObjAddr: 0x42440, symBinAddr: 0x100044094, symSize: 0x14 }
  - { offsetInCU: 0x39DE2, offset: 0x39DE2, size: 0x8, addend: 0x0, symName: __ZNSt3__14pairINS_6vectorIcNS_9allocatorIcEEEENS1_ImNS2_ImEEEEEC1B7v160006IRS4_S6_LPv0EEEOT_OT0_, symObjAddr: 0x42498, symBinAddr: 0x1000440EC, symSize: 0x3C }
  - { offsetInCU: 0x39E3F, offset: 0x39E3F, size: 0x8, addend: 0x0, symName: __ZNSt3__14pairINS_6vectorIcNS_9allocatorIcEEEENS1_ImNS2_ImEEEEEC2B7v160006IRS4_S6_LPv0EEEOT_OT0_, symObjAddr: 0x424D4, symBinAddr: 0x100044128, symSize: 0x48 }
  - { offsetInCU: 0x39E9C, offset: 0x39E9C, size: 0x8, addend: 0x0, symName: __ZNSt3__16vectorImNS_9allocatorImEEEC1B7v160006EOS3_, symObjAddr: 0x4251C, symBinAddr: 0x100044170, symSize: 0x34 }
  - { offsetInCU: 0x39ED6, offset: 0x39ED6, size: 0x8, addend: 0x0, symName: __ZNSt3__16vectorImNS_9allocatorImEEEC2B7v160006EOS3_, symObjAddr: 0x42550, symBinAddr: 0x1000441A4, symSize: 0x510 }
  - { offsetInCU: 0x39F17, offset: 0x39F17, size: 0x8, addend: 0x0, symName: __ZNSt3__117__compressed_pairIPmNS_9allocatorImEEEC1B7v160006IDnS3_EEOT_OT0_, symObjAddr: 0x42A60, symBinAddr: 0x1000446B4, symSize: 0x3C }
  - { offsetInCU: 0x39F6E, offset: 0x39F6E, size: 0x8, addend: 0x0, symName: __ZNSt3__117__compressed_pairIPmNS_9allocatorImEEEC2B7v160006IDnS3_EEOT_OT0_, symObjAddr: 0x42AC0, symBinAddr: 0x100044714, symSize: 0x44 }
  - { offsetInCU: 0x39FC5, offset: 0x39FC5, size: 0x8, addend: 0x0, symName: __ZNSt3__122__compressed_pair_elemINS_9allocatorImEELi1ELb1EEC2B7v160006IS2_vEEOT_, symObjAddr: 0x42B04, symBinAddr: 0x100044758, symSize: 0x18 }
  - { offsetInCU: 0x3A006, offset: 0x3A006, size: 0x8, addend: 0x0, symName: __ZNSt3__117__compressed_pairIPNS_4pairINS_6vectorIcNS_9allocatorIcEEEENS2_ImNS3_ImEEEEEENS3_IS8_EEE6secondB7v160006Ev, symObjAddr: 0x42B1C, symBinAddr: 0x100044770, symSize: 0x24 }
  - { offsetInCU: 0x3A02B, offset: 0x3A02B, size: 0x8, addend: 0x0, symName: __ZNSt3__122__compressed_pair_elemINS_9allocatorINS_4pairINS_6vectorIcNS1_IcEEEENS3_ImNS1_ImEEEEEEEELi1ELb1EE5__getB7v160006Ev, symObjAddr: 0x42B40, symBinAddr: 0x100044794, symSize: 0x14 }
  - { offsetInCU: 0x3A050, offset: 0x3A050, size: 0x8, addend: 0x0, symName: __ZNSt3__16vectorINS_4pairINS0_IcNS_9allocatorIcEEEENS0_ImNS2_ImEEEEEENS2_IS7_EEE21_ConstructTransactionD2B7v160006Ev, symObjAddr: 0x42B54, symBinAddr: 0x1000447A8, symSize: 0x278 }
  - { offsetInCU: 0x3A079, offset: 0x3A079, size: 0x8, addend: 0x0, symName: __ZNKSt3__16vectorINS_4pairINS0_IcNS_9allocatorIcEEEENS0_ImNS2_ImEEEEEENS2_IS7_EEE17__annotate_shrinkB7v160006Em, symObjAddr: 0x42DCC, symBinAddr: 0x100044A20, symSize: 0xE4 }
  - { offsetInCU: 0x3A0AC, offset: 0x3A0AC, size: 0x8, addend: 0x0, symName: __ZNKSt3__16vectorINS_4pairINS0_IcNS_9allocatorIcEEEENS0_ImNS2_ImEEEEEENS2_IS7_EEE11__recommendB7v160006Em, symObjAddr: 0x42EB0, symBinAddr: 0x100044B04, symSize: 0x384 }
  - { offsetInCU: 0x3A107, offset: 0x3A107, size: 0x8, addend: 0x0, symName: __ZNSt3__114__split_bufferINS_4pairINS_6vectorIcNS_9allocatorIcEEEENS2_ImNS3_ImEEEEEERNS3_IS8_EEEC1EmmSA_, symObjAddr: 0x43234, symBinAddr: 0x100044E88, symSize: 0x44 }
  - { offsetInCU: 0x3A15C, offset: 0x3A15C, size: 0x8, addend: 0x0, symName: __ZNSt3__114__split_bufferINS_4pairINS_6vectorIcNS_9allocatorIcEEEENS2_ImNS3_ImEEEEEERNS3_IS8_EEED1Ev, symObjAddr: 0x437EC, symBinAddr: 0x100045440, symSize: 0x2C }
  - { offsetInCU: 0x3A186, offset: 0x3A186, size: 0x8, addend: 0x0, symName: __ZNKSt3__16vectorINS_4pairINS0_IcNS_9allocatorIcEEEENS0_ImNS2_ImEEEEEENS2_IS7_EEE8max_sizeEv, symObjAddr: 0x43818, symBinAddr: 0x10004546C, symSize: 0x2FC }
  - { offsetInCU: 0x3A1AE, offset: 0x3A1AE, size: 0x8, addend: 0x0, symName: __ZNKSt3__16vectorINS_4pairINS0_IcNS_9allocatorIcEEEENS0_ImNS2_ImEEEEEENS2_IS7_EEE20__throw_length_errorB7v160006Ev, symObjAddr: 0x43B14, symBinAddr: 0x100045768, symSize: 0x20 }
  - { offsetInCU: 0x3A1DD, offset: 0x3A1DD, size: 0x8, addend: 0x0, symName: __ZNSt3__116allocator_traitsINS_9allocatorINS_4pairINS_6vectorIcNS1_IcEEEENS3_ImNS1_ImEEEEEEEEE8max_sizeB7v160006IS9_vvEEmRKS9_, symObjAddr: 0x43B34, symBinAddr: 0x100045788, symSize: 0x28 }
  - { offsetInCU: 0x3A208, offset: 0x3A208, size: 0x8, addend: 0x0, symName: __ZNKSt3__16vectorINS_4pairINS0_IcNS_9allocatorIcEEEENS0_ImNS2_ImEEEEEENS2_IS7_EEE7__allocB7v160006Ev, symObjAddr: 0x43B5C, symBinAddr: 0x1000457B0, symSize: 0x28 }
  - { offsetInCU: 0x3A22D, offset: 0x3A22D, size: 0x8, addend: 0x0, symName: __ZNKSt3__117__compressed_pairIPNS_4pairINS_6vectorIcNS_9allocatorIcEEEENS2_ImNS3_ImEEEEEENS3_IS8_EEE6secondB7v160006Ev, symObjAddr: 0x43B84, symBinAddr: 0x1000457D8, symSize: 0x24 }
  - { offsetInCU: 0x3A252, offset: 0x3A252, size: 0x8, addend: 0x0, symName: __ZNKSt3__122__compressed_pair_elemINS_9allocatorINS_4pairINS_6vectorIcNS1_IcEEEENS3_ImNS1_ImEEEEEEEELi1ELb1EE5__getB7v160006Ev, symObjAddr: 0x43BA8, symBinAddr: 0x1000457FC, symSize: 0x14 }
  - { offsetInCU: 0x3A277, offset: 0x3A277, size: 0x8, addend: 0x0, symName: __ZNSt3__114__split_bufferINS_4pairINS_6vectorIcNS_9allocatorIcEEEENS2_ImNS3_ImEEEEEERNS3_IS8_EEEC2EmmSA_, symObjAddr: 0x43BBC, symBinAddr: 0x100045810, symSize: 0x530 }
  - { offsetInCU: 0x3A2F1, offset: 0x3A2F1, size: 0x8, addend: 0x0, symName: __ZNSt3__117__compressed_pairIPNS_4pairINS_6vectorIcNS_9allocatorIcEEEENS2_ImNS3_ImEEEEEERNS3_IS8_EEEC1B7v160006IDnSB_EEOT_OT0_, symObjAddr: 0x440EC, symBinAddr: 0x100045D40, symSize: 0x3C }
  - { offsetInCU: 0x3A348, offset: 0x3A348, size: 0x8, addend: 0x0, symName: __ZNSt3__114__split_bufferINS_4pairINS_6vectorIcNS_9allocatorIcEEEENS2_ImNS3_ImEEEEEERNS3_IS8_EEE7__allocB7v160006Ev, symObjAddr: 0x443B4, symBinAddr: 0x100046008, symSize: 0x28 }
  - { offsetInCU: 0x3A36D, offset: 0x3A36D, size: 0x8, addend: 0x0, symName: __ZNSt3__114__split_bufferINS_4pairINS_6vectorIcNS_9allocatorIcEEEENS2_ImNS3_ImEEEEEERNS3_IS8_EEE9__end_capB7v160006Ev, symObjAddr: 0x443DC, symBinAddr: 0x100046030, symSize: 0x28 }
  - { offsetInCU: 0x3A392, offset: 0x3A392, size: 0x8, addend: 0x0, symName: __ZNSt3__117__compressed_pairIPNS_4pairINS_6vectorIcNS_9allocatorIcEEEENS2_ImNS3_ImEEEEEERNS3_IS8_EEEC2B7v160006IDnSB_EEOT_OT0_, symObjAddr: 0x44404, symBinAddr: 0x100046058, symSize: 0x48 }
  - { offsetInCU: 0x3A3E9, offset: 0x3A3E9, size: 0x8, addend: 0x0, symName: __ZNSt3__122__compressed_pair_elemIRNS_9allocatorINS_4pairINS_6vectorIcNS1_IcEEEENS3_ImNS1_ImEEEEEEEELi1ELb0EEC2B7v160006ISA_vEEOT_, symObjAddr: 0x4444C, symBinAddr: 0x1000460A0, symSize: 0x70 }
  - { offsetInCU: 0x3A42A, offset: 0x3A42A, size: 0x8, addend: 0x0, symName: __ZNSt3__19allocatorINS_4pairINS_6vectorIcNS0_IcEEEENS2_ImNS0_ImEEEEEEE8allocateB7v160006Em, symObjAddr: 0x444BC, symBinAddr: 0x100046110, symSize: 0x60 }
  - { offsetInCU: 0x3A45D, offset: 0x3A45D, size: 0x8, addend: 0x0, symName: __ZNSt3__117__compressed_pairIPNS_4pairINS_6vectorIcNS_9allocatorIcEEEENS2_ImNS3_ImEEEEEERNS3_IS8_EEE6secondB7v160006Ev, symObjAddr: 0x4451C, symBinAddr: 0x100046170, symSize: 0x28 }
  - { offsetInCU: 0x3A482, offset: 0x3A482, size: 0x8, addend: 0x0, symName: __ZNSt3__122__compressed_pair_elemIRNS_9allocatorINS_4pairINS_6vectorIcNS1_IcEEEENS3_ImNS1_ImEEEEEEEELi1ELb0EE5__getB7v160006Ev, symObjAddr: 0x44544, symBinAddr: 0x100046198, symSize: 0x60 }
  - { offsetInCU: 0x3A4A7, offset: 0x3A4A7, size: 0x8, addend: 0x0, symName: __ZNSt3__117__compressed_pairIPNS_4pairINS_6vectorIcNS_9allocatorIcEEEENS2_ImNS3_ImEEEEEERNS3_IS8_EEE5firstB7v160006Ev, symObjAddr: 0x445A4, symBinAddr: 0x1000461F8, symSize: 0x24 }
  - { offsetInCU: 0x3A4CC, offset: 0x3A4CC, size: 0x8, addend: 0x0, symName: __ZNKSt3__16vectorINS_4pairINS0_IcNS_9allocatorIcEEEENS0_ImNS2_ImEEEEEENS2_IS7_EEE17__annotate_deleteB7v160006Ev, symObjAddr: 0x445C8, symBinAddr: 0x10004621C, symSize: 0xE8 }
  - { offsetInCU: 0x3A4F1, offset: 0x3A4F1, size: 0x8, addend: 0x0, symName: __ZNSt3__116reverse_iteratorIPNS_4pairINS_6vectorIcNS_9allocatorIcEEEENS2_ImNS3_ImEEEEEEEC1B7v160006ES9_, symObjAddr: 0x44BF4, symBinAddr: 0x100046848, symSize: 0x34 }
  - { offsetInCU: 0x3A528, offset: 0x3A528, size: 0x8, addend: 0x0, symName: __ZNKSt3__116reverse_iteratorIPNS_4pairINS_6vectorIcNS_9allocatorIcEEEENS2_ImNS3_ImEEEEEEE4baseB7v160006Ev, symObjAddr: 0x44C28, symBinAddr: 0x10004687C, symSize: 0x64 }
  - { offsetInCU: 0x3A54D, offset: 0x3A54D, size: 0x8, addend: 0x0, symName: __ZNKSt3__16vectorINS_4pairINS0_IcNS_9allocatorIcEEEENS0_ImNS2_ImEEEEEENS2_IS7_EEE14__annotate_newB7v160006Em, symObjAddr: 0x44DC0, symBinAddr: 0x100046A14, symSize: 0xDC }
  - { offsetInCU: 0x3A581, offset: 0x3A581, size: 0x8, addend: 0x0, symName: __ZNSt3__129_AllocatorDestroyRangeReverseINS_9allocatorINS_4pairINS_6vectorIcNS1_IcEEEENS3_ImNS1_ImEEEEEEEENS_16reverse_iteratorIPS8_EEEC1B7v160006ERS9_RSC_SF_, symObjAddr: 0x450A4, symBinAddr: 0x100046CF8, symSize: 0x44 }
  - { offsetInCU: 0x3A5D7, offset: 0x3A5D7, size: 0x8, addend: 0x0, symName: __ZNSt3__116allocator_traitsINS_9allocatorINS_4pairINS_6vectorIcNS1_IcEEEENS3_ImNS1_ImEEEEEEEEE9constructB7v160006IS8_JS8_EvvEEvRS9_PT_DpOT0_, symObjAddr: 0x45130, symBinAddr: 0x100046D84, symSize: 0x30 }
  - { offsetInCU: 0x3A62B, offset: 0x3A62B, size: 0x8, addend: 0x0, symName: __ZNKSt3__116reverse_iteratorIPNS_4pairINS_6vectorIcNS_9allocatorIcEEEENS2_ImNS3_ImEEEEEEEdeB7v160006Ev, symObjAddr: 0x45184, symBinAddr: 0x100046DD8, symSize: 0x74 }
  - { offsetInCU: 0x3A65E, offset: 0x3A65E, size: 0x8, addend: 0x0, symName: __ZNSt3__116reverse_iteratorIPNS_4pairINS_6vectorIcNS_9allocatorIcEEEENS2_ImNS3_ImEEEEEEEppB7v160006Ev, symObjAddr: 0x451F8, symBinAddr: 0x100046E4C, symSize: 0x6C }
  - { offsetInCU: 0x3A683, offset: 0x3A683, size: 0x8, addend: 0x0, symName: __ZNSt3__128__exception_guard_exceptionsINS_29_AllocatorDestroyRangeReverseINS_9allocatorINS_4pairINS_6vectorIcNS2_IcEEEENS4_ImNS2_ImEEEEEEEENS_16reverse_iteratorIPS9_EEEEE10__completeB7v160006Ev, symObjAddr: 0x45264, symBinAddr: 0x100046EB8, symSize: 0x8C }
  - { offsetInCU: 0x3A6A8, offset: 0x3A6A8, size: 0x8, addend: 0x0, symName: __ZNSt3__128__exception_guard_exceptionsINS_29_AllocatorDestroyRangeReverseINS_9allocatorINS_4pairINS_6vectorIcNS2_IcEEEENS4_ImNS2_ImEEEEEEEENS_16reverse_iteratorIPS9_EEEEED1B7v160006Ev, symObjAddr: 0x452F0, symBinAddr: 0x100046F44, symSize: 0x2C }
  - { offsetInCU: 0x3A6D1, offset: 0x3A6D1, size: 0x8, addend: 0x0, symName: __ZNSt3__128__exception_guard_exceptionsINS_29_AllocatorDestroyRangeReverseINS_9allocatorINS_4pairINS_6vectorIcNS2_IcEEEENS4_ImNS2_ImEEEEEEEENS_16reverse_iteratorIPS9_EEEEEC1B7v160006ESE_, symObjAddr: 0x4531C, symBinAddr: 0x100046F70, symSize: 0x34 }
  - { offsetInCU: 0x3A709, offset: 0x3A709, size: 0x8, addend: 0x0, symName: __ZNSt3__128__exception_guard_exceptionsINS_29_AllocatorDestroyRangeReverseINS_9allocatorINS_4pairINS_6vectorIcNS2_IcEEEENS4_ImNS2_ImEEEEEEEENS_16reverse_iteratorIPS9_EEEEEC2B7v160006ESE_, symObjAddr: 0x45350, symBinAddr: 0x100046FA4, symSize: 0xA4 }
  - { offsetInCU: 0x3A741, offset: 0x3A741, size: 0x8, addend: 0x0, symName: __ZNSt3__129_AllocatorDestroyRangeReverseINS_9allocatorINS_4pairINS_6vectorIcNS1_IcEEEENS3_ImNS1_ImEEEEEEEENS_16reverse_iteratorIPS8_EEEC2B7v160006ERS9_RSC_SF_, symObjAddr: 0x453F4, symBinAddr: 0x100047048, symSize: 0x104 }
  - { offsetInCU: 0x3A797, offset: 0x3A797, size: 0x8, addend: 0x0, symName: __ZNSt3__14pairINS_6vectorIcNS_9allocatorIcEEEENS1_ImNS2_ImEEEEEC1EOS7_, symObjAddr: 0x45534, symBinAddr: 0x100047188, symSize: 0x34 }
  - { offsetInCU: 0x3A7CA, offset: 0x3A7CA, size: 0x8, addend: 0x0, symName: __ZNSt3__14pairINS_6vectorIcNS_9allocatorIcEEEENS1_ImNS2_ImEEEEEC2EOS7_, symObjAddr: 0x45568, symBinAddr: 0x1000471BC, symSize: 0x48 }
  - { offsetInCU: 0x3A802, offset: 0x3A802, size: 0x8, addend: 0x0, symName: __ZNSt3__119__to_address_helperINS_16reverse_iteratorIPNS_4pairINS_6vectorIcNS_9allocatorIcEEEENS3_ImNS4_ImEEEEEEEEvE6__callB7v160006ERKSB_, symObjAddr: 0x455B0, symBinAddr: 0x100047204, symSize: 0x44 }
  - { offsetInCU: 0x3A825, offset: 0x3A825, size: 0x8, addend: 0x0, symName: __ZNKSt3__116reverse_iteratorIPNS_4pairINS_6vectorIcNS_9allocatorIcEEEENS2_ImNS3_ImEEEEEEEptB7v160006Ev, symObjAddr: 0x455F4, symBinAddr: 0x100047248, symSize: 0x6C }
  - { offsetInCU: 0x3A84A, offset: 0x3A84A, size: 0x8, addend: 0x0, symName: __ZNSt3__128__exception_guard_exceptionsINS_29_AllocatorDestroyRangeReverseINS_9allocatorINS_4pairINS_6vectorIcNS2_IcEEEENS4_ImNS2_ImEEEEEEEENS_16reverse_iteratorIPS9_EEEEED2B7v160006Ev, symObjAddr: 0x4598C, symBinAddr: 0x1000475E0, symSize: 0xBC }
  - { offsetInCU: 0x3A873, offset: 0x3A873, size: 0x8, addend: 0x0, symName: __ZNKSt3__129_AllocatorDestroyRangeReverseINS_9allocatorINS_4pairINS_6vectorIcNS1_IcEEEENS3_ImNS1_ImEEEEEEEENS_16reverse_iteratorIPS8_EEEclB7v160006Ev, symObjAddr: 0x45A48, symBinAddr: 0x10004769C, symSize: 0x3A8 }
  - { offsetInCU: 0x3A899, offset: 0x3A899, size: 0x8, addend: 0x0, symName: __ZNSt3__116reverse_iteratorINS0_IPNS_4pairINS_6vectorIcNS_9allocatorIcEEEENS2_ImNS3_ImEEEEEEEEEC1B7v160006ESA_, symObjAddr: 0x45E60, symBinAddr: 0x100047AB4, symSize: 0x248 }
  - { offsetInCU: 0x3A8D5, offset: 0x3A8D5, size: 0x8, addend: 0x0, symName: __ZNSt3__116allocator_traitsINS_9allocatorINS_4pairINS_6vectorIcNS1_IcEEEENS3_ImNS1_ImEEEEEEEEE7destroyB7v160006IS8_vvEEvRS9_PT_, symObjAddr: 0x46374, symBinAddr: 0x100047FC8, symSize: 0x28 }
  - { offsetInCU: 0x3A90F, offset: 0x3A90F, size: 0x8, addend: 0x0, symName: __ZNSt3__116reverse_iteratorINS0_IPNS_4pairINS_6vectorIcNS_9allocatorIcEEEENS2_ImNS3_ImEEEEEEEEEppB7v160006Ev, symObjAddr: 0x463C0, symBinAddr: 0x100048014, symSize: 0x30 }
  - { offsetInCU: 0x3A934, offset: 0x3A934, size: 0x8, addend: 0x0, symName: __ZNKSt3__116reverse_iteratorINS0_IPNS_4pairINS_6vectorIcNS_9allocatorIcEEEENS2_ImNS3_ImEEEEEEEEE4baseB7v160006Ev, symObjAddr: 0x463F0, symBinAddr: 0x100048044, symSize: 0x20C }
  - { offsetInCU: 0x3A95A, offset: 0x3A95A, size: 0x8, addend: 0x0, symName: __ZNSt3__14pairINS_6vectorIcNS_9allocatorIcEEEENS1_ImNS2_ImEEEEED1Ev, symObjAddr: 0x46644, symBinAddr: 0x100048298, symSize: 0x2C }
  - { offsetInCU: 0x3A985, offset: 0x3A985, size: 0x8, addend: 0x0, symName: __ZNSt3__14pairINS_6vectorIcNS_9allocatorIcEEEENS1_ImNS2_ImEEEEED2Ev, symObjAddr: 0x46670, symBinAddr: 0x1000482C4, symSize: 0x38 }
  - { offsetInCU: 0x3A9B5, offset: 0x3A9B5, size: 0x8, addend: 0x0, symName: __ZNSt3__119__to_address_helperINS_16reverse_iteratorINS1_IPNS_4pairINS_6vectorIcNS_9allocatorIcEEEENS3_ImNS4_ImEEEEEEEEEEvE6__callB7v160006ERKSC_, symObjAddr: 0x466A8, symBinAddr: 0x1000482FC, symSize: 0x44 }
  - { offsetInCU: 0x3A9D8, offset: 0x3A9D8, size: 0x8, addend: 0x0, symName: __ZNKSt3__116reverse_iteratorINS0_IPNS_4pairINS_6vectorIcNS_9allocatorIcEEEENS2_ImNS3_ImEEEEEEEEEptB7v160006Ev, symObjAddr: 0x466EC, symBinAddr: 0x100048340, symSize: 0x2A0 }
  - { offsetInCU: 0x3A9FE, offset: 0x3A9FE, size: 0x8, addend: 0x0, symName: __ZNSt3__116reverse_iteratorIPNS_4pairINS_6vectorIcNS_9allocatorIcEEEENS2_ImNS3_ImEEEEEEEpLB7v160006El, symObjAddr: 0x46CB8, symBinAddr: 0x10004890C, symSize: 0x84 }
  - { offsetInCU: 0x3AA31, offset: 0x3AA31, size: 0x8, addend: 0x0, symName: __ZNSt3__116reverse_iteratorIPNS_4pairINS_6vectorIcNS_9allocatorIcEEEENS2_ImNS3_ImEEEEEEEmmB7v160006Ev, symObjAddr: 0x46D3C, symBinAddr: 0x100048990, symSize: 0x6C }
  - { offsetInCU: 0x3AA56, offset: 0x3AA56, size: 0x8, addend: 0x0, symName: __ZNSt3__116reverse_iteratorINS0_IPNS_4pairINS_6vectorIcNS_9allocatorIcEEEENS2_ImNS3_ImEEEEEEEEEC2B7v160006ESA_, symObjAddr: 0x46DA8, symBinAddr: 0x1000489FC, symSize: 0x22C }
  - { offsetInCU: 0x3AA92, offset: 0x3AA92, size: 0x8, addend: 0x0, symName: __ZNSt3__116reverse_iteratorIPNS_4pairINS_6vectorIcNS_9allocatorIcEEEENS2_ImNS3_ImEEEEEEEC2B7v160006ES9_, symObjAddr: 0x46FD4, symBinAddr: 0x100048C28, symSize: 0xB8 }
  - { offsetInCU: 0x3AAC9, offset: 0x3AAC9, size: 0x8, addend: 0x0, symName: __ZNSt3__114__split_bufferINS_4pairINS_6vectorIcNS_9allocatorIcEEEENS2_ImNS3_ImEEEEEERNS3_IS8_EEED2Ev, symObjAddr: 0x4708C, symBinAddr: 0x100048CE0, symSize: 0x104 }
  - { offsetInCU: 0x3AAF4, offset: 0x3AAF4, size: 0x8, addend: 0x0, symName: __ZNSt3__114__split_bufferINS_4pairINS_6vectorIcNS_9allocatorIcEEEENS2_ImNS3_ImEEEEEERNS3_IS8_EEE5clearB7v160006Ev, symObjAddr: 0x47190, symBinAddr: 0x100048DE4, symSize: 0x68 }
  - { offsetInCU: 0x3AB19, offset: 0x3AB19, size: 0x8, addend: 0x0, symName: __ZNSt3__116allocator_traitsINS_9allocatorINS_4pairINS_6vectorIcNS1_IcEEEENS3_ImNS1_ImEEEEEEEEE10deallocateB7v160006ERS9_PS8_m, symObjAddr: 0x471F8, symBinAddr: 0x100048E4C, symSize: 0x34 }
  - { offsetInCU: 0x3AB5B, offset: 0x3AB5B, size: 0x8, addend: 0x0, symName: __ZNKSt3__114__split_bufferINS_4pairINS_6vectorIcNS_9allocatorIcEEEENS2_ImNS3_ImEEEEEERNS3_IS8_EEE8capacityB7v160006Ev, symObjAddr: 0x4722C, symBinAddr: 0x100048E80, symSize: 0xBC }
  - { offsetInCU: 0x3AB80, offset: 0x3AB80, size: 0x8, addend: 0x0, symName: __ZNSt3__114__split_bufferINS_4pairINS_6vectorIcNS_9allocatorIcEEEENS2_ImNS3_ImEEEEEERNS3_IS8_EEE17__destruct_at_endB7v160006EPS8_, symObjAddr: 0x472E8, symBinAddr: 0x100048F3C, symSize: 0x2C }
  - { offsetInCU: 0x3ABB2, offset: 0x3ABB2, size: 0x8, addend: 0x0, symName: __ZNSt3__114__split_bufferINS_4pairINS_6vectorIcNS_9allocatorIcEEEENS2_ImNS3_ImEEEEEERNS3_IS8_EEE17__destruct_at_endB7v160006EPS8_NS_17integral_constantIbLb0EEE, symObjAddr: 0x47314, symBinAddr: 0x100048F68, symSize: 0x10C }
  - { offsetInCU: 0x3ABF1, offset: 0x3ABF1, size: 0x8, addend: 0x0, symName: __ZNSt3__19allocatorINS_4pairINS_6vectorIcNS0_IcEEEENS2_ImNS0_ImEEEEEEE10deallocateB7v160006EPS7_m, symObjAddr: 0x47420, symBinAddr: 0x100049074, symSize: 0x50 }
  - { offsetInCU: 0x3AC32, offset: 0x3AC32, size: 0x8, addend: 0x0, symName: __ZNKSt3__114__split_bufferINS_4pairINS_6vectorIcNS_9allocatorIcEEEENS2_ImNS3_ImEEEEEERNS3_IS8_EEE9__end_capB7v160006Ev, symObjAddr: 0x47470, symBinAddr: 0x1000490C4, symSize: 0x28 }
  - { offsetInCU: 0x3AC57, offset: 0x3AC57, size: 0x8, addend: 0x0, symName: __ZNKSt3__117__compressed_pairIPNS_4pairINS_6vectorIcNS_9allocatorIcEEEENS2_ImNS3_ImEEEEEERNS3_IS8_EEE5firstB7v160006Ev, symObjAddr: 0x47498, symBinAddr: 0x1000490EC, symSize: 0x24 }
  - { offsetInCU: 0x3AC7C, offset: 0x3AC7C, size: 0x8, addend: 0x0, symName: __ZNSt3__16vectorImNS_9allocatorImEEEC2B7v160006ESt16initializer_listImE, symObjAddr: 0x474BC, symBinAddr: 0x100049110, symSize: 0x530 }
  - { offsetInCU: 0x3ACD4, offset: 0x3ACD4, size: 0x8, addend: 0x0, symName: __ZNSt3__117__compressed_pairIPmNS_9allocatorImEEEC1B7v160006IDnNS_18__default_init_tagEEEOT_OT0_, symObjAddr: 0x479EC, symBinAddr: 0x100049640, symSize: 0x3C }
  - { offsetInCU: 0x3AD2B, offset: 0x3AD2B, size: 0x8, addend: 0x0, symName: __ZNSt3__16vectorImNS_9allocatorImEEE16__destroy_vectorC1ERS3_, symObjAddr: 0x47CA0, symBinAddr: 0x1000498F4, symSize: 0x34 }
  - { offsetInCU: 0x3AD63, offset: 0x3AD63, size: 0x8, addend: 0x0, symName: __ZNKSt16initializer_listImE4sizeB7v160006Ev, symObjAddr: 0x47CD4, symBinAddr: 0x100049928, symSize: 0x64 }
  - { offsetInCU: 0x3AD88, offset: 0x3AD88, size: 0x8, addend: 0x0, symName: __ZNSt3__16vectorImNS_9allocatorImEEE11__vallocateB7v160006Em, symObjAddr: 0x47D38, symBinAddr: 0x10004998C, symSize: 0x420 }
  - { offsetInCU: 0x3ADD0, offset: 0x3ADD0, size: 0x8, addend: 0x0, symName: __ZNSt3__16vectorImNS_9allocatorImEEE18__construct_at_endIPKmLi0EEEvT_S7_m, symObjAddr: 0x48158, symBinAddr: 0x100049DAC, symSize: 0x380 }
  - { offsetInCU: 0x3AE4A, offset: 0x3AE4A, size: 0x8, addend: 0x0, symName: __ZNKSt16initializer_listImE5beginB7v160006Ev, symObjAddr: 0x484D8, symBinAddr: 0x10004A12C, symSize: 0x60 }
  - { offsetInCU: 0x3AE6F, offset: 0x3AE6F, size: 0x8, addend: 0x0, symName: __ZNKSt16initializer_listImE3endB7v160006Ev, symObjAddr: 0x48538, symBinAddr: 0x10004A18C, symSize: 0xA8 }
  - { offsetInCU: 0x3AE94, offset: 0x3AE94, size: 0x8, addend: 0x0, symName: __ZNSt3__128__exception_guard_exceptionsINS_6vectorImNS_9allocatorImEEE16__destroy_vectorEE10__completeB7v160006Ev, symObjAddr: 0x485E0, symBinAddr: 0x10004A234, symSize: 0x8C }
  - { offsetInCU: 0x3AEB9, offset: 0x3AEB9, size: 0x8, addend: 0x0, symName: __ZNSt3__128__exception_guard_exceptionsINS_6vectorImNS_9allocatorImEEE16__destroy_vectorEED1B7v160006Ev, symObjAddr: 0x4866C, symBinAddr: 0x10004A2C0, symSize: 0x2C }
  - { offsetInCU: 0x3AEE2, offset: 0x3AEE2, size: 0x8, addend: 0x0, symName: __ZNSt3__117__compressed_pairIPmNS_9allocatorImEEEC2B7v160006IDnNS_18__default_init_tagEEEOT_OT0_, symObjAddr: 0x48698, symBinAddr: 0x10004A2EC, symSize: 0x40 }
  - { offsetInCU: 0x3AF39, offset: 0x3AF39, size: 0x8, addend: 0x0, symName: __ZNSt3__122__compressed_pair_elemINS_9allocatorImEELi1ELb1EEC2B7v160006ENS_18__default_init_tagE, symObjAddr: 0x486D8, symBinAddr: 0x10004A32C, symSize: 0x2C }
  - { offsetInCU: 0x3AF6C, offset: 0x3AF6C, size: 0x8, addend: 0x0, symName: __ZNSt3__19allocatorImEC2B7v160006Ev, symObjAddr: 0x48704, symBinAddr: 0x10004A358, symSize: 0x2C }
  - { offsetInCU: 0x3AF95, offset: 0x3AF95, size: 0x8, addend: 0x0, symName: __ZNSt3__116__non_trivial_ifILb1ENS_9allocatorImEEEC2B7v160006Ev, symObjAddr: 0x48730, symBinAddr: 0x10004A384, symSize: 0x14 }
  - { offsetInCU: 0x3AFBE, offset: 0x3AFBE, size: 0x8, addend: 0x0, symName: __ZNSt3__128__exception_guard_exceptionsINS_6vectorImNS_9allocatorImEEE16__destroy_vectorEEC1B7v160006ES5_, symObjAddr: 0x48744, symBinAddr: 0x10004A398, symSize: 0x238 }
  - { offsetInCU: 0x3AFFA, offset: 0x3AFFA, size: 0x8, addend: 0x0, symName: __ZNSt3__128__exception_guard_exceptionsINS_6vectorImNS_9allocatorImEEE16__destroy_vectorEEC2B7v160006ES5_, symObjAddr: 0x4897C, symBinAddr: 0x10004A5D0, symSize: 0x264 }
  - { offsetInCU: 0x3B036, offset: 0x3B036, size: 0x8, addend: 0x0, symName: __ZNSt3__16vectorImNS_9allocatorImEEE16__destroy_vectorC2ERS3_, symObjAddr: 0x48BE0, symBinAddr: 0x10004A834, symSize: 0x70 }
  - { offsetInCU: 0x3B087, offset: 0x3B087, size: 0x8, addend: 0x0, symName: __ZNKSt3__114__copy_trivialclB7v160006IKmmLi0EEENS_4pairIPT_PT0_EES5_S5_S7_, symObjAddr: 0x49B14, symBinAddr: 0x10004B768, symSize: 0x230 }
  - { offsetInCU: 0x3B10B, offset: 0x3B10B, size: 0x8, addend: 0x0, symName: __ZNSt3__119__unwrap_range_implIPKmS2_E8__unwrapB7v160006ES2_S2_, symObjAddr: 0x49FE8, symBinAddr: 0x10004BC3C, symSize: 0x30C }
  - { offsetInCU: 0x3B143, offset: 0x3B143, size: 0x8, addend: 0x0, symName: __ZNSt3__14pairIPKmS2_EC1B7v160006IS2_S2_LPv0EEEOT_OT0_, symObjAddr: 0x4A318, symBinAddr: 0x10004BF6C, symSize: 0x3C }
  - { offsetInCU: 0x3B1A0, offset: 0x3B1A0, size: 0x8, addend: 0x0, symName: __ZNSt3__118__unwrap_iter_implIPKmLb1EE8__unwrapB7v160006ES2_, symObjAddr: 0x4A354, symBinAddr: 0x10004BFA8, symSize: 0x24 }
  - { offsetInCU: 0x3B1C3, offset: 0x3B1C3, size: 0x8, addend: 0x0, symName: __ZNSt3__14pairIPKmS2_EC2B7v160006IS2_S2_LPv0EEEOT_OT0_, symObjAddr: 0x4A38C, symBinAddr: 0x10004BFE0, symSize: 0x138 }
  - { offsetInCU: 0x3B22A, offset: 0x3B22A, size: 0x8, addend: 0x0, symName: __ZNSt3__14pairIPKmPmEC1B7v160006IRS2_S3_LPv0EEEOT_OT0_, symObjAddr: 0x4AA88, symBinAddr: 0x10004C6DC, symSize: 0x3C }
  - { offsetInCU: 0x3B287, offset: 0x3B287, size: 0x8, addend: 0x0, symName: __ZNSt3__14pairIPKmPmEC2B7v160006IRS2_S3_LPv0EEEOT_OT0_, symObjAddr: 0x4AAC4, symBinAddr: 0x10004C718, symSize: 0x138 }
  - { offsetInCU: 0x3B2E4, offset: 0x3B2E4, size: 0x8, addend: 0x0, symName: __ZNSt3__118__unwrap_iter_implIPmLb1EE8__unwrapB7v160006ES1_, symObjAddr: 0x4ABFC, symBinAddr: 0x10004C850, symSize: 0x24 }
  - { offsetInCU: 0x3B307, offset: 0x3B307, size: 0x8, addend: 0x0, symName: __ZNSt3__14pairIPKmPmEC1B7v160006IS2_S3_LPv0EEEOT_OT0_, symObjAddr: 0x4AC20, symBinAddr: 0x10004C874, symSize: 0x3C }
  - { offsetInCU: 0x3B364, offset: 0x3B364, size: 0x8, addend: 0x0, symName: __ZNSt3__14pairIPKmPmEC2B7v160006IS2_S3_LPv0EEEOT_OT0_, symObjAddr: 0x4AC5C, symBinAddr: 0x10004C8B0, symSize: 0x138 }
  - { offsetInCU: 0x3B3C1, offset: 0x3B3C1, size: 0x8, addend: 0x0, symName: __ZNSt3__119__unwrap_range_implIPKmS2_E8__rewrapB7v160006ES2_S2_, symObjAddr: 0x4AD94, symBinAddr: 0x10004C9E8, symSize: 0x2C }
  - { offsetInCU: 0x3B3F2, offset: 0x3B3F2, size: 0x8, addend: 0x0, symName: __ZNSt3__118__unwrap_iter_implIPKmLb1EE8__rewrapB7v160006ES2_S2_, symObjAddr: 0x4AE08, symBinAddr: 0x10004CA5C, symSize: 0x50 }
  - { offsetInCU: 0x3B423, offset: 0x3B423, size: 0x8, addend: 0x0, symName: __ZNSt3__118__unwrap_iter_implIPmLb1EE8__rewrapB7v160006ES1_S1_, symObjAddr: 0x4AE58, symBinAddr: 0x10004CAAC, symSize: 0x50 }
  - { offsetInCU: 0x3B454, offset: 0x3B454, size: 0x8, addend: 0x0, symName: __ZNSt3__128__exception_guard_exceptionsINS_6vectorImNS_9allocatorImEEE16__destroy_vectorEED2B7v160006Ev, symObjAddr: 0x4AEA8, symBinAddr: 0x10004CAFC, symSize: 0xBC }
  - { offsetInCU: 0x3B47D, offset: 0x3B47D, size: 0x8, addend: 0x0, symName: __ZNSt3__16vectorImNS_9allocatorImEEE16__destroy_vectorclB7v160006Ev, symObjAddr: 0x4AF64, symBinAddr: 0x10004CBB8, symSize: 0x264 }
  - { offsetInCU: 0x3B4A2, offset: 0x3B4A2, size: 0x8, addend: 0x0, symName: __ZNSt3__16vectorImNS_9allocatorImEEE7__clearB7v160006Ev, symObjAddr: 0x4B1D8, symBinAddr: 0x10004CE2C, symSize: 0x64 }
  - { offsetInCU: 0x3B4C7, offset: 0x3B4C7, size: 0x8, addend: 0x0, symName: __ZNSt3__16vectorImNS_9allocatorImEEE22__base_destruct_at_endB7v160006EPm, symObjAddr: 0x4B23C, symBinAddr: 0x10004CE90, symSize: 0x114 }
  - { offsetInCU: 0x3B50A, offset: 0x3B50A, size: 0x8, addend: 0x0, symName: __ZNSt3__16vectorImNS_9allocatorImEEED2B7v160006Ev, symObjAddr: 0x4B350, symBinAddr: 0x10004CFA4, symSize: 0x1F8 }
  - { offsetInCU: 0x3B534, offset: 0x3B534, size: 0x8, addend: 0x0, symName: __ZNSt3__110__get_pairILm0EE3getB7v160006INS_6vectorIcNS_9allocatorIcEEEENS3_ImNS4_ImEEEEEERKT_RKNS_4pairIS9_T0_EE, symObjAddr: 0x4B548, symBinAddr: 0x10004D19C, symSize: 0x14 }
  - { offsetInCU: 0x3B56A, offset: 0x3B56A, size: 0x8, addend: 0x0, symName: __ZNSt3__110__get_pairILm1EE3getB7v160006INS_6vectorIcNS_9allocatorIcEEEENS3_ImNS4_ImEEEEEERKT0_RKNS_4pairIT_S9_EE, symObjAddr: 0x4B55C, symBinAddr: 0x10004D1B0, symSize: 0x18 }
  - { offsetInCU: 0x3B5A0, offset: 0x3B5A0, size: 0x8, addend: 0x0, symName: __ZNSt3__16vectorImNS_9allocatorImEEEC2B7v160006Ev, symObjAddr: 0x4B574, symBinAddr: 0x10004D1C8, symSize: 0x2F0 }
  - { offsetInCU: 0x3B5C9, offset: 0x3B5C9, size: 0x8, addend: 0x0, symName: __ZNSt3__16vectorImNS_9allocatorImEEE5beginB7v160006Ev, symObjAddr: 0x4BBB4, symBinAddr: 0x10004D808, symSize: 0x268 }
  - { offsetInCU: 0x3B5F1, offset: 0x3B5F1, size: 0x8, addend: 0x0, symName: __ZNSt3__15arrayImLm2EE5beginB7v160006Ev, symObjAddr: 0x4BE1C, symBinAddr: 0x10004DA70, symSize: 0x24 }
  - { offsetInCU: 0x3B615, offset: 0x3B615, size: 0x8, addend: 0x0, symName: __ZNSt3__16vectorINS_5arrayImLm2EEENS_9allocatorIS2_EEE9push_backB7v160006ERKS2_, symObjAddr: 0x4BE40, symBinAddr: 0x10004DA94, symSize: 0xE0 }
  - { offsetInCU: 0x3B64A, offset: 0x3B64A, size: 0x8, addend: 0x0, symName: __ZNKSt3__16vectorImNS_9allocatorImEEEixB7v160006Em, symObjAddr: 0x4BF20, symBinAddr: 0x10004DB74, symSize: 0x6C }
  - { offsetInCU: 0x3B67F, offset: 0x3B67F, size: 0x8, addend: 0x0, symName: __ZNSt3__16vectorImNS_9allocatorImEEE8pop_backEv, symObjAddr: 0x4BF8C, symBinAddr: 0x10004DBE0, symSize: 0x6C }
  - { offsetInCU: 0x3B6A6, offset: 0x3B6A6, size: 0x8, addend: 0x0, symName: __ZNKSt3__111__wrap_iterIPmEplB7v160006El, symObjAddr: 0x4C420, symBinAddr: 0x10004E074, symSize: 0x20C }
  - { offsetInCU: 0x3B706, offset: 0x3B706, size: 0x8, addend: 0x0, symName: __ZNKSt3__114__copy_trivialclB7v160006ImmLi0EEENS_4pairIPT_PT0_EES4_S4_S6_, symObjAddr: 0x4D928, symBinAddr: 0x10004F57C, symSize: 0x230 }
  - { offsetInCU: 0x3B771, offset: 0x3B771, size: 0x8, addend: 0x0, symName: __ZNSt3__119__unwrap_range_implINS_11__wrap_iterIPmEES3_E8__unwrapB7v160006ES3_S3_, symObjAddr: 0x4E088, symBinAddr: 0x10004FCDC, symSize: 0x490 }
  - { offsetInCU: 0x3B7AA, offset: 0x3B7AA, size: 0x8, addend: 0x0, symName: __ZNSt3__14pairIPmS1_EC1B7v160006IS1_S1_LPv0EEEOT_OT0_, symObjAddr: 0x4E78C, symBinAddr: 0x1000503E0, symSize: 0x3C }
  - { offsetInCU: 0x3B807, offset: 0x3B807, size: 0x8, addend: 0x0, symName: __ZNSt3__118__unwrap_iter_implINS_11__wrap_iterIPmEELb1EE8__unwrapB7v160006ES3_, symObjAddr: 0x4E7C8, symBinAddr: 0x10005041C, symSize: 0x1F0 }
  - { offsetInCU: 0x3B838, offset: 0x3B838, size: 0x8, addend: 0x0, symName: __ZNSt3__119__to_address_helperINS_11__wrap_iterIPmEEvE6__callB7v160006ERKS3_, symObjAddr: 0x4E9DC, symBinAddr: 0x100050630, symSize: 0x200 }
  - { offsetInCU: 0x3B85C, offset: 0x3B85C, size: 0x8, addend: 0x0, symName: __ZNSt3__114pointer_traitsINS_11__wrap_iterIPmEEE10to_addressB7v160006ES3_, symObjAddr: 0x4EBDC, symBinAddr: 0x100050830, symSize: 0x1F4 }
  - { offsetInCU: 0x3B884, offset: 0x3B884, size: 0x8, addend: 0x0, symName: __ZNKSt3__111__wrap_iterIPmE4baseB7v160006Ev, symObjAddr: 0x4EDD0, symBinAddr: 0x100050A24, symSize: 0x60 }
  - { offsetInCU: 0x3B8A9, offset: 0x3B8A9, size: 0x8, addend: 0x0, symName: __ZNSt3__14pairIPmS1_EC2B7v160006IS1_S1_LPv0EEEOT_OT0_, symObjAddr: 0x4EE30, symBinAddr: 0x100050A84, symSize: 0x138 }
  - { offsetInCU: 0x3B906, offset: 0x3B906, size: 0x8, addend: 0x0, symName: __ZNSt3__14pairIPmS1_EC1B7v160006IRS1_S1_LPv0EEEOT_OT0_, symObjAddr: 0x4F52C, symBinAddr: 0x100051180, symSize: 0x3C }
  - { offsetInCU: 0x3B963, offset: 0x3B963, size: 0x8, addend: 0x0, symName: __ZNSt3__14pairIPmS1_EC2B7v160006IRS1_S1_LPv0EEEOT_OT0_, symObjAddr: 0x4F568, symBinAddr: 0x1000511BC, symSize: 0x138 }
  - { offsetInCU: 0x3B9DE, offset: 0x3B9DE, size: 0x8, addend: 0x0, symName: __ZNSt3__14pairINS_11__wrap_iterIPmEES2_EC1B7v160006IS3_S2_LPv0EEEOT_OT0_, symObjAddr: 0x4F6A0, symBinAddr: 0x1000512F4, symSize: 0x3C }
  - { offsetInCU: 0x3BA3B, offset: 0x3BA3B, size: 0x8, addend: 0x0, symName: __ZNSt3__14pairINS_11__wrap_iterIPmEES2_EC2B7v160006IS3_S2_LPv0EEEOT_OT0_, symObjAddr: 0x4F6DC, symBinAddr: 0x100051330, symSize: 0xD0 }
  - { offsetInCU: 0x3BA98, offset: 0x3BA98, size: 0x8, addend: 0x0, symName: __ZNSt3__119__unwrap_range_implINS_11__wrap_iterIPmEES3_E8__rewrapB7v160006ES3_S2_, symObjAddr: 0x4F7AC, symBinAddr: 0x100051400, symSize: 0x324 }
  - { offsetInCU: 0x3BACE, offset: 0x3BACE, size: 0x8, addend: 0x0, symName: __ZNSt3__118__unwrap_iter_implINS_11__wrap_iterIPmEELb1EE8__rewrapB7v160006ES3_S2_, symObjAddr: 0x4FE08, symBinAddr: 0x100051A5C, symSize: 0x2D4 }
  - { offsetInCU: 0x3BB04, offset: 0x3BB04, size: 0x8, addend: 0x0, symName: __ZNSt3__111__wrap_iterIPmEpLB7v160006El, symObjAddr: 0x500DC, symBinAddr: 0x100051D30, symSize: 0x78 }
  - { offsetInCU: 0x3BB37, offset: 0x3BB37, size: 0x8, addend: 0x0, symName: __ZNSt3__16vectorImNS_9allocatorImEEE11__make_iterB7v160006EPm, symObjAddr: 0x50154, symBinAddr: 0x100051DA8, symSize: 0x200 }
  - { offsetInCU: 0x3BB6D, offset: 0x3BB6D, size: 0x8, addend: 0x0, symName: __ZNSt3__111__wrap_iterIPmEC1B7v160006EPKvS1_, symObjAddr: 0x50354, symBinAddr: 0x100051FA8, symSize: 0x3C }
  - { offsetInCU: 0x3BBB2, offset: 0x3BBB2, size: 0x8, addend: 0x0, symName: __ZNSt3__111__wrap_iterIPmEC2B7v160006EPKvS1_, symObjAddr: 0x50390, symBinAddr: 0x100051FE4, symSize: 0x74 }
  - { offsetInCU: 0x3BBF7, offset: 0x3BBF7, size: 0x8, addend: 0x0, symName: __ZNSt3__15arrayImLm2EE4dataB7v160006Ev, symObjAddr: 0x50404, symBinAddr: 0x100052058, symSize: 0x14 }
  - { offsetInCU: 0x3BC1C, offset: 0x3BC1C, size: 0x8, addend: 0x0, symName: __ZNSt3__16vectorINS_5arrayImLm2EEENS_9allocatorIS2_EEE22__construct_one_at_endB7v160006IJRKS2_EEEvDpOT_, symObjAddr: 0x50418, symBinAddr: 0x10005206C, symSize: 0x36C }
  - { offsetInCU: 0x3BC6F, offset: 0x3BC6F, size: 0x8, addend: 0x0, symName: __ZNSt3__16vectorINS_5arrayImLm2EEENS_9allocatorIS2_EEE21__push_back_slow_pathIRKS2_EEvOT_, symObjAddr: 0x50784, symBinAddr: 0x1000523D8, symSize: 0x3C0 }
  - { offsetInCU: 0x3BCD3, offset: 0x3BCD3, size: 0x8, addend: 0x0, symName: __ZNSt3__116allocator_traitsINS_9allocatorINS_5arrayImLm2EEEEEE9constructB7v160006IS3_JRKS3_EvvEEvRS4_PT_DpOT0_, symObjAddr: 0x50B44, symBinAddr: 0x100052798, symSize: 0x30 }
  - { offsetInCU: 0x3BD26, offset: 0x3BD26, size: 0x8, addend: 0x0, symName: __ZNKSt3__16vectorINS_5arrayImLm2EEENS_9allocatorIS2_EEE11__recommendB7v160006Em, symObjAddr: 0x50BB4, symBinAddr: 0x100052808, symSize: 0x384 }
  - { offsetInCU: 0x3BD81, offset: 0x3BD81, size: 0x8, addend: 0x0, symName: __ZNSt3__114__split_bufferINS_5arrayImLm2EEERNS_9allocatorIS2_EEEC1EmmS5_, symObjAddr: 0x50F38, symBinAddr: 0x100052B8C, symSize: 0x44 }
  - { offsetInCU: 0x3BDD6, offset: 0x3BDD6, size: 0x8, addend: 0x0, symName: __ZNSt3__114__split_bufferINS_5arrayImLm2EEERNS_9allocatorIS2_EEED1Ev, symObjAddr: 0x514F0, symBinAddr: 0x100053144, symSize: 0x2C }
  - { offsetInCU: 0x3BE01, offset: 0x3BE01, size: 0x8, addend: 0x0, symName: __ZNSt3__114__split_bufferINS_5arrayImLm2EEERNS_9allocatorIS2_EEEC2EmmS5_, symObjAddr: 0x5151C, symBinAddr: 0x100053170, symSize: 0x520 }
  - { offsetInCU: 0x3BE7B, offset: 0x3BE7B, size: 0x8, addend: 0x0, symName: __ZNSt3__117__compressed_pairIPNS_5arrayImLm2EEERNS_9allocatorIS2_EEEC1B7v160006IDnS6_EEOT_OT0_, symObjAddr: 0x51A3C, symBinAddr: 0x100053690, symSize: 0x3C }
  - { offsetInCU: 0x3BED2, offset: 0x3BED2, size: 0x8, addend: 0x0, symName: __ZNSt3__114__split_bufferINS_5arrayImLm2EEERNS_9allocatorIS2_EEE7__allocB7v160006Ev, symObjAddr: 0x51A78, symBinAddr: 0x1000536CC, symSize: 0x28 }
  - { offsetInCU: 0x3BEF7, offset: 0x3BEF7, size: 0x8, addend: 0x0, symName: __ZNSt3__114__split_bufferINS_5arrayImLm2EEERNS_9allocatorIS2_EEE9__end_capB7v160006Ev, symObjAddr: 0x51AA0, symBinAddr: 0x1000536F4, symSize: 0x28 }
  - { offsetInCU: 0x3BF1C, offset: 0x3BF1C, size: 0x8, addend: 0x0, symName: __ZNSt3__117__compressed_pairIPNS_5arrayImLm2EEERNS_9allocatorIS2_EEEC2B7v160006IDnS6_EEOT_OT0_, symObjAddr: 0x51AC8, symBinAddr: 0x10005371C, symSize: 0x48 }
  - { offsetInCU: 0x3BF73, offset: 0x3BF73, size: 0x8, addend: 0x0, symName: __ZNSt3__122__compressed_pair_elemIRNS_9allocatorINS_5arrayImLm2EEEEELi1ELb0EEC2B7v160006IS5_vEEOT_, symObjAddr: 0x51B10, symBinAddr: 0x100053764, symSize: 0x70 }
  - { offsetInCU: 0x3BFB4, offset: 0x3BFB4, size: 0x8, addend: 0x0, symName: __ZNSt3__117__compressed_pairIPNS_5arrayImLm2EEERNS_9allocatorIS2_EEE6secondB7v160006Ev, symObjAddr: 0x51B80, symBinAddr: 0x1000537D4, symSize: 0x28 }
  - { offsetInCU: 0x3BFD9, offset: 0x3BFD9, size: 0x8, addend: 0x0, symName: __ZNSt3__122__compressed_pair_elemIRNS_9allocatorINS_5arrayImLm2EEEEELi1ELb0EE5__getB7v160006Ev, symObjAddr: 0x51BA8, symBinAddr: 0x1000537FC, symSize: 0x60 }
  - { offsetInCU: 0x3BFFE, offset: 0x3BFFE, size: 0x8, addend: 0x0, symName: __ZNSt3__117__compressed_pairIPNS_5arrayImLm2EEERNS_9allocatorIS2_EEE5firstB7v160006Ev, symObjAddr: 0x51C08, symBinAddr: 0x10005385C, symSize: 0x24 }
  - { offsetInCU: 0x3C023, offset: 0x3C023, size: 0x8, addend: 0x0, symName: __ZNSt3__116reverse_iteratorIPNS_5arrayImLm2EEEEC1B7v160006ES3_, symObjAddr: 0x520D4, symBinAddr: 0x100053D28, symSize: 0x34 }
  - { offsetInCU: 0x3C05A, offset: 0x3C05A, size: 0x8, addend: 0x0, symName: __ZNKSt3__116reverse_iteratorIPNS_5arrayImLm2EEEE4baseB7v160006Ev, symObjAddr: 0x52108, symBinAddr: 0x100053D5C, symSize: 0x64 }
  - { offsetInCU: 0x3C098, offset: 0x3C098, size: 0x8, addend: 0x0, symName: __ZNKSt3__111__move_loopINS_17_ClassicAlgPolicyEEclB7v160006INS_16reverse_iteratorIPNS_5arrayImLm2EEEEES8_S8_EENS_4pairIT_T1_EESA_T0_SB_, symObjAddr: 0x53B84, symBinAddr: 0x1000557D8, symSize: 0x344 }
  - { offsetInCU: 0x3C10F, offset: 0x3C10F, size: 0x8, addend: 0x0, symName: __ZNSt3__119__unwrap_range_implINS_16reverse_iteratorIPNS_5arrayImLm2EEEEES5_E8__unwrapB7v160006ES5_S5_, symObjAddr: 0x549A8, symBinAddr: 0x1000565FC, symSize: 0x448 }
  - { offsetInCU: 0x3C14D, offset: 0x3C14D, size: 0x8, addend: 0x0, symName: __ZNSt3__14pairINS_16reverse_iteratorIPNS_5arrayImLm2EEEEES5_EC1B7v160006IS5_S5_LPv0EEEOT_OT0_, symObjAddr: 0x54DF0, symBinAddr: 0x100056A44, symSize: 0x3C }
  - { offsetInCU: 0x3C1AA, offset: 0x3C1AA, size: 0x8, addend: 0x0, symName: __ZNSt3__14pairINS_16reverse_iteratorIPNS_5arrayImLm2EEEEES5_EC2B7v160006IS5_S5_LPv0EEEOT_OT0_, symObjAddr: 0x54E2C, symBinAddr: 0x100056A80, symSize: 0x54 }
  - { offsetInCU: 0x3C20C, offset: 0x3C20C, size: 0x8, addend: 0x0, symName: __ZNSt3__18_IterOpsINS_17_ClassicAlgPolicyEE11__iter_moveB7v160006IRNS_16reverse_iteratorIPNS_5arrayImLm2EEEEEEENS_9enable_ifIXsr12is_referenceIDTdeclsr3stdE7declvalIRT_EEEEE5valueEDTclsr3stdE4movedeclsr3stdE7declvalISC_EEEEE4typeEOSB_, symObjAddr: 0x54EC8, symBinAddr: 0x100056B1C, symSize: 0x28 }
  - { offsetInCU: 0x3C238, offset: 0x3C238, size: 0x8, addend: 0x0, symName: __ZNKSt3__116reverse_iteratorIPNS_5arrayImLm2EEEEdeB7v160006Ev, symObjAddr: 0x54EF0, symBinAddr: 0x100056B44, symSize: 0x74 }
  - { offsetInCU: 0x3C26B, offset: 0x3C26B, size: 0x8, addend: 0x0, symName: __ZNSt3__116reverse_iteratorIPNS_5arrayImLm2EEEEppB7v160006Ev, symObjAddr: 0x54F64, symBinAddr: 0x100056BB8, symSize: 0x6C }
  - { offsetInCU: 0x3C290, offset: 0x3C290, size: 0x8, addend: 0x0, symName: __ZNSt3__18_IterOpsINS_17_ClassicAlgPolicyEE25__validate_iter_referenceB7v160006IRNS_16reverse_iteratorIPNS_5arrayImLm2EEEEEEEvv, symObjAddr: 0x54FD0, symBinAddr: 0x100056C24, symSize: 0x4 }
  - { offsetInCU: 0x3C2AE, offset: 0x3C2AE, size: 0x8, addend: 0x0, symName: __ZNSt3__118__unwrap_iter_implINS_16reverse_iteratorIPNS_5arrayImLm2EEEEELb0EE8__unwrapB7v160006ES5_, symObjAddr: 0x54FD4, symBinAddr: 0x100056C28, symSize: 0x274 }
  - { offsetInCU: 0x3C2D5, offset: 0x3C2D5, size: 0x8, addend: 0x0, symName: __ZNSt3__119__unwrap_range_implINS_16reverse_iteratorIPNS_5arrayImLm2EEEEES5_E8__rewrapB7v160006ES5_S5_, symObjAddr: 0x55248, symBinAddr: 0x100056E9C, symSize: 0x3D4 }
  - { offsetInCU: 0x3C30E, offset: 0x3C30E, size: 0x8, addend: 0x0, symName: __ZNSt3__118__unwrap_iter_implINS_16reverse_iteratorIPNS_5arrayImLm2EEEEELb0EE8__rewrapB7v160006ES5_S5_, symObjAddr: 0x5561C, symBinAddr: 0x100057270, symSize: 0x2E0 }
  - { offsetInCU: 0x3C343, offset: 0x3C343, size: 0x8, addend: 0x0, symName: __ZNSt3__116reverse_iteratorIPNS_5arrayImLm2EEEEC2B7v160006ES3_, symObjAddr: 0x558FC, symBinAddr: 0x100057550, symSize: 0xB8 }
  - { offsetInCU: 0x3C37A, offset: 0x3C37A, size: 0x8, addend: 0x0, symName: __ZNSt3__114__split_bufferINS_5arrayImLm2EEERNS_9allocatorIS2_EEED2Ev, symObjAddr: 0x559B4, symBinAddr: 0x100057608, symSize: 0x104 }
  - { offsetInCU: 0x3C3A5, offset: 0x3C3A5, size: 0x8, addend: 0x0, symName: __ZNSt3__114__split_bufferINS_5arrayImLm2EEERNS_9allocatorIS2_EEE5clearB7v160006Ev, symObjAddr: 0x55AB8, symBinAddr: 0x10005770C, symSize: 0x68 }
  - { offsetInCU: 0x3C3CA, offset: 0x3C3CA, size: 0x8, addend: 0x0, symName: __ZNKSt3__114__split_bufferINS_5arrayImLm2EEERNS_9allocatorIS2_EEE8capacityB7v160006Ev, symObjAddr: 0x55B20, symBinAddr: 0x100057774, symSize: 0xBC }
  - { offsetInCU: 0x3C3EF, offset: 0x3C3EF, size: 0x8, addend: 0x0, symName: __ZNSt3__114__split_bufferINS_5arrayImLm2EEERNS_9allocatorIS2_EEE17__destruct_at_endB7v160006EPS2_, symObjAddr: 0x55BDC, symBinAddr: 0x100057830, symSize: 0x2C }
  - { offsetInCU: 0x3C421, offset: 0x3C421, size: 0x8, addend: 0x0, symName: __ZNSt3__114__split_bufferINS_5arrayImLm2EEERNS_9allocatorIS2_EEE17__destruct_at_endB7v160006EPS2_NS_17integral_constantIbLb0EEE, symObjAddr: 0x55C08, symBinAddr: 0x10005785C, symSize: 0x10C }
  - { offsetInCU: 0x3C460, offset: 0x3C460, size: 0x8, addend: 0x0, symName: __ZNKSt3__114__split_bufferINS_5arrayImLm2EEERNS_9allocatorIS2_EEE9__end_capB7v160006Ev, symObjAddr: 0x55D14, symBinAddr: 0x100057968, symSize: 0x28 }
  - { offsetInCU: 0x3C485, offset: 0x3C485, size: 0x8, addend: 0x0, symName: __ZNKSt3__117__compressed_pairIPNS_5arrayImLm2EEERNS_9allocatorIS2_EEE5firstB7v160006Ev, symObjAddr: 0x55D3C, symBinAddr: 0x100057990, symSize: 0x24 }
  - { offsetInCU: 0x3C4AA, offset: 0x3C4AA, size: 0x8, addend: 0x0, symName: __ZNSt3__16vectorImNS_9allocatorImEEE17__destruct_at_endB7v160006EPm, symObjAddr: 0x55D60, symBinAddr: 0x1000579B4, symSize: 0x6C }
  - { offsetInCU: 0x3C4ED, offset: 0x3C4ED, size: 0x8, addend: 0x0, symName: __ZNSt3__16vectorImNS_9allocatorImEEE27__invalidate_iterators_pastB7v160006EPm, symObjAddr: 0x55DCC, symBinAddr: 0x100057A20, symSize: 0x14 }
  - { offsetInCU: 0x3C523, offset: 0x3C523, size: 0x8, addend: 0x0, symName: __ZNSt3__16vectorINS_4pairINS0_IcNS_9allocatorIcEEEENS0_ImNS2_ImEEEEEENS2_IS7_EEED2B7v160006Ev, symObjAddr: 0x55DE0, symBinAddr: 0x100057A34, symSize: 0x1F8 }
  - { offsetInCU: 0x3C54D, offset: 0x3C54D, size: 0x8, addend: 0x0, symName: __ZNSt3__16vectorINS_4pairINS0_IcNS_9allocatorIcEEEENS0_ImNS2_ImEEEEEENS2_IS7_EEE16__destroy_vectorC1ERS9_, symObjAddr: 0x55FD8, symBinAddr: 0x100057C2C, symSize: 0x34 }
  - { offsetInCU: 0x3C585, offset: 0x3C585, size: 0x8, addend: 0x0, symName: __ZNSt3__16vectorINS_4pairINS0_IcNS_9allocatorIcEEEENS0_ImNS2_ImEEEEEENS2_IS7_EEE16__destroy_vectorclB7v160006Ev, symObjAddr: 0x5600C, symBinAddr: 0x100057C60, symSize: 0x264 }
  - { offsetInCU: 0x3C5AA, offset: 0x3C5AA, size: 0x8, addend: 0x0, symName: __ZNSt3__16vectorINS_4pairINS0_IcNS_9allocatorIcEEEENS0_ImNS2_ImEEEEEENS2_IS7_EEE16__destroy_vectorC2ERS9_, symObjAddr: 0x56270, symBinAddr: 0x100057EC4, symSize: 0x70 }
  - { offsetInCU: 0x3C5E2, offset: 0x3C5E2, size: 0x8, addend: 0x0, symName: __ZNSt3__16vectorINS_4pairINS0_IcNS_9allocatorIcEEEENS0_ImNS2_ImEEEEEENS2_IS7_EEE7__clearB7v160006Ev, symObjAddr: 0x562F0, symBinAddr: 0x100057F44, symSize: 0x64 }
  - { offsetInCU: 0x3C607, offset: 0x3C607, size: 0x8, addend: 0x0, symName: __ZNSt3__16vectorINS_4pairINS0_IcNS_9allocatorIcEEEENS0_ImNS2_ImEEEEEENS2_IS7_EEE22__base_destruct_at_endB7v160006EPS7_, symObjAddr: 0x56354, symBinAddr: 0x100057FA8, symSize: 0x114 }
  - { offsetInCU: 0x3C649, offset: 0x3C649, size: 0x8, addend: 0x0, symName: __ZNSt3__16vectorINS_5arrayImLm2EEENS_9allocatorIS2_EEE5beginB7v160006Ev, symObjAddr: 0x567B0, symBinAddr: 0x100058404, symSize: 0x268 }
  - { offsetInCU: 0x3C670, offset: 0x3C670, size: 0x8, addend: 0x0, symName: __ZNSt3__16vectorINS_5arrayImLm2EEENS_9allocatorIS2_EEE3endB7v160006Ev, symObjAddr: 0x56A18, symBinAddr: 0x10005866C, symSize: 0x26C }
  - { offsetInCU: 0x3C6A7, offset: 0x3C6A7, size: 0x8, addend: 0x0, symName: __ZNSt3__116_UnwrapAlgPolicyIRNS_6__lessINS_5arrayImLm2EEES3_EEE10__get_compB7v160006ES5_, symObjAddr: 0x57DBC, symBinAddr: 0x100059A10, symSize: 0x14 }
  - { offsetInCU: 0x3C6CA, offset: 0x3C6CA, size: 0x8, addend: 0x0, symName: __ZNKSt3__16__lessINS_5arrayImLm2EEES2_EclB7v160006ERKS2_S5_, symObjAddr: 0x59C88, symBinAddr: 0x10005B8DC, symSize: 0x34 }
  - { offsetInCU: 0x3C70B, offset: 0x3C70B, size: 0x8, addend: 0x0, symName: __ZNSt3__18_IterOpsINS_17_ClassicAlgPolicyEE9iter_swapB7v160006IRPNS_5arrayImLm2EEES7_EEvOT_OT0_, symObjAddr: 0x59CBC, symBinAddr: 0x10005B910, symSize: 0xB0 }
  - { offsetInCU: 0x3C74E, offset: 0x3C74E, size: 0x8, addend: 0x0, symName: __ZNKSt3__15arrayImLm2EE5beginB7v160006Ev, symObjAddr: 0x5B7D8, symBinAddr: 0x10005D42C, symSize: 0x24 }
  - { offsetInCU: 0x3C773, offset: 0x3C773, size: 0x8, addend: 0x0, symName: __ZNKSt3__15arrayImLm2EE3endB7v160006Ev, symObjAddr: 0x5B7FC, symBinAddr: 0x10005D450, symSize: 0x28 }
  - { offsetInCU: 0x3C798, offset: 0x3C798, size: 0x8, addend: 0x0, symName: __ZNKSt3__15arrayImLm2EE4dataB7v160006Ev, symObjAddr: 0x5BAF0, symBinAddr: 0x10005D744, symSize: 0x14 }
  - { offsetInCU: 0x3C7BD, offset: 0x3C7BD, size: 0x8, addend: 0x0, symName: __ZNSt3__15arrayImLm2EE4swapB7v160006ERS1_, symObjAddr: 0x5BB5C, symBinAddr: 0x10005D7B0, symSize: 0x70 }
  - { offsetInCU: 0x3C7F0, offset: 0x3C7F0, size: 0x8, addend: 0x0, symName: __ZNSt3__18_IterOpsINS_17_ClassicAlgPolicyEE9iter_swapB7v160006IRPmS5_EEvOT_OT0_, symObjAddr: 0x5C208, symBinAddr: 0x10005DE5C, symSize: 0xB0 }
  - { offsetInCU: 0x3C833, offset: 0x3C833, size: 0x8, addend: 0x0, symName: __ZNSt3__18_IterOpsINS_17_ClassicAlgPolicyEE11__iter_moveB7v160006IRPNS_5arrayImLm2EEEEENS_9enable_ifIXsr12is_referenceIDTdeclsr3stdE7declvalIRT_EEEEE5valueEDTclsr3stdE4movedeclsr3stdE7declvalISA_EEEEE4typeEOS9_, symObjAddr: 0x5CA20, symBinAddr: 0x10005E674, symSize: 0x6C }
  - { offsetInCU: 0x3C85F, offset: 0x3C85F, size: 0x8, addend: 0x0, symName: __ZNSt3__18_IterOpsINS_17_ClassicAlgPolicyEE25__validate_iter_referenceB7v160006IRPNS_5arrayImLm2EEEEEvv, symObjAddr: 0x5CA8C, symBinAddr: 0x10005E6E0, symSize: 0x4 }
  - { offsetInCU: 0x3C87D, offset: 0x3C87D, size: 0x8, addend: 0x0, symName: __ZNSt3__18_IterOpsINS_17_ClassicAlgPolicyEE4nextB7v160006IPNS_5arrayImLm2EEEEET_S7_S7_, symObjAddr: 0x5CA90, symBinAddr: 0x10005E6E4, symSize: 0x18 }
  - { offsetInCU: 0x3C8B3, offset: 0x3C8B3, size: 0x8, addend: 0x0, symName: __ZNSt3__118__unwrap_iter_implINS_11__wrap_iterIPNS_5arrayImLm2EEEEELb1EE8__unwrapB7v160006ES5_, symObjAddr: 0x5EDB8, symBinAddr: 0x100060A0C, symSize: 0x1F0 }
  - { offsetInCU: 0x3C8E4, offset: 0x3C8E4, size: 0x8, addend: 0x0, symName: __ZNSt3__119__to_address_helperINS_11__wrap_iterIPNS_5arrayImLm2EEEEEvE6__callB7v160006ERKS5_, symObjAddr: 0x5EFCC, symBinAddr: 0x100060C20, symSize: 0x200 }
  - { offsetInCU: 0x3C908, offset: 0x3C908, size: 0x8, addend: 0x0, symName: __ZNSt3__114pointer_traitsINS_11__wrap_iterIPNS_5arrayImLm2EEEEEE10to_addressB7v160006ES5_, symObjAddr: 0x5F1CC, symBinAddr: 0x100060E20, symSize: 0x1F4 }
  - { offsetInCU: 0x3C930, offset: 0x3C930, size: 0x8, addend: 0x0, symName: __ZNKSt3__111__wrap_iterIPNS_5arrayImLm2EEEE4baseB7v160006Ev, symObjAddr: 0x5F3C0, symBinAddr: 0x100061014, symSize: 0x60 }
  - { offsetInCU: 0x3C955, offset: 0x3C955, size: 0x8, addend: 0x0, symName: __ZNSt3__16vectorINS_5arrayImLm2EEENS_9allocatorIS2_EEE11__make_iterB7v160006EPS2_, symObjAddr: 0x5F420, symBinAddr: 0x100061074, symSize: 0x200 }
  - { offsetInCU: 0x3C98B, offset: 0x3C98B, size: 0x8, addend: 0x0, symName: __ZNSt3__111__wrap_iterIPNS_5arrayImLm2EEEEC1B7v160006EPKvS3_, symObjAddr: 0x5F620, symBinAddr: 0x100061274, symSize: 0x3C }
  - { offsetInCU: 0x3C9D0, offset: 0x3C9D0, size: 0x8, addend: 0x0, symName: __ZNSt3__111__wrap_iterIPNS_5arrayImLm2EEEEC2B7v160006EPKvS3_, symObjAddr: 0x5F65C, symBinAddr: 0x1000612B0, symSize: 0x74 }
  - { offsetInCU: 0x3CA14, offset: 0x3CA14, size: 0x8, addend: 0x0, symName: __ZNKSt3__16vectorINS_5arrayImLm2EEENS_9allocatorIS2_EEE5beginB7v160006Ev, symObjAddr: 0x5FADC, symBinAddr: 0x100061730, symSize: 0x268 }
  - { offsetInCU: 0x3CA3B, offset: 0x3CA3B, size: 0x8, addend: 0x0, symName: __ZNKSt3__16vectorINS_5arrayImLm2EEENS_9allocatorIS2_EEE3endB7v160006Ev, symObjAddr: 0x5FD44, symBinAddr: 0x100061998, symSize: 0x26C }
  - { offsetInCU: 0x3CA63, offset: 0x3CA63, size: 0x8, addend: 0x0, symName: __ZNKSt3__110__equal_toclB7v160006INS_5arrayImLm2EEES3_EEbRKT_RKT0_, symObjAddr: 0x60364, symBinAddr: 0x100061FB8, symSize: 0x34 }
  - { offsetInCU: 0x3CAB6, offset: 0x3CAB6, size: 0x8, addend: 0x0, symName: __ZNKSt3__111__wrap_iterIPKNS_5arrayImLm2EEEEdeB7v160006Ev, symObjAddr: 0x60398, symBinAddr: 0x100061FEC, symSize: 0x60 }
  - { offsetInCU: 0x3CADB, offset: 0x3CADB, size: 0x8, addend: 0x0, symName: __ZNSt3__111__wrap_iterIPKNS_5arrayImLm2EEEEppB7v160006Ev, symObjAddr: 0x603F8, symBinAddr: 0x10006204C, symSize: 0x68 }
  - { offsetInCU: 0x3CB00, offset: 0x3CB00, size: 0x8, addend: 0x0, symName: __ZNKSt3__111__wrap_iterIPKNS_5arrayImLm2EEEE4baseB7v160006Ev, symObjAddr: 0x604A8, symBinAddr: 0x1000620FC, symSize: 0x60 }
  - { offsetInCU: 0x3CB25, offset: 0x3CB25, size: 0x8, addend: 0x0, symName: __ZNKSt3__110__equal_toclB7v160006ImmEEbRKT_RKT0_, symObjAddr: 0x607D8, symBinAddr: 0x10006242C, symSize: 0xBC }
  - { offsetInCU: 0x3CB78, offset: 0x3CB78, size: 0x8, addend: 0x0, symName: __ZNKSt3__16vectorINS_5arrayImLm2EEENS_9allocatorIS2_EEE11__make_iterB7v160006EPKS2_, symObjAddr: 0x60894, symBinAddr: 0x1000624E8, symSize: 0x200 }
  - { offsetInCU: 0x3CBAE, offset: 0x3CBAE, size: 0x8, addend: 0x0, symName: __ZNSt3__111__wrap_iterIPKNS_5arrayImLm2EEEEC1B7v160006EPKvS4_, symObjAddr: 0x60A94, symBinAddr: 0x1000626E8, symSize: 0x3C }
  - { offsetInCU: 0x3CBF3, offset: 0x3CBF3, size: 0x8, addend: 0x0, symName: __ZNSt3__111__wrap_iterIPKNS_5arrayImLm2EEEEC2B7v160006EPKvS4_, symObjAddr: 0x60AD0, symBinAddr: 0x100062724, symSize: 0x74 }
  - { offsetInCU: 0x3CC38, offset: 0x3CC38, size: 0x8, addend: 0x0, symName: __ZNSt3__16vectorINS_5arrayImLm3EEENS_9allocatorIS2_EEEC1B7v160006Ev, symObjAddr: 0x60B44, symBinAddr: 0x100062798, symSize: 0x2C }
  - { offsetInCU: 0x3CC61, offset: 0x3CC61, size: 0x8, addend: 0x0, symName: __ZNK10CSelfMatchIcE7combineILm3EEEvRNSt3__16vectorINS2_5arrayImXT_EEENS2_9allocatorIS5_EEEERKNS3_ImNS6_ImEEEERSB_mmm, symObjAddr: 0x60B70, symBinAddr: 0x1000627C4, symSize: 0x3A8 }
  - { offsetInCU: 0x3CD28, offset: 0x3CD28, size: 0x8, addend: 0x0, symName: __ZNSt3__16vectorINS_5arrayImLm3EEENS_9allocatorIS2_EEEC2B7v160006Ev, symObjAddr: 0x60F18, symBinAddr: 0x100062B6C, symSize: 0x2F0 }
  - { offsetInCU: 0x3CD52, offset: 0x3CD52, size: 0x8, addend: 0x0, symName: __ZNSt3__15arrayImLm3EE5beginB7v160006Ev, symObjAddr: 0x61208, symBinAddr: 0x100062E5C, symSize: 0x24 }
  - { offsetInCU: 0x3CD76, offset: 0x3CD76, size: 0x8, addend: 0x0, symName: __ZNSt3__16vectorINS_5arrayImLm3EEENS_9allocatorIS2_EEE9push_backB7v160006ERKS2_, symObjAddr: 0x6122C, symBinAddr: 0x100062E80, symSize: 0xE0 }
  - { offsetInCU: 0x3CDAC, offset: 0x3CDAC, size: 0x8, addend: 0x0, symName: __ZNSt3__15arrayImLm3EE4dataB7v160006Ev, symObjAddr: 0x6130C, symBinAddr: 0x100062F60, symSize: 0x14 }
  - { offsetInCU: 0x3CDD1, offset: 0x3CDD1, size: 0x8, addend: 0x0, symName: __ZNSt3__16vectorINS_5arrayImLm3EEENS_9allocatorIS2_EEE22__construct_one_at_endB7v160006IJRKS2_EEEvDpOT_, symObjAddr: 0x61320, symBinAddr: 0x100062F74, symSize: 0x36C }
  - { offsetInCU: 0x3CE24, offset: 0x3CE24, size: 0x8, addend: 0x0, symName: __ZNSt3__16vectorINS_5arrayImLm3EEENS_9allocatorIS2_EEE21__push_back_slow_pathIRKS2_EEvOT_, symObjAddr: 0x6168C, symBinAddr: 0x1000632E0, symSize: 0x3C0 }
  - { offsetInCU: 0x3CE88, offset: 0x3CE88, size: 0x8, addend: 0x0, symName: __ZNSt3__116allocator_traitsINS_9allocatorINS_5arrayImLm3EEEEEE9constructB7v160006IS3_JRKS3_EvvEEvRS4_PT_DpOT0_, symObjAddr: 0x61A4C, symBinAddr: 0x1000636A0, symSize: 0x30 }
  - { offsetInCU: 0x3CEDB, offset: 0x3CEDB, size: 0x8, addend: 0x0, symName: __ZNKSt3__16vectorINS_5arrayImLm3EEENS_9allocatorIS2_EEE11__recommendB7v160006Em, symObjAddr: 0x61ABC, symBinAddr: 0x100063710, symSize: 0x384 }
  - { offsetInCU: 0x3CF36, offset: 0x3CF36, size: 0x8, addend: 0x0, symName: __ZNSt3__114__split_bufferINS_5arrayImLm3EEERNS_9allocatorIS2_EEEC1EmmS5_, symObjAddr: 0x61E40, symBinAddr: 0x100063A94, symSize: 0x44 }
  - { offsetInCU: 0x3CF8B, offset: 0x3CF8B, size: 0x8, addend: 0x0, symName: __ZNSt3__114__split_bufferINS_5arrayImLm3EEERNS_9allocatorIS2_EEED1Ev, symObjAddr: 0x623F8, symBinAddr: 0x10006404C, symSize: 0x2C }
  - { offsetInCU: 0x3CFB6, offset: 0x3CFB6, size: 0x8, addend: 0x0, symName: __ZNSt3__114__split_bufferINS_5arrayImLm3EEERNS_9allocatorIS2_EEEC2EmmS5_, symObjAddr: 0x62424, symBinAddr: 0x100064078, symSize: 0x530 }
  - { offsetInCU: 0x3D030, offset: 0x3D030, size: 0x8, addend: 0x0, symName: __ZNSt3__117__compressed_pairIPNS_5arrayImLm3EEERNS_9allocatorIS2_EEEC1B7v160006IDnS6_EEOT_OT0_, symObjAddr: 0x62954, symBinAddr: 0x1000645A8, symSize: 0x3C }
  - { offsetInCU: 0x3D087, offset: 0x3D087, size: 0x8, addend: 0x0, symName: __ZNSt3__114__split_bufferINS_5arrayImLm3EEERNS_9allocatorIS2_EEE7__allocB7v160006Ev, symObjAddr: 0x62990, symBinAddr: 0x1000645E4, symSize: 0x28 }
  - { offsetInCU: 0x3D0AC, offset: 0x3D0AC, size: 0x8, addend: 0x0, symName: __ZNSt3__114__split_bufferINS_5arrayImLm3EEERNS_9allocatorIS2_EEE9__end_capB7v160006Ev, symObjAddr: 0x629B8, symBinAddr: 0x10006460C, symSize: 0x28 }
  - { offsetInCU: 0x3D0D1, offset: 0x3D0D1, size: 0x8, addend: 0x0, symName: __ZNSt3__117__compressed_pairIPNS_5arrayImLm3EEERNS_9allocatorIS2_EEEC2B7v160006IDnS6_EEOT_OT0_, symObjAddr: 0x629E0, symBinAddr: 0x100064634, symSize: 0x48 }
  - { offsetInCU: 0x3D128, offset: 0x3D128, size: 0x8, addend: 0x0, symName: __ZNSt3__122__compressed_pair_elemIRNS_9allocatorINS_5arrayImLm3EEEEELi1ELb0EEC2B7v160006IS5_vEEOT_, symObjAddr: 0x62A28, symBinAddr: 0x10006467C, symSize: 0x70 }
  - { offsetInCU: 0x3D169, offset: 0x3D169, size: 0x8, addend: 0x0, symName: __ZNSt3__117__compressed_pairIPNS_5arrayImLm3EEERNS_9allocatorIS2_EEE6secondB7v160006Ev, symObjAddr: 0x62A98, symBinAddr: 0x1000646EC, symSize: 0x28 }
  - { offsetInCU: 0x3D18E, offset: 0x3D18E, size: 0x8, addend: 0x0, symName: __ZNSt3__122__compressed_pair_elemIRNS_9allocatorINS_5arrayImLm3EEEEELi1ELb0EE5__getB7v160006Ev, symObjAddr: 0x62AC0, symBinAddr: 0x100064714, symSize: 0x60 }
  - { offsetInCU: 0x3D1B3, offset: 0x3D1B3, size: 0x8, addend: 0x0, symName: __ZNSt3__117__compressed_pairIPNS_5arrayImLm3EEERNS_9allocatorIS2_EEE5firstB7v160006Ev, symObjAddr: 0x62B20, symBinAddr: 0x100064774, symSize: 0x24 }
  - { offsetInCU: 0x3D1D8, offset: 0x3D1D8, size: 0x8, addend: 0x0, symName: __ZNSt3__116reverse_iteratorIPNS_5arrayImLm3EEEEC1B7v160006ES3_, symObjAddr: 0x62FEC, symBinAddr: 0x100064C40, symSize: 0x34 }
  - { offsetInCU: 0x3D20F, offset: 0x3D20F, size: 0x8, addend: 0x0, symName: __ZNKSt3__116reverse_iteratorIPNS_5arrayImLm3EEEE4baseB7v160006Ev, symObjAddr: 0x63020, symBinAddr: 0x100064C74, symSize: 0x64 }
  - { offsetInCU: 0x3D24D, offset: 0x3D24D, size: 0x8, addend: 0x0, symName: __ZNKSt3__111__move_loopINS_17_ClassicAlgPolicyEEclB7v160006INS_16reverse_iteratorIPNS_5arrayImLm3EEEEES8_S8_EENS_4pairIT_T1_EESA_T0_SB_, symObjAddr: 0x64A9C, symBinAddr: 0x1000666F0, symSize: 0x344 }
  - { offsetInCU: 0x3D2C4, offset: 0x3D2C4, size: 0x8, addend: 0x0, symName: __ZNSt3__119__unwrap_range_implINS_16reverse_iteratorIPNS_5arrayImLm3EEEEES5_E8__unwrapB7v160006ES5_S5_, symObjAddr: 0x658C0, symBinAddr: 0x100067514, symSize: 0x448 }
  - { offsetInCU: 0x3D302, offset: 0x3D302, size: 0x8, addend: 0x0, symName: __ZNSt3__14pairINS_16reverse_iteratorIPNS_5arrayImLm3EEEEES5_EC1B7v160006IS5_S5_LPv0EEEOT_OT0_, symObjAddr: 0x65D08, symBinAddr: 0x10006795C, symSize: 0x3C }
  - { offsetInCU: 0x3D35F, offset: 0x3D35F, size: 0x8, addend: 0x0, symName: __ZNSt3__14pairINS_16reverse_iteratorIPNS_5arrayImLm3EEEEES5_EC2B7v160006IS5_S5_LPv0EEEOT_OT0_, symObjAddr: 0x65D44, symBinAddr: 0x100067998, symSize: 0x54 }
  - { offsetInCU: 0x3D3C1, offset: 0x3D3C1, size: 0x8, addend: 0x0, symName: __ZNSt3__18_IterOpsINS_17_ClassicAlgPolicyEE11__iter_moveB7v160006IRNS_16reverse_iteratorIPNS_5arrayImLm3EEEEEEENS_9enable_ifIXsr12is_referenceIDTdeclsr3stdE7declvalIRT_EEEEE5valueEDTclsr3stdE4movedeclsr3stdE7declvalISC_EEEEE4typeEOSB_, symObjAddr: 0x65DE0, symBinAddr: 0x100067A34, symSize: 0x28 }
  - { offsetInCU: 0x3D3ED, offset: 0x3D3ED, size: 0x8, addend: 0x0, symName: __ZNKSt3__116reverse_iteratorIPNS_5arrayImLm3EEEEdeB7v160006Ev, symObjAddr: 0x65E08, symBinAddr: 0x100067A5C, symSize: 0x74 }
  - { offsetInCU: 0x3D420, offset: 0x3D420, size: 0x8, addend: 0x0, symName: __ZNSt3__116reverse_iteratorIPNS_5arrayImLm3EEEEppB7v160006Ev, symObjAddr: 0x65E7C, symBinAddr: 0x100067AD0, symSize: 0x6C }
  - { offsetInCU: 0x3D445, offset: 0x3D445, size: 0x8, addend: 0x0, symName: __ZNSt3__18_IterOpsINS_17_ClassicAlgPolicyEE25__validate_iter_referenceB7v160006IRNS_16reverse_iteratorIPNS_5arrayImLm3EEEEEEEvv, symObjAddr: 0x65EE8, symBinAddr: 0x100067B3C, symSize: 0x4 }
  - { offsetInCU: 0x3D463, offset: 0x3D463, size: 0x8, addend: 0x0, symName: __ZNSt3__118__unwrap_iter_implINS_16reverse_iteratorIPNS_5arrayImLm3EEEEELb0EE8__unwrapB7v160006ES5_, symObjAddr: 0x65EEC, symBinAddr: 0x100067B40, symSize: 0x274 }
  - { offsetInCU: 0x3D48A, offset: 0x3D48A, size: 0x8, addend: 0x0, symName: __ZNSt3__119__unwrap_range_implINS_16reverse_iteratorIPNS_5arrayImLm3EEEEES5_E8__rewrapB7v160006ES5_S5_, symObjAddr: 0x66160, symBinAddr: 0x100067DB4, symSize: 0x3D4 }
  - { offsetInCU: 0x3D4C3, offset: 0x3D4C3, size: 0x8, addend: 0x0, symName: __ZNSt3__118__unwrap_iter_implINS_16reverse_iteratorIPNS_5arrayImLm3EEEEELb0EE8__rewrapB7v160006ES5_S5_, symObjAddr: 0x66534, symBinAddr: 0x100068188, symSize: 0x2E0 }
  - { offsetInCU: 0x3D4F8, offset: 0x3D4F8, size: 0x8, addend: 0x0, symName: __ZNSt3__116reverse_iteratorIPNS_5arrayImLm3EEEEC2B7v160006ES3_, symObjAddr: 0x66814, symBinAddr: 0x100068468, symSize: 0xB8 }
  - { offsetInCU: 0x3D52F, offset: 0x3D52F, size: 0x8, addend: 0x0, symName: __ZNSt3__114__split_bufferINS_5arrayImLm3EEERNS_9allocatorIS2_EEED2Ev, symObjAddr: 0x668CC, symBinAddr: 0x100068520, symSize: 0x104 }
  - { offsetInCU: 0x3D55A, offset: 0x3D55A, size: 0x8, addend: 0x0, symName: __ZNSt3__114__split_bufferINS_5arrayImLm3EEERNS_9allocatorIS2_EEE5clearB7v160006Ev, symObjAddr: 0x669D0, symBinAddr: 0x100068624, symSize: 0x68 }
  - { offsetInCU: 0x3D57F, offset: 0x3D57F, size: 0x8, addend: 0x0, symName: __ZNKSt3__114__split_bufferINS_5arrayImLm3EEERNS_9allocatorIS2_EEE8capacityB7v160006Ev, symObjAddr: 0x66A38, symBinAddr: 0x10006868C, symSize: 0xBC }
  - { offsetInCU: 0x3D5A4, offset: 0x3D5A4, size: 0x8, addend: 0x0, symName: __ZNSt3__114__split_bufferINS_5arrayImLm3EEERNS_9allocatorIS2_EEE17__destruct_at_endB7v160006EPS2_, symObjAddr: 0x66AF4, symBinAddr: 0x100068748, symSize: 0x2C }
  - { offsetInCU: 0x3D5D6, offset: 0x3D5D6, size: 0x8, addend: 0x0, symName: __ZNSt3__114__split_bufferINS_5arrayImLm3EEERNS_9allocatorIS2_EEE17__destruct_at_endB7v160006EPS2_NS_17integral_constantIbLb0EEE, symObjAddr: 0x66B20, symBinAddr: 0x100068774, symSize: 0x10C }
  - { offsetInCU: 0x3D615, offset: 0x3D615, size: 0x8, addend: 0x0, symName: __ZNKSt3__114__split_bufferINS_5arrayImLm3EEERNS_9allocatorIS2_EEE9__end_capB7v160006Ev, symObjAddr: 0x66C2C, symBinAddr: 0x100068880, symSize: 0x28 }
  - { offsetInCU: 0x3D63A, offset: 0x3D63A, size: 0x8, addend: 0x0, symName: __ZNKSt3__117__compressed_pairIPNS_5arrayImLm3EEERNS_9allocatorIS2_EEE5firstB7v160006Ev, symObjAddr: 0x66C54, symBinAddr: 0x1000688A8, symSize: 0x24 }
  - { offsetInCU: 0x3D65E, offset: 0x3D65E, size: 0x8, addend: 0x0, symName: __ZNSt3__16vectorINS_5arrayImLm3EEENS_9allocatorIS2_EEE5beginB7v160006Ev, symObjAddr: 0x66FC0, symBinAddr: 0x100068C14, symSize: 0x268 }
  - { offsetInCU: 0x3D685, offset: 0x3D685, size: 0x8, addend: 0x0, symName: __ZNSt3__16vectorINS_5arrayImLm3EEENS_9allocatorIS2_EEE3endB7v160006Ev, symObjAddr: 0x67228, symBinAddr: 0x100068E7C, symSize: 0x26C }
  - { offsetInCU: 0x3D6BC, offset: 0x3D6BC, size: 0x8, addend: 0x0, symName: __ZNSt3__116_UnwrapAlgPolicyIRNS_6__lessINS_5arrayImLm3EEES3_EEE10__get_compB7v160006ES5_, symObjAddr: 0x68578, symBinAddr: 0x10006A1CC, symSize: 0x14 }
  - { offsetInCU: 0x3D6DF, offset: 0x3D6DF, size: 0x8, addend: 0x0, symName: __ZNKSt3__16__lessINS_5arrayImLm3EEES2_EclB7v160006ERKS2_S5_, symObjAddr: 0x6A444, symBinAddr: 0x10006C098, symSize: 0x34 }
  - { offsetInCU: 0x3D720, offset: 0x3D720, size: 0x8, addend: 0x0, symName: __ZNSt3__18_IterOpsINS_17_ClassicAlgPolicyEE9iter_swapB7v160006IRPNS_5arrayImLm3EEES7_EEvOT_OT0_, symObjAddr: 0x6A478, symBinAddr: 0x10006C0CC, symSize: 0xB0 }
  - { offsetInCU: 0x3D763, offset: 0x3D763, size: 0x8, addend: 0x0, symName: __ZNKSt3__15arrayImLm3EE5beginB7v160006Ev, symObjAddr: 0x6BF9C, symBinAddr: 0x10006DBF0, symSize: 0x24 }
  - { offsetInCU: 0x3D788, offset: 0x3D788, size: 0x8, addend: 0x0, symName: __ZNKSt3__15arrayImLm3EE3endB7v160006Ev, symObjAddr: 0x6BFC0, symBinAddr: 0x10006DC14, symSize: 0x28 }
  - { offsetInCU: 0x3D7AD, offset: 0x3D7AD, size: 0x8, addend: 0x0, symName: __ZNKSt3__15arrayImLm3EE4dataB7v160006Ev, symObjAddr: 0x6BFE8, symBinAddr: 0x10006DC3C, symSize: 0x14 }
  - { offsetInCU: 0x3D7D2, offset: 0x3D7D2, size: 0x8, addend: 0x0, symName: __ZNSt3__15arrayImLm3EE4swapB7v160006ERS1_, symObjAddr: 0x6C054, symBinAddr: 0x10006DCA8, symSize: 0x70 }
  - { offsetInCU: 0x3D805, offset: 0x3D805, size: 0x8, addend: 0x0, symName: __ZNSt3__18_IterOpsINS_17_ClassicAlgPolicyEE11__iter_moveB7v160006IRPNS_5arrayImLm3EEEEENS_9enable_ifIXsr12is_referenceIDTdeclsr3stdE7declvalIRT_EEEEE5valueEDTclsr3stdE4movedeclsr3stdE7declvalISA_EEEEE4typeEOS9_, symObjAddr: 0x6C6CC, symBinAddr: 0x10006E320, symSize: 0x6C }
  - { offsetInCU: 0x3D831, offset: 0x3D831, size: 0x8, addend: 0x0, symName: __ZNSt3__18_IterOpsINS_17_ClassicAlgPolicyEE25__validate_iter_referenceB7v160006IRPNS_5arrayImLm3EEEEEvv, symObjAddr: 0x6C738, symBinAddr: 0x10006E38C, symSize: 0x4 }
  - { offsetInCU: 0x3D84F, offset: 0x3D84F, size: 0x8, addend: 0x0, symName: __ZNSt3__18_IterOpsINS_17_ClassicAlgPolicyEE4nextB7v160006IPNS_5arrayImLm3EEEEET_S7_S7_, symObjAddr: 0x6C73C, symBinAddr: 0x10006E390, symSize: 0x18 }
  - { offsetInCU: 0x3D885, offset: 0x3D885, size: 0x8, addend: 0x0, symName: __ZNSt3__118__unwrap_iter_implINS_11__wrap_iterIPNS_5arrayImLm3EEEEELb1EE8__unwrapB7v160006ES5_, symObjAddr: 0x6EB30, symBinAddr: 0x100070784, symSize: 0x1F0 }
  - { offsetInCU: 0x3D8B6, offset: 0x3D8B6, size: 0x8, addend: 0x0, symName: __ZNSt3__119__to_address_helperINS_11__wrap_iterIPNS_5arrayImLm3EEEEEvE6__callB7v160006ERKS5_, symObjAddr: 0x6ED44, symBinAddr: 0x100070998, symSize: 0x200 }
  - { offsetInCU: 0x3D8DA, offset: 0x3D8DA, size: 0x8, addend: 0x0, symName: __ZNSt3__114pointer_traitsINS_11__wrap_iterIPNS_5arrayImLm3EEEEEE10to_addressB7v160006ES5_, symObjAddr: 0x6EF44, symBinAddr: 0x100070B98, symSize: 0x1F4 }
  - { offsetInCU: 0x3D902, offset: 0x3D902, size: 0x8, addend: 0x0, symName: __ZNKSt3__111__wrap_iterIPNS_5arrayImLm3EEEE4baseB7v160006Ev, symObjAddr: 0x6F138, symBinAddr: 0x100070D8C, symSize: 0x60 }
  - { offsetInCU: 0x3D927, offset: 0x3D927, size: 0x8, addend: 0x0, symName: __ZNSt3__16vectorINS_5arrayImLm3EEENS_9allocatorIS2_EEE11__make_iterB7v160006EPS2_, symObjAddr: 0x6F198, symBinAddr: 0x100070DEC, symSize: 0x200 }
  - { offsetInCU: 0x3D95D, offset: 0x3D95D, size: 0x8, addend: 0x0, symName: __ZNSt3__111__wrap_iterIPNS_5arrayImLm3EEEEC1B7v160006EPKvS3_, symObjAddr: 0x6F398, symBinAddr: 0x100070FEC, symSize: 0x3C }
  - { offsetInCU: 0x3D9A2, offset: 0x3D9A2, size: 0x8, addend: 0x0, symName: __ZNSt3__111__wrap_iterIPNS_5arrayImLm3EEEEC2B7v160006EPKvS3_, symObjAddr: 0x6F3D4, symBinAddr: 0x100071028, symSize: 0x74 }
  - { offsetInCU: 0x3D9E6, offset: 0x3D9E6, size: 0x8, addend: 0x0, symName: __ZNKSt3__16vectorINS_5arrayImLm3EEENS_9allocatorIS2_EEE5beginB7v160006Ev, symObjAddr: 0x6F854, symBinAddr: 0x1000714A8, symSize: 0x268 }
  - { offsetInCU: 0x3DA0D, offset: 0x3DA0D, size: 0x8, addend: 0x0, symName: __ZNKSt3__16vectorINS_5arrayImLm3EEENS_9allocatorIS2_EEE3endB7v160006Ev, symObjAddr: 0x6FABC, symBinAddr: 0x100071710, symSize: 0x26C }
  - { offsetInCU: 0x3DA35, offset: 0x3DA35, size: 0x8, addend: 0x0, symName: __ZNKSt3__110__equal_toclB7v160006INS_5arrayImLm3EEES3_EEbRKT_RKT0_, symObjAddr: 0x700DC, symBinAddr: 0x100071D30, symSize: 0x34 }
  - { offsetInCU: 0x3DA88, offset: 0x3DA88, size: 0x8, addend: 0x0, symName: __ZNKSt3__111__wrap_iterIPKNS_5arrayImLm3EEEEdeB7v160006Ev, symObjAddr: 0x70110, symBinAddr: 0x100071D64, symSize: 0x60 }
  - { offsetInCU: 0x3DAAD, offset: 0x3DAAD, size: 0x8, addend: 0x0, symName: __ZNSt3__111__wrap_iterIPKNS_5arrayImLm3EEEEppB7v160006Ev, symObjAddr: 0x70170, symBinAddr: 0x100071DC4, symSize: 0x68 }
  - { offsetInCU: 0x3DAD2, offset: 0x3DAD2, size: 0x8, addend: 0x0, symName: __ZNKSt3__111__wrap_iterIPKNS_5arrayImLm3EEEE4baseB7v160006Ev, symObjAddr: 0x70220, symBinAddr: 0x100071E74, symSize: 0x60 }
  - { offsetInCU: 0x3DAF7, offset: 0x3DAF7, size: 0x8, addend: 0x0, symName: __ZNKSt3__16vectorINS_5arrayImLm3EEENS_9allocatorIS2_EEE11__make_iterB7v160006EPKS2_, symObjAddr: 0x702D4, symBinAddr: 0x100071F28, symSize: 0x200 }
  - { offsetInCU: 0x3DB2D, offset: 0x3DB2D, size: 0x8, addend: 0x0, symName: __ZNSt3__111__wrap_iterIPKNS_5arrayImLm3EEEEC1B7v160006EPKvS4_, symObjAddr: 0x704D4, symBinAddr: 0x100072128, symSize: 0x3C }
  - { offsetInCU: 0x3DB72, offset: 0x3DB72, size: 0x8, addend: 0x0, symName: __ZNSt3__111__wrap_iterIPKNS_5arrayImLm3EEEEC2B7v160006EPKvS4_, symObjAddr: 0x70510, symBinAddr: 0x100072164, symSize: 0x74 }
  - { offsetInCU: 0x3DBB7, offset: 0x3DBB7, size: 0x8, addend: 0x0, symName: __ZNSt3__16vectorINS_5arrayImLm1EEENS_9allocatorIS2_EEEC1B7v160006Ev, symObjAddr: 0x70584, symBinAddr: 0x1000721D8, symSize: 0x2C }
  - { offsetInCU: 0x3DBE0, offset: 0x3DBE0, size: 0x8, addend: 0x0, symName: __ZNK10CSelfMatchIcE7combineILm1EEEvRNSt3__16vectorINS2_5arrayImXT_EEENS2_9allocatorIS5_EEEERKNS3_ImNS6_ImEEEERSB_mmm, symObjAddr: 0x705B0, symBinAddr: 0x100072204, symSize: 0x39C }
  - { offsetInCU: 0x3DCA7, offset: 0x3DCA7, size: 0x8, addend: 0x0, symName: __ZNSt3__16vectorINS_5arrayImLm1EEENS_9allocatorIS2_EEEC2B7v160006Ev, symObjAddr: 0x7094C, symBinAddr: 0x1000725A0, symSize: 0x2F0 }
  - { offsetInCU: 0x3DCD1, offset: 0x3DCD1, size: 0x8, addend: 0x0, symName: __ZNSt3__15arrayImLm1EE5beginB7v160006Ev, symObjAddr: 0x70C3C, symBinAddr: 0x100072890, symSize: 0x24 }
  - { offsetInCU: 0x3DCF5, offset: 0x3DCF5, size: 0x8, addend: 0x0, symName: __ZNSt3__16vectorINS_5arrayImLm1EEENS_9allocatorIS2_EEE9push_backB7v160006ERKS2_, symObjAddr: 0x70C60, symBinAddr: 0x1000728B4, symSize: 0xE0 }
  - { offsetInCU: 0x3DD2B, offset: 0x3DD2B, size: 0x8, addend: 0x0, symName: __ZNSt3__15arrayImLm1EE4dataB7v160006Ev, symObjAddr: 0x70D40, symBinAddr: 0x100072994, symSize: 0x14 }
  - { offsetInCU: 0x3DD50, offset: 0x3DD50, size: 0x8, addend: 0x0, symName: __ZNSt3__16vectorINS_5arrayImLm1EEENS_9allocatorIS2_EEE22__construct_one_at_endB7v160006IJRKS2_EEEvDpOT_, symObjAddr: 0x70D54, symBinAddr: 0x1000729A8, symSize: 0x36C }
  - { offsetInCU: 0x3DDA3, offset: 0x3DDA3, size: 0x8, addend: 0x0, symName: __ZNSt3__16vectorINS_5arrayImLm1EEENS_9allocatorIS2_EEE21__push_back_slow_pathIRKS2_EEvOT_, symObjAddr: 0x710C0, symBinAddr: 0x100072D14, symSize: 0x3C0 }
  - { offsetInCU: 0x3DE07, offset: 0x3DE07, size: 0x8, addend: 0x0, symName: __ZNSt3__116allocator_traitsINS_9allocatorINS_5arrayImLm1EEEEEE9constructB7v160006IS3_JRKS3_EvvEEvRS4_PT_DpOT0_, symObjAddr: 0x71480, symBinAddr: 0x1000730D4, symSize: 0x30 }
  - { offsetInCU: 0x3DE5A, offset: 0x3DE5A, size: 0x8, addend: 0x0, symName: __ZNKSt3__16vectorINS_5arrayImLm1EEENS_9allocatorIS2_EEE11__recommendB7v160006Em, symObjAddr: 0x714F0, symBinAddr: 0x100073144, symSize: 0x384 }
  - { offsetInCU: 0x3DEB5, offset: 0x3DEB5, size: 0x8, addend: 0x0, symName: __ZNSt3__114__split_bufferINS_5arrayImLm1EEERNS_9allocatorIS2_EEEC1EmmS5_, symObjAddr: 0x71874, symBinAddr: 0x1000734C8, symSize: 0x44 }
  - { offsetInCU: 0x3DF0A, offset: 0x3DF0A, size: 0x8, addend: 0x0, symName: __ZNSt3__114__split_bufferINS_5arrayImLm1EEERNS_9allocatorIS2_EEED1Ev, symObjAddr: 0x71E2C, symBinAddr: 0x100073A80, symSize: 0x2C }
  - { offsetInCU: 0x3DF35, offset: 0x3DF35, size: 0x8, addend: 0x0, symName: __ZNSt3__114__split_bufferINS_5arrayImLm1EEERNS_9allocatorIS2_EEEC2EmmS5_, symObjAddr: 0x71E58, symBinAddr: 0x100073AAC, symSize: 0x520 }
  - { offsetInCU: 0x3DFAF, offset: 0x3DFAF, size: 0x8, addend: 0x0, symName: __ZNSt3__117__compressed_pairIPNS_5arrayImLm1EEERNS_9allocatorIS2_EEEC1B7v160006IDnS6_EEOT_OT0_, symObjAddr: 0x72378, symBinAddr: 0x100073FCC, symSize: 0x3C }
  - { offsetInCU: 0x3E006, offset: 0x3E006, size: 0x8, addend: 0x0, symName: __ZNSt3__114__split_bufferINS_5arrayImLm1EEERNS_9allocatorIS2_EEE7__allocB7v160006Ev, symObjAddr: 0x723B4, symBinAddr: 0x100074008, symSize: 0x28 }
  - { offsetInCU: 0x3E02B, offset: 0x3E02B, size: 0x8, addend: 0x0, symName: __ZNSt3__114__split_bufferINS_5arrayImLm1EEERNS_9allocatorIS2_EEE9__end_capB7v160006Ev, symObjAddr: 0x723DC, symBinAddr: 0x100074030, symSize: 0x28 }
  - { offsetInCU: 0x3E050, offset: 0x3E050, size: 0x8, addend: 0x0, symName: __ZNSt3__117__compressed_pairIPNS_5arrayImLm1EEERNS_9allocatorIS2_EEEC2B7v160006IDnS6_EEOT_OT0_, symObjAddr: 0x72404, symBinAddr: 0x100074058, symSize: 0x48 }
  - { offsetInCU: 0x3E0A7, offset: 0x3E0A7, size: 0x8, addend: 0x0, symName: __ZNSt3__122__compressed_pair_elemIRNS_9allocatorINS_5arrayImLm1EEEEELi1ELb0EEC2B7v160006IS5_vEEOT_, symObjAddr: 0x7244C, symBinAddr: 0x1000740A0, symSize: 0x70 }
  - { offsetInCU: 0x3E0E8, offset: 0x3E0E8, size: 0x8, addend: 0x0, symName: __ZNSt3__117__compressed_pairIPNS_5arrayImLm1EEERNS_9allocatorIS2_EEE6secondB7v160006Ev, symObjAddr: 0x724BC, symBinAddr: 0x100074110, symSize: 0x28 }
  - { offsetInCU: 0x3E10D, offset: 0x3E10D, size: 0x8, addend: 0x0, symName: __ZNSt3__122__compressed_pair_elemIRNS_9allocatorINS_5arrayImLm1EEEEELi1ELb0EE5__getB7v160006Ev, symObjAddr: 0x724E4, symBinAddr: 0x100074138, symSize: 0x60 }
  - { offsetInCU: 0x3E132, offset: 0x3E132, size: 0x8, addend: 0x0, symName: __ZNSt3__117__compressed_pairIPNS_5arrayImLm1EEERNS_9allocatorIS2_EEE5firstB7v160006Ev, symObjAddr: 0x72544, symBinAddr: 0x100074198, symSize: 0x24 }
  - { offsetInCU: 0x3E157, offset: 0x3E157, size: 0x8, addend: 0x0, symName: __ZNSt3__116reverse_iteratorIPNS_5arrayImLm1EEEEC1B7v160006ES3_, symObjAddr: 0x72A10, symBinAddr: 0x100074664, symSize: 0x34 }
  - { offsetInCU: 0x3E18E, offset: 0x3E18E, size: 0x8, addend: 0x0, symName: __ZNKSt3__116reverse_iteratorIPNS_5arrayImLm1EEEE4baseB7v160006Ev, symObjAddr: 0x72A44, symBinAddr: 0x100074698, symSize: 0x64 }
  - { offsetInCU: 0x3E1CC, offset: 0x3E1CC, size: 0x8, addend: 0x0, symName: __ZNKSt3__111__move_loopINS_17_ClassicAlgPolicyEEclB7v160006INS_16reverse_iteratorIPNS_5arrayImLm1EEEEES8_S8_EENS_4pairIT_T1_EESA_T0_SB_, symObjAddr: 0x744C0, symBinAddr: 0x100076114, symSize: 0x344 }
  - { offsetInCU: 0x3E243, offset: 0x3E243, size: 0x8, addend: 0x0, symName: __ZNSt3__119__unwrap_range_implINS_16reverse_iteratorIPNS_5arrayImLm1EEEEES5_E8__unwrapB7v160006ES5_S5_, symObjAddr: 0x752E4, symBinAddr: 0x100076F38, symSize: 0x448 }
  - { offsetInCU: 0x3E281, offset: 0x3E281, size: 0x8, addend: 0x0, symName: __ZNSt3__14pairINS_16reverse_iteratorIPNS_5arrayImLm1EEEEES5_EC1B7v160006IS5_S5_LPv0EEEOT_OT0_, symObjAddr: 0x7572C, symBinAddr: 0x100077380, symSize: 0x3C }
  - { offsetInCU: 0x3E2DE, offset: 0x3E2DE, size: 0x8, addend: 0x0, symName: __ZNSt3__14pairINS_16reverse_iteratorIPNS_5arrayImLm1EEEEES5_EC2B7v160006IS5_S5_LPv0EEEOT_OT0_, symObjAddr: 0x75768, symBinAddr: 0x1000773BC, symSize: 0x54 }
  - { offsetInCU: 0x3E340, offset: 0x3E340, size: 0x8, addend: 0x0, symName: __ZNSt3__18_IterOpsINS_17_ClassicAlgPolicyEE11__iter_moveB7v160006IRNS_16reverse_iteratorIPNS_5arrayImLm1EEEEEEENS_9enable_ifIXsr12is_referenceIDTdeclsr3stdE7declvalIRT_EEEEE5valueEDTclsr3stdE4movedeclsr3stdE7declvalISC_EEEEE4typeEOSB_, symObjAddr: 0x75804, symBinAddr: 0x100077458, symSize: 0x28 }
  - { offsetInCU: 0x3E36C, offset: 0x3E36C, size: 0x8, addend: 0x0, symName: __ZNKSt3__116reverse_iteratorIPNS_5arrayImLm1EEEEdeB7v160006Ev, symObjAddr: 0x7582C, symBinAddr: 0x100077480, symSize: 0x74 }
  - { offsetInCU: 0x3E39F, offset: 0x3E39F, size: 0x8, addend: 0x0, symName: __ZNSt3__116reverse_iteratorIPNS_5arrayImLm1EEEEppB7v160006Ev, symObjAddr: 0x758A0, symBinAddr: 0x1000774F4, symSize: 0x6C }
  - { offsetInCU: 0x3E3C4, offset: 0x3E3C4, size: 0x8, addend: 0x0, symName: __ZNSt3__18_IterOpsINS_17_ClassicAlgPolicyEE25__validate_iter_referenceB7v160006IRNS_16reverse_iteratorIPNS_5arrayImLm1EEEEEEEvv, symObjAddr: 0x7590C, symBinAddr: 0x100077560, symSize: 0x4 }
  - { offsetInCU: 0x3E3E2, offset: 0x3E3E2, size: 0x8, addend: 0x0, symName: __ZNSt3__118__unwrap_iter_implINS_16reverse_iteratorIPNS_5arrayImLm1EEEEELb0EE8__unwrapB7v160006ES5_, symObjAddr: 0x75910, symBinAddr: 0x100077564, symSize: 0x274 }
  - { offsetInCU: 0x3E409, offset: 0x3E409, size: 0x8, addend: 0x0, symName: __ZNSt3__119__unwrap_range_implINS_16reverse_iteratorIPNS_5arrayImLm1EEEEES5_E8__rewrapB7v160006ES5_S5_, symObjAddr: 0x75B84, symBinAddr: 0x1000777D8, symSize: 0x3D4 }
  - { offsetInCU: 0x3E442, offset: 0x3E442, size: 0x8, addend: 0x0, symName: __ZNSt3__118__unwrap_iter_implINS_16reverse_iteratorIPNS_5arrayImLm1EEEEELb0EE8__rewrapB7v160006ES5_S5_, symObjAddr: 0x75F58, symBinAddr: 0x100077BAC, symSize: 0x2E0 }
  - { offsetInCU: 0x3E477, offset: 0x3E477, size: 0x8, addend: 0x0, symName: __ZNSt3__116reverse_iteratorIPNS_5arrayImLm1EEEEC2B7v160006ES3_, symObjAddr: 0x76238, symBinAddr: 0x100077E8C, symSize: 0xB8 }
  - { offsetInCU: 0x3E4AE, offset: 0x3E4AE, size: 0x8, addend: 0x0, symName: __ZNSt3__114__split_bufferINS_5arrayImLm1EEERNS_9allocatorIS2_EEED2Ev, symObjAddr: 0x762F0, symBinAddr: 0x100077F44, symSize: 0x104 }
  - { offsetInCU: 0x3E4D9, offset: 0x3E4D9, size: 0x8, addend: 0x0, symName: __ZNSt3__114__split_bufferINS_5arrayImLm1EEERNS_9allocatorIS2_EEE5clearB7v160006Ev, symObjAddr: 0x763F4, symBinAddr: 0x100078048, symSize: 0x68 }
  - { offsetInCU: 0x3E4FE, offset: 0x3E4FE, size: 0x8, addend: 0x0, symName: __ZNKSt3__114__split_bufferINS_5arrayImLm1EEERNS_9allocatorIS2_EEE8capacityB7v160006Ev, symObjAddr: 0x7645C, symBinAddr: 0x1000780B0, symSize: 0xBC }
  - { offsetInCU: 0x3E523, offset: 0x3E523, size: 0x8, addend: 0x0, symName: __ZNSt3__114__split_bufferINS_5arrayImLm1EEERNS_9allocatorIS2_EEE17__destruct_at_endB7v160006EPS2_, symObjAddr: 0x76518, symBinAddr: 0x10007816C, symSize: 0x2C }
  - { offsetInCU: 0x3E555, offset: 0x3E555, size: 0x8, addend: 0x0, symName: __ZNSt3__114__split_bufferINS_5arrayImLm1EEERNS_9allocatorIS2_EEE17__destruct_at_endB7v160006EPS2_NS_17integral_constantIbLb0EEE, symObjAddr: 0x76544, symBinAddr: 0x100078198, symSize: 0x10C }
  - { offsetInCU: 0x3E594, offset: 0x3E594, size: 0x8, addend: 0x0, symName: __ZNKSt3__114__split_bufferINS_5arrayImLm1EEERNS_9allocatorIS2_EEE9__end_capB7v160006Ev, symObjAddr: 0x76650, symBinAddr: 0x1000782A4, symSize: 0x28 }
  - { offsetInCU: 0x3E5B9, offset: 0x3E5B9, size: 0x8, addend: 0x0, symName: __ZNKSt3__117__compressed_pairIPNS_5arrayImLm1EEERNS_9allocatorIS2_EEE5firstB7v160006Ev, symObjAddr: 0x76678, symBinAddr: 0x1000782CC, symSize: 0x24 }
  - { offsetInCU: 0x3E5DD, offset: 0x3E5DD, size: 0x8, addend: 0x0, symName: __ZNSt3__16vectorINS_5arrayImLm1EEENS_9allocatorIS2_EEE5beginB7v160006Ev, symObjAddr: 0x769E4, symBinAddr: 0x100078638, symSize: 0x268 }
  - { offsetInCU: 0x3E604, offset: 0x3E604, size: 0x8, addend: 0x0, symName: __ZNSt3__16vectorINS_5arrayImLm1EEENS_9allocatorIS2_EEE3endB7v160006Ev, symObjAddr: 0x76C4C, symBinAddr: 0x1000788A0, symSize: 0x26C }
  - { offsetInCU: 0x3E63B, offset: 0x3E63B, size: 0x8, addend: 0x0, symName: __ZNSt3__116_UnwrapAlgPolicyIRNS_6__lessINS_5arrayImLm1EEES3_EEE10__get_compB7v160006ES5_, symObjAddr: 0x77F9C, symBinAddr: 0x100079BF0, symSize: 0x14 }
  - { offsetInCU: 0x3E65E, offset: 0x3E65E, size: 0x8, addend: 0x0, symName: __ZNKSt3__16__lessINS_5arrayImLm1EEES2_EclB7v160006ERKS2_S5_, symObjAddr: 0x79E4C, symBinAddr: 0x10007BAA0, symSize: 0x34 }
  - { offsetInCU: 0x3E69F, offset: 0x3E69F, size: 0x8, addend: 0x0, symName: __ZNSt3__18_IterOpsINS_17_ClassicAlgPolicyEE9iter_swapB7v160006IRPNS_5arrayImLm1EEES7_EEvOT_OT0_, symObjAddr: 0x79E80, symBinAddr: 0x10007BAD4, symSize: 0xB0 }
  - { offsetInCU: 0x3E6E2, offset: 0x3E6E2, size: 0x8, addend: 0x0, symName: __ZNKSt3__15arrayImLm1EE5beginB7v160006Ev, symObjAddr: 0x7B954, symBinAddr: 0x10007D5A8, symSize: 0x24 }
  - { offsetInCU: 0x3E707, offset: 0x3E707, size: 0x8, addend: 0x0, symName: __ZNKSt3__15arrayImLm1EE3endB7v160006Ev, symObjAddr: 0x7B978, symBinAddr: 0x10007D5CC, symSize: 0x28 }
  - { offsetInCU: 0x3E72C, offset: 0x3E72C, size: 0x8, addend: 0x0, symName: __ZNKSt3__15arrayImLm1EE4dataB7v160006Ev, symObjAddr: 0x7B9A0, symBinAddr: 0x10007D5F4, symSize: 0x14 }
  - { offsetInCU: 0x3E751, offset: 0x3E751, size: 0x8, addend: 0x0, symName: __ZNSt3__15arrayImLm1EE4swapB7v160006ERS1_, symObjAddr: 0x7BA0C, symBinAddr: 0x10007D660, symSize: 0x70 }
  - { offsetInCU: 0x3E784, offset: 0x3E784, size: 0x8, addend: 0x0, symName: __ZNSt3__18_IterOpsINS_17_ClassicAlgPolicyEE11__iter_moveB7v160006IRPNS_5arrayImLm1EEEEENS_9enable_ifIXsr12is_referenceIDTdeclsr3stdE7declvalIRT_EEEEE5valueEDTclsr3stdE4movedeclsr3stdE7declvalISA_EEEEE4typeEOS9_, symObjAddr: 0x7C084, symBinAddr: 0x10007DCD8, symSize: 0x6C }
  - { offsetInCU: 0x3E7B0, offset: 0x3E7B0, size: 0x8, addend: 0x0, symName: __ZNSt3__18_IterOpsINS_17_ClassicAlgPolicyEE25__validate_iter_referenceB7v160006IRPNS_5arrayImLm1EEEEEvv, symObjAddr: 0x7C0F0, symBinAddr: 0x10007DD44, symSize: 0x4 }
  - { offsetInCU: 0x3E7CE, offset: 0x3E7CE, size: 0x8, addend: 0x0, symName: __ZNSt3__18_IterOpsINS_17_ClassicAlgPolicyEE4nextB7v160006IPNS_5arrayImLm1EEEEET_S7_S7_, symObjAddr: 0x7C0F4, symBinAddr: 0x10007DD48, symSize: 0x18 }
  - { offsetInCU: 0x3E804, offset: 0x3E804, size: 0x8, addend: 0x0, symName: __ZNSt3__118__unwrap_iter_implINS_11__wrap_iterIPNS_5arrayImLm1EEEEELb1EE8__unwrapB7v160006ES5_, symObjAddr: 0x7E41C, symBinAddr: 0x100080070, symSize: 0x1F0 }
  - { offsetInCU: 0x3E835, offset: 0x3E835, size: 0x8, addend: 0x0, symName: __ZNSt3__119__to_address_helperINS_11__wrap_iterIPNS_5arrayImLm1EEEEEvE6__callB7v160006ERKS5_, symObjAddr: 0x7E630, symBinAddr: 0x100080284, symSize: 0x200 }
  - { offsetInCU: 0x3E859, offset: 0x3E859, size: 0x8, addend: 0x0, symName: __ZNSt3__114pointer_traitsINS_11__wrap_iterIPNS_5arrayImLm1EEEEEE10to_addressB7v160006ES5_, symObjAddr: 0x7E830, symBinAddr: 0x100080484, symSize: 0x1F4 }
  - { offsetInCU: 0x3E881, offset: 0x3E881, size: 0x8, addend: 0x0, symName: __ZNKSt3__111__wrap_iterIPNS_5arrayImLm1EEEE4baseB7v160006Ev, symObjAddr: 0x7EA24, symBinAddr: 0x100080678, symSize: 0x60 }
  - { offsetInCU: 0x3E8A6, offset: 0x3E8A6, size: 0x8, addend: 0x0, symName: __ZNSt3__16vectorINS_5arrayImLm1EEENS_9allocatorIS2_EEE11__make_iterB7v160006EPS2_, symObjAddr: 0x7EA84, symBinAddr: 0x1000806D8, symSize: 0x200 }
  - { offsetInCU: 0x3E8DC, offset: 0x3E8DC, size: 0x8, addend: 0x0, symName: __ZNSt3__111__wrap_iterIPNS_5arrayImLm1EEEEC1B7v160006EPKvS3_, symObjAddr: 0x7EC84, symBinAddr: 0x1000808D8, symSize: 0x3C }
  - { offsetInCU: 0x3E921, offset: 0x3E921, size: 0x8, addend: 0x0, symName: __ZNSt3__111__wrap_iterIPNS_5arrayImLm1EEEEC2B7v160006EPKvS3_, symObjAddr: 0x7ECC0, symBinAddr: 0x100080914, symSize: 0x74 }
  - { offsetInCU: 0x3E965, offset: 0x3E965, size: 0x8, addend: 0x0, symName: __ZNKSt3__16vectorINS_5arrayImLm1EEENS_9allocatorIS2_EEE5beginB7v160006Ev, symObjAddr: 0x7F140, symBinAddr: 0x100080D94, symSize: 0x268 }
  - { offsetInCU: 0x3E98C, offset: 0x3E98C, size: 0x8, addend: 0x0, symName: __ZNKSt3__16vectorINS_5arrayImLm1EEENS_9allocatorIS2_EEE3endB7v160006Ev, symObjAddr: 0x7F3A8, symBinAddr: 0x100080FFC, symSize: 0x26C }
  - { offsetInCU: 0x3E9B4, offset: 0x3E9B4, size: 0x8, addend: 0x0, symName: __ZNKSt3__110__equal_toclB7v160006INS_5arrayImLm1EEES3_EEbRKT_RKT0_, symObjAddr: 0x7F9C8, symBinAddr: 0x10008161C, symSize: 0x34 }
  - { offsetInCU: 0x3EA07, offset: 0x3EA07, size: 0x8, addend: 0x0, symName: __ZNKSt3__111__wrap_iterIPKNS_5arrayImLm1EEEEdeB7v160006Ev, symObjAddr: 0x7F9FC, symBinAddr: 0x100081650, symSize: 0x60 }
  - { offsetInCU: 0x3EA2C, offset: 0x3EA2C, size: 0x8, addend: 0x0, symName: __ZNSt3__111__wrap_iterIPKNS_5arrayImLm1EEEEppB7v160006Ev, symObjAddr: 0x7FA5C, symBinAddr: 0x1000816B0, symSize: 0x68 }
  - { offsetInCU: 0x3EA51, offset: 0x3EA51, size: 0x8, addend: 0x0, symName: __ZNKSt3__111__wrap_iterIPKNS_5arrayImLm1EEEE4baseB7v160006Ev, symObjAddr: 0x7FB0C, symBinAddr: 0x100081760, symSize: 0x60 }
  - { offsetInCU: 0x3EA76, offset: 0x3EA76, size: 0x8, addend: 0x0, symName: __ZNKSt3__16vectorINS_5arrayImLm1EEENS_9allocatorIS2_EEE11__make_iterB7v160006EPKS2_, symObjAddr: 0x7FBC0, symBinAddr: 0x100081814, symSize: 0x200 }
  - { offsetInCU: 0x3EAAC, offset: 0x3EAAC, size: 0x8, addend: 0x0, symName: __ZNSt3__111__wrap_iterIPKNS_5arrayImLm1EEEEC1B7v160006EPKvS4_, symObjAddr: 0x7FDC0, symBinAddr: 0x100081A14, symSize: 0x3C }
  - { offsetInCU: 0x3EAF1, offset: 0x3EAF1, size: 0x8, addend: 0x0, symName: __ZNSt3__111__wrap_iterIPKNS_5arrayImLm1EEEEC2B7v160006EPKvS4_, symObjAddr: 0x7FDFC, symBinAddr: 0x100081A50, symSize: 0x74 }
  - { offsetInCU: 0x3EB36, offset: 0x3EB36, size: 0x8, addend: 0x0, symName: __ZN10CSelfMatchIiEC2ESt16initializer_listIiE, symObjAddr: 0x7FE70, symBinAddr: 0x100081AC4, symSize: 0x284 }
  - { offsetInCU: 0x3EB72, offset: 0x3EB72, size: 0x8, addend: 0x0, symName: __ZNSt3__16vectorIiNS_9allocatorIiEEEC1B7v160006ESt16initializer_listIiE, symObjAddr: 0x800F4, symBinAddr: 0x100081D48, symSize: 0x248 }
  - { offsetInCU: 0x3EBB1, offset: 0x3EBB1, size: 0x8, addend: 0x0, symName: __ZNSt3__16vectorIiNS_9allocatorIiEEEC2B7v160006ESt16initializer_listIiE, symObjAddr: 0x8033C, symBinAddr: 0x100081F90, symSize: 0x530 }
  - { offsetInCU: 0x3EC09, offset: 0x3EC09, size: 0x8, addend: 0x0, symName: __ZNKSt16initializer_listIiE4sizeB7v160006Ev, symObjAddr: 0x80AE4, symBinAddr: 0x100082738, symSize: 0x64 }
  - { offsetInCU: 0x3EC2E, offset: 0x3EC2E, size: 0x8, addend: 0x0, symName: __ZNSt3__16vectorIiNS_9allocatorIiEEE11__vallocateB7v160006Em, symObjAddr: 0x80B48, symBinAddr: 0x10008279C, symSize: 0x420 }
  - { offsetInCU: 0x3EC76, offset: 0x3EC76, size: 0x8, addend: 0x0, symName: __ZNSt3__16vectorIiNS_9allocatorIiEEE18__construct_at_endIPKiLi0EEEvT_S7_m, symObjAddr: 0x80F68, symBinAddr: 0x100082BBC, symSize: 0x380 }
  - { offsetInCU: 0x3ECF0, offset: 0x3ECF0, size: 0x8, addend: 0x0, symName: __ZNSt3__128__exception_guard_exceptionsINS_6vectorIiNS_9allocatorIiEEE16__destroy_vectorEE10__completeB7v160006Ev, symObjAddr: 0x812E8, symBinAddr: 0x100082F3C, symSize: 0x8C }
  - { offsetInCU: 0x3ED15, offset: 0x3ED15, size: 0x8, addend: 0x0, symName: __ZNSt3__128__exception_guard_exceptionsINS_6vectorIiNS_9allocatorIiEEE16__destroy_vectorEED1B7v160006Ev, symObjAddr: 0x81374, symBinAddr: 0x100082FC8, symSize: 0x2C }
  - { offsetInCU: 0x3ED3E, offset: 0x3ED3E, size: 0x8, addend: 0x0, symName: __ZNSt3__128__exception_guard_exceptionsINS_6vectorIiNS_9allocatorIiEEE16__destroy_vectorEEC1B7v160006ES5_, symObjAddr: 0x813A0, symBinAddr: 0x100082FF4, symSize: 0x238 }
  - { offsetInCU: 0x3ED7A, offset: 0x3ED7A, size: 0x8, addend: 0x0, symName: __ZNSt3__128__exception_guard_exceptionsINS_6vectorIiNS_9allocatorIiEEE16__destroy_vectorEEC2B7v160006ES5_, symObjAddr: 0x815D8, symBinAddr: 0x10008322C, symSize: 0x264 }
  - { offsetInCU: 0x3EDCF, offset: 0x3EDCF, size: 0x8, addend: 0x0, symName: __ZNKSt3__114__copy_trivialclB7v160006IKiiLi0EEENS_4pairIPT_PT0_EES5_S5_S7_, symObjAddr: 0x82700, symBinAddr: 0x100084354, symSize: 0x230 }
  - { offsetInCU: 0x3EE53, offset: 0x3EE53, size: 0x8, addend: 0x0, symName: __ZNSt3__119__unwrap_range_implIPKiS2_E8__unwrapB7v160006ES2_S2_, symObjAddr: 0x82BD4, symBinAddr: 0x100084828, symSize: 0x30C }
  - { offsetInCU: 0x3EE8B, offset: 0x3EE8B, size: 0x8, addend: 0x0, symName: __ZNSt3__14pairIPKiS2_EC1B7v160006IS2_S2_LPv0EEEOT_OT0_, symObjAddr: 0x82F04, symBinAddr: 0x100084B58, symSize: 0x3C }
  - { offsetInCU: 0x3EEE8, offset: 0x3EEE8, size: 0x8, addend: 0x0, symName: __ZNSt3__118__unwrap_iter_implIPKiLb1EE8__unwrapB7v160006ES2_, symObjAddr: 0x82F40, symBinAddr: 0x100084B94, symSize: 0x24 }
  - { offsetInCU: 0x3EF0B, offset: 0x3EF0B, size: 0x8, addend: 0x0, symName: __ZNSt3__14pairIPKiS2_EC2B7v160006IS2_S2_LPv0EEEOT_OT0_, symObjAddr: 0x82F78, symBinAddr: 0x100084BCC, symSize: 0x138 }
  - { offsetInCU: 0x3EF72, offset: 0x3EF72, size: 0x8, addend: 0x0, symName: __ZNSt3__14pairIPKiPiEC1B7v160006IRS2_S3_LPv0EEEOT_OT0_, symObjAddr: 0x83674, symBinAddr: 0x1000852C8, symSize: 0x3C }
  - { offsetInCU: 0x3EFCF, offset: 0x3EFCF, size: 0x8, addend: 0x0, symName: __ZNSt3__14pairIPKiPiEC2B7v160006IRS2_S3_LPv0EEEOT_OT0_, symObjAddr: 0x836B0, symBinAddr: 0x100085304, symSize: 0x138 }
  - { offsetInCU: 0x3F02C, offset: 0x3F02C, size: 0x8, addend: 0x0, symName: __ZNSt3__118__unwrap_iter_implIPiLb1EE8__unwrapB7v160006ES1_, symObjAddr: 0x837E8, symBinAddr: 0x10008543C, symSize: 0x24 }
  - { offsetInCU: 0x3F04F, offset: 0x3F04F, size: 0x8, addend: 0x0, symName: __ZNSt3__14pairIPKiPiEC1B7v160006IS2_S3_LPv0EEEOT_OT0_, symObjAddr: 0x8380C, symBinAddr: 0x100085460, symSize: 0x3C }
  - { offsetInCU: 0x3F0AC, offset: 0x3F0AC, size: 0x8, addend: 0x0, symName: __ZNSt3__14pairIPKiPiEC2B7v160006IS2_S3_LPv0EEEOT_OT0_, symObjAddr: 0x83848, symBinAddr: 0x10008549C, symSize: 0x138 }
  - { offsetInCU: 0x3F109, offset: 0x3F109, size: 0x8, addend: 0x0, symName: __ZNSt3__119__unwrap_range_implIPKiS2_E8__rewrapB7v160006ES2_S2_, symObjAddr: 0x83980, symBinAddr: 0x1000855D4, symSize: 0x2C }
  - { offsetInCU: 0x3F13A, offset: 0x3F13A, size: 0x8, addend: 0x0, symName: __ZNSt3__118__unwrap_iter_implIPKiLb1EE8__rewrapB7v160006ES2_S2_, symObjAddr: 0x839F4, symBinAddr: 0x100085648, symSize: 0x50 }
  - { offsetInCU: 0x3F16B, offset: 0x3F16B, size: 0x8, addend: 0x0, symName: __ZNSt3__118__unwrap_iter_implIPiLb1EE8__rewrapB7v160006ES1_S1_, symObjAddr: 0x83A44, symBinAddr: 0x100085698, symSize: 0x50 }
  - { offsetInCU: 0x3F19C, offset: 0x3F19C, size: 0x8, addend: 0x0, symName: __ZNSt3__128__exception_guard_exceptionsINS_6vectorIiNS_9allocatorIiEEE16__destroy_vectorEED2B7v160006Ev, symObjAddr: 0x83A94, symBinAddr: 0x1000856E8, symSize: 0xBC }
  - { offsetInCU: 0x3F1C5, offset: 0x3F1C5, size: 0x8, addend: 0x0, symName: __ZNSt3__16vectorINS0_IiNS_9allocatorIiEEEENS1_IS3_EEEC1B7v160006Ev, symObjAddr: 0x83B50, symBinAddr: 0x1000857A4, symSize: 0x2C }
  - { offsetInCU: 0x3F1ED, offset: 0x3F1ED, size: 0x8, addend: 0x0, symName: __ZNKSt3__16vectorIiNS_9allocatorIiEEE5beginB7v160006Ev, symObjAddr: 0x83B7C, symBinAddr: 0x1000857D0, symSize: 0x268 }
  - { offsetInCU: 0x3F215, offset: 0x3F215, size: 0x8, addend: 0x0, symName: __ZNKSt3__111__wrap_iterIPKiEplB7v160006El, symObjAddr: 0x83DE4, symBinAddr: 0x100085A38, symSize: 0x20C }
  - { offsetInCU: 0x3F25C, offset: 0x3F25C, size: 0x8, addend: 0x0, symName: __ZNSt3__16vectorIiNS_9allocatorIiEEEC1INS_11__wrap_iterIPKiEELi0EEET_S9_, symObjAddr: 0x83FF0, symBinAddr: 0x100085C44, symSize: 0x2FC }
  - { offsetInCU: 0x3F2BD, offset: 0x3F2BD, size: 0x8, addend: 0x0, symName: __ZNKSt3__16vectorINS0_IiNS_9allocatorIiEEEENS1_IS3_EEE4sizeB7v160006Ev, symObjAddr: 0x842EC, symBinAddr: 0x100085F40, symSize: 0xB0 }
  - { offsetInCU: 0x3F2E1, offset: 0x3F2E1, size: 0x8, addend: 0x0, symName: __ZNSt3__16vectorINS0_IiNS_9allocatorIiEEEENS1_IS3_EEEixB7v160006Em, symObjAddr: 0x84798, symBinAddr: 0x1000863EC, symSize: 0x74 }
  - { offsetInCU: 0x3F316, offset: 0x3F316, size: 0x8, addend: 0x0, symName: __ZNSt3__16vectorINS0_IiNS_9allocatorIiEEEENS1_IS3_EEE9push_backB7v160006ERKS3_, symObjAddr: 0x8480C, symBinAddr: 0x100086460, symSize: 0xE0 }
  - { offsetInCU: 0x3F34C, offset: 0x3F34C, size: 0x8, addend: 0x0, symName: __ZNSt3__16vectorINS0_IiNS_9allocatorIiEEEENS1_IS3_EEE5clearB7v160006Ev, symObjAddr: 0x848EC, symBinAddr: 0x100086540, symSize: 0x4C }
  - { offsetInCU: 0x3F380, offset: 0x3F380, size: 0x8, addend: 0x0, symName: __ZNSt3__16vectorINS0_IiNS_9allocatorIiEEEENS1_IS3_EEED1B7v160006Ev, symObjAddr: 0x84938, symBinAddr: 0x10008658C, symSize: 0x2C }
  - { offsetInCU: 0x3F3A9, offset: 0x3F3A9, size: 0x8, addend: 0x0, symName: __ZNSt3__16vectorINS0_IiNS_9allocatorIiEEEENS1_IS3_EEEC2B7v160006Ev, symObjAddr: 0x84964, symBinAddr: 0x1000865B8, symSize: 0x2F4 }
  - { offsetInCU: 0x3F3D3, offset: 0x3F3D3, size: 0x8, addend: 0x0, symName: __ZNSt3__117__compressed_pairIPNS_6vectorIiNS_9allocatorIiEEEENS2_IS4_EEEC1B7v160006IDnNS_18__default_init_tagEEEOT_OT0_, symObjAddr: 0x84C58, symBinAddr: 0x1000868AC, symSize: 0x3C }
  - { offsetInCU: 0x3F42A, offset: 0x3F42A, size: 0x8, addend: 0x0, symName: __ZNSt3__117__compressed_pairIPNS_6vectorIiNS_9allocatorIiEEEENS2_IS4_EEEC2B7v160006IDnNS_18__default_init_tagEEEOT_OT0_, symObjAddr: 0x84CA4, symBinAddr: 0x1000868F8, symSize: 0x40 }
  - { offsetInCU: 0x3F481, offset: 0x3F481, size: 0x8, addend: 0x0, symName: __ZNSt3__122__compressed_pair_elemIPNS_6vectorIiNS_9allocatorIiEEEELi0ELb0EEC2B7v160006IDnvEEOT_, symObjAddr: 0x84CE4, symBinAddr: 0x100086938, symSize: 0x64 }
  - { offsetInCU: 0x3F4C2, offset: 0x3F4C2, size: 0x8, addend: 0x0, symName: __ZNSt3__122__compressed_pair_elemINS_9allocatorINS_6vectorIiNS1_IiEEEEEELi1ELb1EEC2B7v160006ENS_18__default_init_tagE, symObjAddr: 0x84D48, symBinAddr: 0x10008699C, symSize: 0x2C }
  - { offsetInCU: 0x3F4F5, offset: 0x3F4F5, size: 0x8, addend: 0x0, symName: __ZNSt3__19allocatorINS_6vectorIiNS0_IiEEEEEC2B7v160006Ev, symObjAddr: 0x84D74, symBinAddr: 0x1000869C8, symSize: 0x2C }
  - { offsetInCU: 0x3F51E, offset: 0x3F51E, size: 0x8, addend: 0x0, symName: __ZNSt3__116__non_trivial_ifILb1ENS_9allocatorINS_6vectorIiNS1_IiEEEEEEEC2B7v160006Ev, symObjAddr: 0x84DA0, symBinAddr: 0x1000869F4, symSize: 0x14 }
  - { offsetInCU: 0x3F547, offset: 0x3F547, size: 0x8, addend: 0x0, symName: __ZNKSt3__16vectorIiNS_9allocatorIiEEE11__make_iterB7v160006EPKi, symObjAddr: 0x84DB4, symBinAddr: 0x100086A08, symSize: 0x200 }
  - { offsetInCU: 0x3F57D, offset: 0x3F57D, size: 0x8, addend: 0x0, symName: __ZNSt3__111__wrap_iterIPKiEC1B7v160006EPKvS2_, symObjAddr: 0x84FB4, symBinAddr: 0x100086C08, symSize: 0x3C }
  - { offsetInCU: 0x3F5C2, offset: 0x3F5C2, size: 0x8, addend: 0x0, symName: __ZNSt3__111__wrap_iterIPKiEC2B7v160006EPKvS2_, symObjAddr: 0x84FF0, symBinAddr: 0x100086C44, symSize: 0x74 }
  - { offsetInCU: 0x3F607, offset: 0x3F607, size: 0x8, addend: 0x0, symName: __ZNSt3__111__wrap_iterIPKiEpLB7v160006El, symObjAddr: 0x85064, symBinAddr: 0x100086CB8, symSize: 0x78 }
  - { offsetInCU: 0x3F63A, offset: 0x3F63A, size: 0x8, addend: 0x0, symName: __ZNSt3__16vectorIiNS_9allocatorIiEEEC2INS_11__wrap_iterIPKiEELi0EEET_S9_, symObjAddr: 0x850DC, symBinAddr: 0x100086D30, symSize: 0x6EC }
  - { offsetInCU: 0x3F6C4, offset: 0x3F6C4, size: 0x8, addend: 0x0, symName: __ZNSt3__16vectorIiNS_9allocatorIiEEE18__construct_at_endINS_11__wrap_iterIPKiEELi0EEEvT_S9_m, symObjAddr: 0x85B18, symBinAddr: 0x10008776C, symSize: 0x548 }
  - { offsetInCU: 0x3F744, offset: 0x3F744, size: 0x8, addend: 0x0, symName: __ZNKSt3__111__wrap_iterIPKiE4baseB7v160006Ev, symObjAddr: 0x8631C, symBinAddr: 0x100087F70, symSize: 0x60 }
  - { offsetInCU: 0x3F769, offset: 0x3F769, size: 0x8, addend: 0x0, symName: __ZNSt3__129_AllocatorDestroyRangeReverseINS_9allocatorIiEEPiEC1B7v160006ERS2_RS3_S6_, symObjAddr: 0x86B30, symBinAddr: 0x100088784, symSize: 0x44 }
  - { offsetInCU: 0x3F7BF, offset: 0x3F7BF, size: 0x8, addend: 0x0, symName: __ZNSt3__116allocator_traitsINS_9allocatorIiEEE9constructB7v160006IiJRKiEvvEEvRS2_PT_DpOT0_, symObjAddr: 0x86BA8, symBinAddr: 0x1000887FC, symSize: 0x30 }
  - { offsetInCU: 0x3F813, offset: 0x3F813, size: 0x8, addend: 0x0, symName: __ZNKSt3__111__wrap_iterIPKiEdeB7v160006Ev, symObjAddr: 0x86BD8, symBinAddr: 0x10008882C, symSize: 0x60 }
  - { offsetInCU: 0x3F838, offset: 0x3F838, size: 0x8, addend: 0x0, symName: __ZNSt3__111__wrap_iterIPKiEppB7v160006Ev, symObjAddr: 0x86C38, symBinAddr: 0x10008888C, symSize: 0x68 }
  - { offsetInCU: 0x3F85D, offset: 0x3F85D, size: 0x8, addend: 0x0, symName: __ZNSt3__128__exception_guard_exceptionsINS_29_AllocatorDestroyRangeReverseINS_9allocatorIiEEPiEEE10__completeB7v160006Ev, symObjAddr: 0x86CA0, symBinAddr: 0x1000888F4, symSize: 0x8C }
  - { offsetInCU: 0x3F882, offset: 0x3F882, size: 0x8, addend: 0x0, symName: __ZNSt3__128__exception_guard_exceptionsINS_29_AllocatorDestroyRangeReverseINS_9allocatorIiEEPiEEED1B7v160006Ev, symObjAddr: 0x86D2C, symBinAddr: 0x100088980, symSize: 0x2C }
  - { offsetInCU: 0x3F8AB, offset: 0x3F8AB, size: 0x8, addend: 0x0, symName: __ZNSt3__128__exception_guard_exceptionsINS_29_AllocatorDestroyRangeReverseINS_9allocatorIiEEPiEEEC1B7v160006ES5_, symObjAddr: 0x86D58, symBinAddr: 0x1000889AC, symSize: 0x34 }
  - { offsetInCU: 0x3F8E3, offset: 0x3F8E3, size: 0x8, addend: 0x0, symName: __ZNSt3__128__exception_guard_exceptionsINS_29_AllocatorDestroyRangeReverseINS_9allocatorIiEEPiEEEC2B7v160006ES5_, symObjAddr: 0x86D8C, symBinAddr: 0x1000889E0, symSize: 0xA4 }
  - { offsetInCU: 0x3F91B, offset: 0x3F91B, size: 0x8, addend: 0x0, symName: __ZNSt3__129_AllocatorDestroyRangeReverseINS_9allocatorIiEEPiEC2B7v160006ERS2_RS3_S6_, symObjAddr: 0x86E30, symBinAddr: 0x100088A84, symSize: 0x104 }
  - { offsetInCU: 0x3F971, offset: 0x3F971, size: 0x8, addend: 0x0, symName: __ZNSt3__128__exception_guard_exceptionsINS_29_AllocatorDestroyRangeReverseINS_9allocatorIiEEPiEEED2B7v160006Ev, symObjAddr: 0x87084, symBinAddr: 0x100088CD8, symSize: 0xBC }
  - { offsetInCU: 0x3F99A, offset: 0x3F99A, size: 0x8, addend: 0x0, symName: __ZNKSt3__129_AllocatorDestroyRangeReverseINS_9allocatorIiEEPiEclB7v160006Ev, symObjAddr: 0x87140, symBinAddr: 0x100088D94, symSize: 0x39C }
  - { offsetInCU: 0x3F9C5, offset: 0x3F9C5, size: 0x8, addend: 0x0, symName: __ZNSt3__119__to_address_helperINS_16reverse_iteratorIPiEEvE6__callB7v160006ERKS3_, symObjAddr: 0x877B8, symBinAddr: 0x10008940C, symSize: 0x44 }
  - { offsetInCU: 0x3F9E8, offset: 0x3F9E8, size: 0x8, addend: 0x0, symName: __ZNKSt3__116reverse_iteratorIPiEptB7v160006Ev, symObjAddr: 0x877FC, symBinAddr: 0x100089450, symSize: 0x6C }
  - { offsetInCU: 0x3FA0C, offset: 0x3FA0C, size: 0x8, addend: 0x0, symName: __ZNKSt3__16vectorIiNS_9allocatorIiEEE3endB7v160006Ev, symObjAddr: 0x87F98, symBinAddr: 0x100089BEC, symSize: 0x26C }
  - { offsetInCU: 0x3FA34, offset: 0x3FA34, size: 0x8, addend: 0x0, symName: __ZNKSt3__110__equal_toclB7v160006IiiEEbRKT_RKT0_, symObjAddr: 0x88584, symBinAddr: 0x10008A1D8, symSize: 0x10C }
  - { offsetInCU: 0x3FA87, offset: 0x3FA87, size: 0x8, addend: 0x0, symName: __ZNSt3__16vectorINS0_IiNS_9allocatorIiEEEENS1_IS3_EEE9__end_capB7v160006Ev, symObjAddr: 0x88690, symBinAddr: 0x10008A2E4, symSize: 0x28 }
  - { offsetInCU: 0x3FAAC, offset: 0x3FAAC, size: 0x8, addend: 0x0, symName: __ZNSt3__16vectorINS0_IiNS_9allocatorIiEEEENS1_IS3_EEE22__construct_one_at_endB7v160006IJRKS3_EEEvDpOT_, symObjAddr: 0x886B8, symBinAddr: 0x10008A30C, symSize: 0x36C }
  - { offsetInCU: 0x3FAFF, offset: 0x3FAFF, size: 0x8, addend: 0x0, symName: __ZNSt3__16vectorINS0_IiNS_9allocatorIiEEEENS1_IS3_EEE21__push_back_slow_pathIRKS3_EEvOT_, symObjAddr: 0x88A24, symBinAddr: 0x10008A678, symSize: 0x3C0 }
  - { offsetInCU: 0x3FB63, offset: 0x3FB63, size: 0x8, addend: 0x0, symName: __ZNSt3__117__compressed_pairIPNS_6vectorIiNS_9allocatorIiEEEENS2_IS4_EEE5firstB7v160006Ev, symObjAddr: 0x88DE4, symBinAddr: 0x10008AA38, symSize: 0x24 }
  - { offsetInCU: 0x3FB88, offset: 0x3FB88, size: 0x8, addend: 0x0, symName: __ZNSt3__122__compressed_pair_elemIPNS_6vectorIiNS_9allocatorIiEEEELi0ELb0EE5__getB7v160006Ev, symObjAddr: 0x88E08, symBinAddr: 0x10008AA5C, symSize: 0x14 }
  - { offsetInCU: 0x3FBC6, offset: 0x3FBC6, size: 0x8, addend: 0x0, symName: __ZNSt3__16vectorINS0_IiNS_9allocatorIiEEEENS1_IS3_EEE21_ConstructTransactionC1B7v160006ERS5_m, symObjAddr: 0x88E1C, symBinAddr: 0x10008AA70, symSize: 0x3C }
  - { offsetInCU: 0x3FC0D, offset: 0x3FC0D, size: 0x8, addend: 0x0, symName: __ZNSt3__116allocator_traitsINS_9allocatorINS_6vectorIiNS1_IiEEEEEEE9constructB7v160006IS4_JRKS4_EvvEEvRS5_PT_DpOT0_, symObjAddr: 0x88E58, symBinAddr: 0x10008AAAC, symSize: 0x30 }
  - { offsetInCU: 0x3FC61, offset: 0x3FC61, size: 0x8, addend: 0x0, symName: __ZNSt3__16vectorINS0_IiNS_9allocatorIiEEEENS1_IS3_EEE7__allocB7v160006Ev, symObjAddr: 0x88E88, symBinAddr: 0x10008AADC, symSize: 0x28 }
  - { offsetInCU: 0x3FC86, offset: 0x3FC86, size: 0x8, addend: 0x0, symName: __ZNSt3__16vectorINS0_IiNS_9allocatorIiEEEENS1_IS3_EEE21_ConstructTransactionD1B7v160006Ev, symObjAddr: 0x88EC4, symBinAddr: 0x10008AB18, symSize: 0x2C }
  - { offsetInCU: 0x3FCAF, offset: 0x3FCAF, size: 0x8, addend: 0x0, symName: __ZNSt3__16vectorINS0_IiNS_9allocatorIiEEEENS1_IS3_EEE21_ConstructTransactionC2B7v160006ERS5_m, symObjAddr: 0x88EF0, symBinAddr: 0x10008AB44, symSize: 0x1D8 }
  - { offsetInCU: 0x3FCF6, offset: 0x3FCF6, size: 0x8, addend: 0x0, symName: __ZNKSt3__16vectorINS0_IiNS_9allocatorIiEEEENS1_IS3_EEE19__annotate_increaseB7v160006Em, symObjAddr: 0x890C8, symBinAddr: 0x10008AD1C, symSize: 0xF8 }
  - { offsetInCU: 0x3FD2A, offset: 0x3FD2A, size: 0x8, addend: 0x0, symName: __ZNKSt3__16vectorINS0_IiNS_9allocatorIiEEEENS1_IS3_EEE31__annotate_contiguous_containerEPKvS7_S7_S7_, symObjAddr: 0x891C0, symBinAddr: 0x10008AE14, symSize: 0x58 }
  - { offsetInCU: 0x3FD8B, offset: 0x3FD8B, size: 0x8, addend: 0x0, symName: __ZNKSt3__16vectorINS0_IiNS_9allocatorIiEEEENS1_IS3_EEE4dataB7v160006Ev, symObjAddr: 0x89218, symBinAddr: 0x10008AE6C, symSize: 0x64 }
  - { offsetInCU: 0x3FDB0, offset: 0x3FDB0, size: 0x8, addend: 0x0, symName: __ZNKSt3__16vectorINS0_IiNS_9allocatorIiEEEENS1_IS3_EEE8capacityB7v160006Ev, symObjAddr: 0x8927C, symBinAddr: 0x10008AED0, symSize: 0xBC }
  - { offsetInCU: 0x3FDD5, offset: 0x3FDD5, size: 0x8, addend: 0x0, symName: __ZNKSt3__16vectorINS0_IiNS_9allocatorIiEEEENS1_IS3_EEE9__end_capB7v160006Ev, symObjAddr: 0x89338, symBinAddr: 0x10008AF8C, symSize: 0x28 }
  - { offsetInCU: 0x3FDFA, offset: 0x3FDFA, size: 0x8, addend: 0x0, symName: __ZNKSt3__117__compressed_pairIPNS_6vectorIiNS_9allocatorIiEEEENS2_IS4_EEE5firstB7v160006Ev, symObjAddr: 0x89360, symBinAddr: 0x10008AFB4, symSize: 0x24 }
  - { offsetInCU: 0x3FE1F, offset: 0x3FE1F, size: 0x8, addend: 0x0, symName: __ZNKSt3__122__compressed_pair_elemIPNS_6vectorIiNS_9allocatorIiEEEELi0ELb0EE5__getB7v160006Ev, symObjAddr: 0x89384, symBinAddr: 0x10008AFD8, symSize: 0x14 }
  - { offsetInCU: 0x3FE44, offset: 0x3FE44, size: 0x8, addend: 0x0, symName: __ZNSt3__16vectorIiNS_9allocatorIiEEEC1ERKS3_, symObjAddr: 0x893D4, symBinAddr: 0x10008B028, symSize: 0x34 }
  - { offsetInCU: 0x3FE7E, offset: 0x3FE7E, size: 0x8, addend: 0x0, symName: __ZNSt3__16vectorIiNS_9allocatorIiEEEC2ERKS3_, symObjAddr: 0x89408, symBinAddr: 0x10008B05C, symSize: 0x538 }
  - { offsetInCU: 0x3FEE3, offset: 0x3FEE3, size: 0x8, addend: 0x0, symName: __ZNSt3__116allocator_traitsINS_9allocatorIiEEE37select_on_container_copy_constructionB7v160006IS2_vvEES2_RKS2_, symObjAddr: 0x89940, symBinAddr: 0x10008B594, symSize: 0x10 }
  - { offsetInCU: 0x3FF17, offset: 0x3FF17, size: 0x8, addend: 0x0, symName: __ZNSt3__117__compressed_pairIPiNS_9allocatorIiEEEC1B7v160006IDnS3_EEOT_OT0_, symObjAddr: 0x89950, symBinAddr: 0x10008B5A4, symSize: 0x3C }
  - { offsetInCU: 0x3FF6D, offset: 0x3FF6D, size: 0x8, addend: 0x0, symName: __ZNSt3__16vectorIiNS_9allocatorIiEEE18__construct_at_endIPiLi0EEEvT_S6_m, symObjAddr: 0x8998C, symBinAddr: 0x10008B5E0, symSize: 0x380 }
  - { offsetInCU: 0x3FFE7, offset: 0x3FFE7, size: 0x8, addend: 0x0, symName: __ZNSt3__117__compressed_pairIPiNS_9allocatorIiEEEC2B7v160006IDnS3_EEOT_OT0_, symObjAddr: 0x89D0C, symBinAddr: 0x10008B960, symSize: 0x44 }
  - { offsetInCU: 0x4003E, offset: 0x4003E, size: 0x8, addend: 0x0, symName: __ZNSt3__122__compressed_pair_elemINS_9allocatorIiEELi1ELb1EEC2B7v160006IS2_vEEOT_, symObjAddr: 0x89D50, symBinAddr: 0x10008B9A4, symSize: 0x18 }
  - { offsetInCU: 0x4007F, offset: 0x4007F, size: 0x8, addend: 0x0, symName: __ZNSt3__116allocator_traitsINS_9allocatorIiEEE9constructB7v160006IiJRiEvvEEvRS2_PT_DpOT0_, symObjAddr: 0x8A288, symBinAddr: 0x10008BEDC, symSize: 0x30 }
  - { offsetInCU: 0x400D3, offset: 0x400D3, size: 0x8, addend: 0x0, symName: __ZNSt3__117__compressed_pairIPNS_6vectorIiNS_9allocatorIiEEEENS2_IS4_EEE6secondB7v160006Ev, symObjAddr: 0x8A3C0, symBinAddr: 0x10008C014, symSize: 0x24 }
  - { offsetInCU: 0x400F8, offset: 0x400F8, size: 0x8, addend: 0x0, symName: __ZNSt3__122__compressed_pair_elemINS_9allocatorINS_6vectorIiNS1_IiEEEEEELi1ELb1EE5__getB7v160006Ev, symObjAddr: 0x8A3E4, symBinAddr: 0x10008C038, symSize: 0x14 }
  - { offsetInCU: 0x4011D, offset: 0x4011D, size: 0x8, addend: 0x0, symName: __ZNSt3__16vectorINS0_IiNS_9allocatorIiEEEENS1_IS3_EEE21_ConstructTransactionD2B7v160006Ev, symObjAddr: 0x8A3F8, symBinAddr: 0x10008C04C, symSize: 0x278 }
  - { offsetInCU: 0x40146, offset: 0x40146, size: 0x8, addend: 0x0, symName: __ZNKSt3__16vectorINS0_IiNS_9allocatorIiEEEENS1_IS3_EEE17__annotate_shrinkB7v160006Em, symObjAddr: 0x8A670, symBinAddr: 0x10008C2C4, symSize: 0xE4 }
  - { offsetInCU: 0x40179, offset: 0x40179, size: 0x8, addend: 0x0, symName: __ZNKSt3__16vectorINS0_IiNS_9allocatorIiEEEENS1_IS3_EEE11__recommendB7v160006Em, symObjAddr: 0x8A754, symBinAddr: 0x10008C3A8, symSize: 0x384 }
  - { offsetInCU: 0x401D4, offset: 0x401D4, size: 0x8, addend: 0x0, symName: __ZNSt3__114__split_bufferINS_6vectorIiNS_9allocatorIiEEEERNS2_IS4_EEEC1EmmS6_, symObjAddr: 0x8AAD8, symBinAddr: 0x10008C72C, symSize: 0x44 }
  - { offsetInCU: 0x40229, offset: 0x40229, size: 0x8, addend: 0x0, symName: __ZNSt3__114__split_bufferINS_6vectorIiNS_9allocatorIiEEEERNS2_IS4_EEED1Ev, symObjAddr: 0x8B090, symBinAddr: 0x10008CCE4, symSize: 0x2C }
  - { offsetInCU: 0x40253, offset: 0x40253, size: 0x8, addend: 0x0, symName: __ZNKSt3__16vectorINS0_IiNS_9allocatorIiEEEENS1_IS3_EEE8max_sizeEv, symObjAddr: 0x8B0BC, symBinAddr: 0x10008CD10, symSize: 0x2FC }
  - { offsetInCU: 0x4027B, offset: 0x4027B, size: 0x8, addend: 0x0, symName: __ZNKSt3__16vectorINS0_IiNS_9allocatorIiEEEENS1_IS3_EEE20__throw_length_errorB7v160006Ev, symObjAddr: 0x8B3B8, symBinAddr: 0x10008D00C, symSize: 0x20 }
  - { offsetInCU: 0x402AA, offset: 0x402AA, size: 0x8, addend: 0x0, symName: __ZNSt3__116allocator_traitsINS_9allocatorINS_6vectorIiNS1_IiEEEEEEE8max_sizeB7v160006IS5_vvEEmRKS5_, symObjAddr: 0x8B3D8, symBinAddr: 0x10008D02C, symSize: 0x28 }
  - { offsetInCU: 0x402D5, offset: 0x402D5, size: 0x8, addend: 0x0, symName: __ZNKSt3__16vectorINS0_IiNS_9allocatorIiEEEENS1_IS3_EEE7__allocB7v160006Ev, symObjAddr: 0x8B400, symBinAddr: 0x10008D054, symSize: 0x28 }
  - { offsetInCU: 0x402FA, offset: 0x402FA, size: 0x8, addend: 0x0, symName: __ZNKSt3__117__compressed_pairIPNS_6vectorIiNS_9allocatorIiEEEENS2_IS4_EEE6secondB7v160006Ev, symObjAddr: 0x8B428, symBinAddr: 0x10008D07C, symSize: 0x24 }
  - { offsetInCU: 0x4031F, offset: 0x4031F, size: 0x8, addend: 0x0, symName: __ZNKSt3__122__compressed_pair_elemINS_9allocatorINS_6vectorIiNS1_IiEEEEEELi1ELb1EE5__getB7v160006Ev, symObjAddr: 0x8B44C, symBinAddr: 0x10008D0A0, symSize: 0x14 }
  - { offsetInCU: 0x40344, offset: 0x40344, size: 0x8, addend: 0x0, symName: __ZNSt3__114__split_bufferINS_6vectorIiNS_9allocatorIiEEEERNS2_IS4_EEEC2EmmS6_, symObjAddr: 0x8B460, symBinAddr: 0x10008D0B4, symSize: 0x530 }
  - { offsetInCU: 0x403BE, offset: 0x403BE, size: 0x8, addend: 0x0, symName: __ZNSt3__117__compressed_pairIPNS_6vectorIiNS_9allocatorIiEEEERNS2_IS4_EEEC1B7v160006IDnS7_EEOT_OT0_, symObjAddr: 0x8B990, symBinAddr: 0x10008D5E4, symSize: 0x3C }
  - { offsetInCU: 0x40415, offset: 0x40415, size: 0x8, addend: 0x0, symName: __ZNSt3__114__split_bufferINS_6vectorIiNS_9allocatorIiEEEERNS2_IS4_EEE7__allocB7v160006Ev, symObjAddr: 0x8BC58, symBinAddr: 0x10008D8AC, symSize: 0x28 }
  - { offsetInCU: 0x4043A, offset: 0x4043A, size: 0x8, addend: 0x0, symName: __ZNSt3__114__split_bufferINS_6vectorIiNS_9allocatorIiEEEERNS2_IS4_EEE9__end_capB7v160006Ev, symObjAddr: 0x8BC80, symBinAddr: 0x10008D8D4, symSize: 0x28 }
  - { offsetInCU: 0x4045F, offset: 0x4045F, size: 0x8, addend: 0x0, symName: __ZNSt3__117__compressed_pairIPNS_6vectorIiNS_9allocatorIiEEEERNS2_IS4_EEEC2B7v160006IDnS7_EEOT_OT0_, symObjAddr: 0x8BCA8, symBinAddr: 0x10008D8FC, symSize: 0x48 }
  - { offsetInCU: 0x404B6, offset: 0x404B6, size: 0x8, addend: 0x0, symName: __ZNSt3__122__compressed_pair_elemIRNS_9allocatorINS_6vectorIiNS1_IiEEEEEELi1ELb0EEC2B7v160006IS6_vEEOT_, symObjAddr: 0x8BCF0, symBinAddr: 0x10008D944, symSize: 0x70 }
  - { offsetInCU: 0x404F7, offset: 0x404F7, size: 0x8, addend: 0x0, symName: __ZNSt3__19allocatorINS_6vectorIiNS0_IiEEEEE8allocateB7v160006Em, symObjAddr: 0x8BD60, symBinAddr: 0x10008D9B4, symSize: 0x60 }
  - { offsetInCU: 0x4052A, offset: 0x4052A, size: 0x8, addend: 0x0, symName: __ZNSt3__117__compressed_pairIPNS_6vectorIiNS_9allocatorIiEEEERNS2_IS4_EEE6secondB7v160006Ev, symObjAddr: 0x8BDC0, symBinAddr: 0x10008DA14, symSize: 0x28 }
  - { offsetInCU: 0x4054F, offset: 0x4054F, size: 0x8, addend: 0x0, symName: __ZNSt3__122__compressed_pair_elemIRNS_9allocatorINS_6vectorIiNS1_IiEEEEEELi1ELb0EE5__getB7v160006Ev, symObjAddr: 0x8BDE8, symBinAddr: 0x10008DA3C, symSize: 0x60 }
  - { offsetInCU: 0x40574, offset: 0x40574, size: 0x8, addend: 0x0, symName: __ZNSt3__117__compressed_pairIPNS_6vectorIiNS_9allocatorIiEEEERNS2_IS4_EEE5firstB7v160006Ev, symObjAddr: 0x8BE48, symBinAddr: 0x10008DA9C, symSize: 0x24 }
  - { offsetInCU: 0x40599, offset: 0x40599, size: 0x8, addend: 0x0, symName: __ZNKSt3__16vectorINS0_IiNS_9allocatorIiEEEENS1_IS3_EEE17__annotate_deleteB7v160006Ev, symObjAddr: 0x8BE6C, symBinAddr: 0x10008DAC0, symSize: 0xE8 }
  - { offsetInCU: 0x405BE, offset: 0x405BE, size: 0x8, addend: 0x0, symName: __ZNSt3__116reverse_iteratorIPNS_6vectorIiNS_9allocatorIiEEEEEC1B7v160006ES5_, symObjAddr: 0x8C498, symBinAddr: 0x10008E0EC, symSize: 0x34 }
  - { offsetInCU: 0x405F5, offset: 0x405F5, size: 0x8, addend: 0x0, symName: __ZNKSt3__116reverse_iteratorIPNS_6vectorIiNS_9allocatorIiEEEEE4baseB7v160006Ev, symObjAddr: 0x8C4CC, symBinAddr: 0x10008E120, symSize: 0x64 }
  - { offsetInCU: 0x4061A, offset: 0x4061A, size: 0x8, addend: 0x0, symName: __ZNKSt3__16vectorINS0_IiNS_9allocatorIiEEEENS1_IS3_EEE14__annotate_newB7v160006Em, symObjAddr: 0x8C664, symBinAddr: 0x10008E2B8, symSize: 0xDC }
  - { offsetInCU: 0x4064E, offset: 0x4064E, size: 0x8, addend: 0x0, symName: __ZNSt3__129_AllocatorDestroyRangeReverseINS_9allocatorINS_6vectorIiNS1_IiEEEEEENS_16reverse_iteratorIPS4_EEEC1B7v160006ERS5_RS8_SB_, symObjAddr: 0x8C948, symBinAddr: 0x10008E59C, symSize: 0x44 }
  - { offsetInCU: 0x406A4, offset: 0x406A4, size: 0x8, addend: 0x0, symName: __ZNSt3__116allocator_traitsINS_9allocatorINS_6vectorIiNS1_IiEEEEEEE9constructB7v160006IS4_JS4_EvvEEvRS5_PT_DpOT0_, symObjAddr: 0x8C9D4, symBinAddr: 0x10008E628, symSize: 0x30 }
  - { offsetInCU: 0x406F8, offset: 0x406F8, size: 0x8, addend: 0x0, symName: __ZNKSt3__116reverse_iteratorIPNS_6vectorIiNS_9allocatorIiEEEEEdeB7v160006Ev, symObjAddr: 0x8CA28, symBinAddr: 0x10008E67C, symSize: 0x74 }
  - { offsetInCU: 0x4072B, offset: 0x4072B, size: 0x8, addend: 0x0, symName: __ZNSt3__116reverse_iteratorIPNS_6vectorIiNS_9allocatorIiEEEEEppB7v160006Ev, symObjAddr: 0x8CA9C, symBinAddr: 0x10008E6F0, symSize: 0x6C }
  - { offsetInCU: 0x40750, offset: 0x40750, size: 0x8, addend: 0x0, symName: __ZNSt3__128__exception_guard_exceptionsINS_29_AllocatorDestroyRangeReverseINS_9allocatorINS_6vectorIiNS2_IiEEEEEENS_16reverse_iteratorIPS5_EEEEE10__completeB7v160006Ev, symObjAddr: 0x8CB08, symBinAddr: 0x10008E75C, symSize: 0x8C }
  - { offsetInCU: 0x40775, offset: 0x40775, size: 0x8, addend: 0x0, symName: __ZNSt3__128__exception_guard_exceptionsINS_29_AllocatorDestroyRangeReverseINS_9allocatorINS_6vectorIiNS2_IiEEEEEENS_16reverse_iteratorIPS5_EEEEED1B7v160006Ev, symObjAddr: 0x8CB94, symBinAddr: 0x10008E7E8, symSize: 0x2C }
  - { offsetInCU: 0x4079E, offset: 0x4079E, size: 0x8, addend: 0x0, symName: __ZNSt3__128__exception_guard_exceptionsINS_29_AllocatorDestroyRangeReverseINS_9allocatorINS_6vectorIiNS2_IiEEEEEENS_16reverse_iteratorIPS5_EEEEEC1B7v160006ESA_, symObjAddr: 0x8CBC0, symBinAddr: 0x10008E814, symSize: 0x34 }
  - { offsetInCU: 0x407D6, offset: 0x407D6, size: 0x8, addend: 0x0, symName: __ZNSt3__128__exception_guard_exceptionsINS_29_AllocatorDestroyRangeReverseINS_9allocatorINS_6vectorIiNS2_IiEEEEEENS_16reverse_iteratorIPS5_EEEEEC2B7v160006ESA_, symObjAddr: 0x8CBF4, symBinAddr: 0x10008E848, symSize: 0xA4 }
  - { offsetInCU: 0x4080E, offset: 0x4080E, size: 0x8, addend: 0x0, symName: __ZNSt3__129_AllocatorDestroyRangeReverseINS_9allocatorINS_6vectorIiNS1_IiEEEEEENS_16reverse_iteratorIPS4_EEEC2B7v160006ERS5_RS8_SB_, symObjAddr: 0x8CC98, symBinAddr: 0x10008E8EC, symSize: 0x104 }
  - { offsetInCU: 0x40864, offset: 0x40864, size: 0x8, addend: 0x0, symName: __ZNSt3__16vectorIiNS_9allocatorIiEEEC1B7v160006EOS3_, symObjAddr: 0x8CDD8, symBinAddr: 0x10008EA2C, symSize: 0x34 }
  - { offsetInCU: 0x4089E, offset: 0x4089E, size: 0x8, addend: 0x0, symName: __ZNSt3__16vectorIiNS_9allocatorIiEEEC2B7v160006EOS3_, symObjAddr: 0x8CE0C, symBinAddr: 0x10008EA60, symSize: 0x50C }
  - { offsetInCU: 0x408DF, offset: 0x408DF, size: 0x8, addend: 0x0, symName: __ZNSt3__119__to_address_helperINS_16reverse_iteratorIPNS_6vectorIiNS_9allocatorIiEEEEEEvE6__callB7v160006ERKS7_, symObjAddr: 0x8D32C, symBinAddr: 0x10008EF80, symSize: 0x44 }
  - { offsetInCU: 0x40902, offset: 0x40902, size: 0x8, addend: 0x0, symName: __ZNKSt3__116reverse_iteratorIPNS_6vectorIiNS_9allocatorIiEEEEEptB7v160006Ev, symObjAddr: 0x8D370, symBinAddr: 0x10008EFC4, symSize: 0x6C }
  - { offsetInCU: 0x40927, offset: 0x40927, size: 0x8, addend: 0x0, symName: __ZNSt3__128__exception_guard_exceptionsINS_29_AllocatorDestroyRangeReverseINS_9allocatorINS_6vectorIiNS2_IiEEEEEENS_16reverse_iteratorIPS5_EEEEED2B7v160006Ev, symObjAddr: 0x8D708, symBinAddr: 0x10008F35C, symSize: 0xBC }
  - { offsetInCU: 0x40950, offset: 0x40950, size: 0x8, addend: 0x0, symName: __ZNKSt3__129_AllocatorDestroyRangeReverseINS_9allocatorINS_6vectorIiNS1_IiEEEEEENS_16reverse_iteratorIPS4_EEEclB7v160006Ev, symObjAddr: 0x8D7C4, symBinAddr: 0x10008F418, symSize: 0x3A8 }
  - { offsetInCU: 0x40976, offset: 0x40976, size: 0x8, addend: 0x0, symName: __ZNSt3__116reverse_iteratorINS0_IPNS_6vectorIiNS_9allocatorIiEEEEEEEC1B7v160006ES6_, symObjAddr: 0x8DBDC, symBinAddr: 0x10008F830, symSize: 0x248 }
  - { offsetInCU: 0x409B2, offset: 0x409B2, size: 0x8, addend: 0x0, symName: __ZNSt3__116allocator_traitsINS_9allocatorINS_6vectorIiNS1_IiEEEEEEE7destroyB7v160006IS4_vvEEvRS5_PT_, symObjAddr: 0x8E0F0, symBinAddr: 0x10008FD44, symSize: 0x28 }
  - { offsetInCU: 0x409EC, offset: 0x409EC, size: 0x8, addend: 0x0, symName: __ZNSt3__116reverse_iteratorINS0_IPNS_6vectorIiNS_9allocatorIiEEEEEEEppB7v160006Ev, symObjAddr: 0x8E13C, symBinAddr: 0x10008FD90, symSize: 0x30 }
  - { offsetInCU: 0x40A11, offset: 0x40A11, size: 0x8, addend: 0x0, symName: __ZNKSt3__116reverse_iteratorINS0_IPNS_6vectorIiNS_9allocatorIiEEEEEEE4baseB7v160006Ev, symObjAddr: 0x8E16C, symBinAddr: 0x10008FDC0, symSize: 0x20C }
  - { offsetInCU: 0x40A3C, offset: 0x40A3C, size: 0x8, addend: 0x0, symName: __ZNSt3__119__to_address_helperINS_16reverse_iteratorINS1_IPNS_6vectorIiNS_9allocatorIiEEEEEEEEvE6__callB7v160006ERKS8_, symObjAddr: 0x8E3C0, symBinAddr: 0x100090014, symSize: 0x44 }
  - { offsetInCU: 0x40A5F, offset: 0x40A5F, size: 0x8, addend: 0x0, symName: __ZNKSt3__116reverse_iteratorINS0_IPNS_6vectorIiNS_9allocatorIiEEEEEEEptB7v160006Ev, symObjAddr: 0x8E404, symBinAddr: 0x100090058, symSize: 0x2A0 }
  - { offsetInCU: 0x40A85, offset: 0x40A85, size: 0x8, addend: 0x0, symName: __ZNSt3__116reverse_iteratorIPNS_6vectorIiNS_9allocatorIiEEEEEpLB7v160006El, symObjAddr: 0x8E9D0, symBinAddr: 0x100090624, symSize: 0x84 }
  - { offsetInCU: 0x40AB8, offset: 0x40AB8, size: 0x8, addend: 0x0, symName: __ZNSt3__116reverse_iteratorIPNS_6vectorIiNS_9allocatorIiEEEEEmmB7v160006Ev, symObjAddr: 0x8EA54, symBinAddr: 0x1000906A8, symSize: 0x6C }
  - { offsetInCU: 0x40ADD, offset: 0x40ADD, size: 0x8, addend: 0x0, symName: __ZNSt3__116reverse_iteratorINS0_IPNS_6vectorIiNS_9allocatorIiEEEEEEEC2B7v160006ES6_, symObjAddr: 0x8EAC0, symBinAddr: 0x100090714, symSize: 0x22C }
  - { offsetInCU: 0x40B19, offset: 0x40B19, size: 0x8, addend: 0x0, symName: __ZNSt3__116reverse_iteratorIPNS_6vectorIiNS_9allocatorIiEEEEEC2B7v160006ES5_, symObjAddr: 0x8ECEC, symBinAddr: 0x100090940, symSize: 0xB8 }
  - { offsetInCU: 0x40B50, offset: 0x40B50, size: 0x8, addend: 0x0, symName: __ZNSt3__114__split_bufferINS_6vectorIiNS_9allocatorIiEEEERNS2_IS4_EEED2Ev, symObjAddr: 0x8EDA4, symBinAddr: 0x1000909F8, symSize: 0x104 }
  - { offsetInCU: 0x40B7B, offset: 0x40B7B, size: 0x8, addend: 0x0, symName: __ZNSt3__114__split_bufferINS_6vectorIiNS_9allocatorIiEEEERNS2_IS4_EEE5clearB7v160006Ev, symObjAddr: 0x8EEA8, symBinAddr: 0x100090AFC, symSize: 0x68 }
  - { offsetInCU: 0x40BA0, offset: 0x40BA0, size: 0x8, addend: 0x0, symName: __ZNSt3__116allocator_traitsINS_9allocatorINS_6vectorIiNS1_IiEEEEEEE10deallocateB7v160006ERS5_PS4_m, symObjAddr: 0x8EF10, symBinAddr: 0x100090B64, symSize: 0x34 }
  - { offsetInCU: 0x40BE2, offset: 0x40BE2, size: 0x8, addend: 0x0, symName: __ZNKSt3__114__split_bufferINS_6vectorIiNS_9allocatorIiEEEERNS2_IS4_EEE8capacityB7v160006Ev, symObjAddr: 0x8EF44, symBinAddr: 0x100090B98, symSize: 0xBC }
  - { offsetInCU: 0x40C07, offset: 0x40C07, size: 0x8, addend: 0x0, symName: __ZNSt3__114__split_bufferINS_6vectorIiNS_9allocatorIiEEEERNS2_IS4_EEE17__destruct_at_endB7v160006EPS4_, symObjAddr: 0x8F000, symBinAddr: 0x100090C54, symSize: 0x2C }
  - { offsetInCU: 0x40C39, offset: 0x40C39, size: 0x8, addend: 0x0, symName: __ZNSt3__114__split_bufferINS_6vectorIiNS_9allocatorIiEEEERNS2_IS4_EEE17__destruct_at_endB7v160006EPS4_NS_17integral_constantIbLb0EEE, symObjAddr: 0x8F02C, symBinAddr: 0x100090C80, symSize: 0x10C }
  - { offsetInCU: 0x40C78, offset: 0x40C78, size: 0x8, addend: 0x0, symName: __ZNSt3__19allocatorINS_6vectorIiNS0_IiEEEEE10deallocateB7v160006EPS3_m, symObjAddr: 0x8F138, symBinAddr: 0x100090D8C, symSize: 0x50 }
  - { offsetInCU: 0x40CB9, offset: 0x40CB9, size: 0x8, addend: 0x0, symName: __ZNKSt3__114__split_bufferINS_6vectorIiNS_9allocatorIiEEEERNS2_IS4_EEE9__end_capB7v160006Ev, symObjAddr: 0x8F188, symBinAddr: 0x100090DDC, symSize: 0x28 }
  - { offsetInCU: 0x40CDE, offset: 0x40CDE, size: 0x8, addend: 0x0, symName: __ZNKSt3__117__compressed_pairIPNS_6vectorIiNS_9allocatorIiEEEERNS2_IS4_EEE5firstB7v160006Ev, symObjAddr: 0x8F1B0, symBinAddr: 0x100090E04, symSize: 0x24 }
  - { offsetInCU: 0x40D03, offset: 0x40D03, size: 0x8, addend: 0x0, symName: __ZNSt3__16vectorINS0_IiNS_9allocatorIiEEEENS1_IS3_EEE7__clearB7v160006Ev, symObjAddr: 0x8F1D4, symBinAddr: 0x100090E28, symSize: 0x64 }
  - { offsetInCU: 0x40D28, offset: 0x40D28, size: 0x8, addend: 0x0, symName: __ZNSt3__16vectorINS0_IiNS_9allocatorIiEEEENS1_IS3_EEE22__base_destruct_at_endB7v160006EPS3_, symObjAddr: 0x8F238, symBinAddr: 0x100090E8C, symSize: 0x114 }
  - { offsetInCU: 0x40D6B, offset: 0x40D6B, size: 0x8, addend: 0x0, symName: __ZNSt3__16vectorINS0_IiNS_9allocatorIiEEEENS1_IS3_EEED2B7v160006Ev, symObjAddr: 0x8F34C, symBinAddr: 0x100090FA0, symSize: 0x1F8 }
  - { offsetInCU: 0x40D95, offset: 0x40D95, size: 0x8, addend: 0x0, symName: __ZNSt3__16vectorINS0_IiNS_9allocatorIiEEEENS1_IS3_EEE16__destroy_vectorC1ERS5_, symObjAddr: 0x8F544, symBinAddr: 0x100091198, symSize: 0x34 }
  - { offsetInCU: 0x40DCD, offset: 0x40DCD, size: 0x8, addend: 0x0, symName: __ZNSt3__16vectorINS0_IiNS_9allocatorIiEEEENS1_IS3_EEE16__destroy_vectorclB7v160006Ev, symObjAddr: 0x8F578, symBinAddr: 0x1000911CC, symSize: 0x264 }
  - { offsetInCU: 0x40DF2, offset: 0x40DF2, size: 0x8, addend: 0x0, symName: __ZNSt3__16vectorINS0_IiNS_9allocatorIiEEEENS1_IS3_EEE16__destroy_vectorC2ERS5_, symObjAddr: 0x8F7DC, symBinAddr: 0x100091430, symSize: 0x70 }
  - { offsetInCU: 0x40E2A, offset: 0x40E2A, size: 0x8, addend: 0x0, symName: __ZNSt3__16vectorINS_4pairINS0_IiNS_9allocatorIiEEEENS0_ImNS2_ImEEEEEENS2_IS7_EEEC1B7v160006Ev, symObjAddr: 0x8F85C, symBinAddr: 0x1000914B0, symSize: 0x2C }
  - { offsetInCU: 0x40E52, offset: 0x40E52, size: 0x8, addend: 0x0, symName: __ZNSt3__16vectorINS_4pairINS0_IiNS_9allocatorIiEEEENS0_ImNS2_ImEEEEEENS2_IS7_EEE5beginB7v160006Ev, symObjAddr: 0x8F888, symBinAddr: 0x1000914DC, symSize: 0x268 }
  - { offsetInCU: 0x40E79, offset: 0x40E79, size: 0x8, addend: 0x0, symName: __ZNSt3__16vectorINS_4pairINS0_IiNS_9allocatorIiEEEENS0_ImNS2_ImEEEEEENS2_IS7_EEE3endB7v160006Ev, symObjAddr: 0x8FAF0, symBinAddr: 0x100091744, symSize: 0x26C }
  - { offsetInCU: 0x40EA1, offset: 0x40EA1, size: 0x8, addend: 0x0, symName: __ZNKSt3__111__wrap_iterIPNS_4pairINS_6vectorIiNS_9allocatorIiEEEENS2_ImNS3_ImEEEEEEEdeB7v160006Ev, symObjAddr: 0x8FD90, symBinAddr: 0x1000919E4, symSize: 0x60 }
  - { offsetInCU: 0x40EC6, offset: 0x40EC6, size: 0x8, addend: 0x0, symName: __ZNSt3__111__wrap_iterIPNS_4pairINS_6vectorIiNS_9allocatorIiEEEENS2_ImNS3_ImEEEEEEEppB7v160006Ev, symObjAddr: 0x90244, symBinAddr: 0x100091E98, symSize: 0x68 }
  - { offsetInCU: 0x40EEA, offset: 0x40EEA, size: 0x8, addend: 0x0, symName: __ZNSt3__16vectorINS_4pairINS0_IiNS_9allocatorIiEEEENS0_ImNS2_ImEEEEEENS2_IS7_EEE12emplace_backIJRS4_S6_EEERS7_DpOT_, symObjAddr: 0x902AC, symBinAddr: 0x100091F00, symSize: 0xF4 }
  - { offsetInCU: 0x40F3F, offset: 0x40F3F, size: 0x8, addend: 0x0, symName: __ZNK10CSelfMatchIiE7combineILm2EEEvRNSt3__16vectorINS2_5arrayImXT_EEENS2_9allocatorIS5_EEEERKNS3_ImNS6_ImEEEERSB_mmm, symObjAddr: 0x903E8, symBinAddr: 0x10009203C, symSize: 0x39C }
  - { offsetInCU: 0x41006, offset: 0x41006, size: 0x8, addend: 0x0, symName: __ZNSt3__16vectorINS_4pairINS0_IiNS_9allocatorIiEEEENS0_ImNS2_ImEEEEEENS2_IS7_EEED1B7v160006Ev, symObjAddr: 0x90784, symBinAddr: 0x1000923D8, symSize: 0x2C }
  - { offsetInCU: 0x4102F, offset: 0x4102F, size: 0x8, addend: 0x0, symName: __ZNSt3__16vectorINS_4pairINS0_IiNS_9allocatorIiEEEENS0_ImNS2_ImEEEEEENS2_IS7_EEEC2B7v160006Ev, symObjAddr: 0x907B0, symBinAddr: 0x100092404, symSize: 0x2F4 }
  - { offsetInCU: 0x41059, offset: 0x41059, size: 0x8, addend: 0x0, symName: __ZNSt3__117__compressed_pairIPNS_4pairINS_6vectorIiNS_9allocatorIiEEEENS2_ImNS3_ImEEEEEENS3_IS8_EEEC1B7v160006IDnNS_18__default_init_tagEEEOT_OT0_, symObjAddr: 0x90AA4, symBinAddr: 0x1000926F8, symSize: 0x3C }
  - { offsetInCU: 0x410B0, offset: 0x410B0, size: 0x8, addend: 0x0, symName: __ZNSt3__117__compressed_pairIPNS_4pairINS_6vectorIiNS_9allocatorIiEEEENS2_ImNS3_ImEEEEEENS3_IS8_EEEC2B7v160006IDnNS_18__default_init_tagEEEOT_OT0_, symObjAddr: 0x90AF0, symBinAddr: 0x100092744, symSize: 0x40 }
  - { offsetInCU: 0x41107, offset: 0x41107, size: 0x8, addend: 0x0, symName: __ZNSt3__122__compressed_pair_elemIPNS_4pairINS_6vectorIiNS_9allocatorIiEEEENS2_ImNS3_ImEEEEEELi0ELb0EEC2B7v160006IDnvEEOT_, symObjAddr: 0x90B30, symBinAddr: 0x100092784, symSize: 0x64 }
  - { offsetInCU: 0x41148, offset: 0x41148, size: 0x8, addend: 0x0, symName: __ZNSt3__122__compressed_pair_elemINS_9allocatorINS_4pairINS_6vectorIiNS1_IiEEEENS3_ImNS1_ImEEEEEEEELi1ELb1EEC2B7v160006ENS_18__default_init_tagE, symObjAddr: 0x90B94, symBinAddr: 0x1000927E8, symSize: 0x2C }
  - { offsetInCU: 0x4117B, offset: 0x4117B, size: 0x8, addend: 0x0, symName: __ZNSt3__19allocatorINS_4pairINS_6vectorIiNS0_IiEEEENS2_ImNS0_ImEEEEEEEC2B7v160006Ev, symObjAddr: 0x90BC0, symBinAddr: 0x100092814, symSize: 0x2C }
  - { offsetInCU: 0x411A4, offset: 0x411A4, size: 0x8, addend: 0x0, symName: __ZNSt3__116__non_trivial_ifILb1ENS_9allocatorINS_4pairINS_6vectorIiNS1_IiEEEENS3_ImNS1_ImEEEEEEEEEC2B7v160006Ev, symObjAddr: 0x90BEC, symBinAddr: 0x100092840, symSize: 0x14 }
  - { offsetInCU: 0x411CD, offset: 0x411CD, size: 0x8, addend: 0x0, symName: __ZNSt3__16vectorINS_4pairINS0_IiNS_9allocatorIiEEEENS0_ImNS2_ImEEEEEENS2_IS7_EEE11__make_iterB7v160006EPS7_, symObjAddr: 0x90C00, symBinAddr: 0x100092854, symSize: 0x200 }
  - { offsetInCU: 0x41203, offset: 0x41203, size: 0x8, addend: 0x0, symName: __ZNSt3__111__wrap_iterIPNS_4pairINS_6vectorIiNS_9allocatorIiEEEENS2_ImNS3_ImEEEEEEEC1B7v160006EPKvS9_, symObjAddr: 0x90E00, symBinAddr: 0x100092A54, symSize: 0x3C }
  - { offsetInCU: 0x41248, offset: 0x41248, size: 0x8, addend: 0x0, symName: __ZNSt3__111__wrap_iterIPNS_4pairINS_6vectorIiNS_9allocatorIiEEEENS2_ImNS3_ImEEEEEEEC2B7v160006EPKvS9_, symObjAddr: 0x90E3C, symBinAddr: 0x100092A90, symSize: 0x74 }
  - { offsetInCU: 0x4128D, offset: 0x4128D, size: 0x8, addend: 0x0, symName: __ZNKSt3__111__wrap_iterIPNS_4pairINS_6vectorIiNS_9allocatorIiEEEENS2_ImNS3_ImEEEEEEE4baseB7v160006Ev, symObjAddr: 0x90EF8, symBinAddr: 0x100092B4C, symSize: 0x60 }
  - { offsetInCU: 0x412B2, offset: 0x412B2, size: 0x8, addend: 0x0, symName: __ZNSt3__110__get_pairILm0EE3getB7v160006INS_6vectorIiNS_9allocatorIiEEEENS3_ImNS4_ImEEEEEERT_RNS_4pairIS9_T0_EE, symObjAddr: 0x90F58, symBinAddr: 0x100092BAC, symSize: 0x14 }
  - { offsetInCU: 0x412E8, offset: 0x412E8, size: 0x8, addend: 0x0, symName: __ZNSt3__110__get_pairILm1EE3getB7v160006INS_6vectorIiNS_9allocatorIiEEEENS3_ImNS4_ImEEEEEERT0_RNS_4pairIT_S9_EE, symObjAddr: 0x90F6C, symBinAddr: 0x100092BC0, symSize: 0x18 }
  - { offsetInCU: 0x4131E, offset: 0x4131E, size: 0x8, addend: 0x0, symName: __ZNSt3__16vectorINS_4pairINS0_IiNS_9allocatorIiEEEENS0_ImNS2_ImEEEEEENS2_IS7_EEE9__end_capB7v160006Ev, symObjAddr: 0x91304, symBinAddr: 0x100092F58, symSize: 0x28 }
  - { offsetInCU: 0x41343, offset: 0x41343, size: 0x8, addend: 0x0, symName: __ZNSt3__16vectorINS_4pairINS0_IiNS_9allocatorIiEEEENS0_ImNS2_ImEEEEEENS2_IS7_EEE22__construct_one_at_endB7v160006IJRS4_S6_EEEvDpOT_, symObjAddr: 0x9132C, symBinAddr: 0x100092F80, symSize: 0x374 }
  - { offsetInCU: 0x413AB, offset: 0x413AB, size: 0x8, addend: 0x0, symName: __ZNSt3__16vectorINS_4pairINS0_IiNS_9allocatorIiEEEENS0_ImNS2_ImEEEEEENS2_IS7_EEE24__emplace_back_slow_pathIJRS4_S6_EEEvDpOT_, symObjAddr: 0x916A0, symBinAddr: 0x1000932F4, symSize: 0x3C8 }
  - { offsetInCU: 0x41426, offset: 0x41426, size: 0x8, addend: 0x0, symName: __ZNSt3__16vectorINS_4pairINS0_IiNS_9allocatorIiEEEENS0_ImNS2_ImEEEEEENS2_IS7_EEE4backB7v160006Ev, symObjAddr: 0x91A68, symBinAddr: 0x1000936BC, symSize: 0x68 }
  - { offsetInCU: 0x4144B, offset: 0x4144B, size: 0x8, addend: 0x0, symName: __ZNSt3__117__compressed_pairIPNS_4pairINS_6vectorIiNS_9allocatorIiEEEENS2_ImNS3_ImEEEEEENS3_IS8_EEE5firstB7v160006Ev, symObjAddr: 0x91AD0, symBinAddr: 0x100093724, symSize: 0x24 }
  - { offsetInCU: 0x41470, offset: 0x41470, size: 0x8, addend: 0x0, symName: __ZNSt3__122__compressed_pair_elemIPNS_4pairINS_6vectorIiNS_9allocatorIiEEEENS2_ImNS3_ImEEEEEELi0ELb0EE5__getB7v160006Ev, symObjAddr: 0x91AF4, symBinAddr: 0x100093748, symSize: 0x14 }
  - { offsetInCU: 0x414AE, offset: 0x414AE, size: 0x8, addend: 0x0, symName: __ZNSt3__16vectorINS_4pairINS0_IiNS_9allocatorIiEEEENS0_ImNS2_ImEEEEEENS2_IS7_EEE21_ConstructTransactionC1B7v160006ERS9_m, symObjAddr: 0x91B08, symBinAddr: 0x10009375C, symSize: 0x3C }
  - { offsetInCU: 0x414F5, offset: 0x414F5, size: 0x8, addend: 0x0, symName: __ZNSt3__116allocator_traitsINS_9allocatorINS_4pairINS_6vectorIiNS1_IiEEEENS3_ImNS1_ImEEEEEEEEE9constructB7v160006IS8_JRS5_S7_EvvEEvRS9_PT_DpOT0_, symObjAddr: 0x91B44, symBinAddr: 0x100093798, symSize: 0x38 }
  - { offsetInCU: 0x4155D, offset: 0x4155D, size: 0x8, addend: 0x0, symName: __ZNSt3__16vectorINS_4pairINS0_IiNS_9allocatorIiEEEENS0_ImNS2_ImEEEEEENS2_IS7_EEE7__allocB7v160006Ev, symObjAddr: 0x91B7C, symBinAddr: 0x1000937D0, symSize: 0x28 }
  - { offsetInCU: 0x41582, offset: 0x41582, size: 0x8, addend: 0x0, symName: __ZNSt3__16vectorINS_4pairINS0_IiNS_9allocatorIiEEEENS0_ImNS2_ImEEEEEENS2_IS7_EEE21_ConstructTransactionD1B7v160006Ev, symObjAddr: 0x91BB8, symBinAddr: 0x10009380C, symSize: 0x2C }
  - { offsetInCU: 0x415AB, offset: 0x415AB, size: 0x8, addend: 0x0, symName: __ZNSt3__16vectorINS_4pairINS0_IiNS_9allocatorIiEEEENS0_ImNS2_ImEEEEEENS2_IS7_EEE21_ConstructTransactionC2B7v160006ERS9_m, symObjAddr: 0x91BE4, symBinAddr: 0x100093838, symSize: 0x1D8 }
  - { offsetInCU: 0x415F2, offset: 0x415F2, size: 0x8, addend: 0x0, symName: __ZNKSt3__16vectorINS_4pairINS0_IiNS_9allocatorIiEEEENS0_ImNS2_ImEEEEEENS2_IS7_EEE19__annotate_increaseB7v160006Em, symObjAddr: 0x91DBC, symBinAddr: 0x100093A10, symSize: 0xF8 }
  - { offsetInCU: 0x41626, offset: 0x41626, size: 0x8, addend: 0x0, symName: __ZNKSt3__16vectorINS_4pairINS0_IiNS_9allocatorIiEEEENS0_ImNS2_ImEEEEEENS2_IS7_EEE31__annotate_contiguous_containerEPKvSB_SB_SB_, symObjAddr: 0x91EB4, symBinAddr: 0x100093B08, symSize: 0x58 }
  - { offsetInCU: 0x41687, offset: 0x41687, size: 0x8, addend: 0x0, symName: __ZNKSt3__16vectorINS_4pairINS0_IiNS_9allocatorIiEEEENS0_ImNS2_ImEEEEEENS2_IS7_EEE4dataB7v160006Ev, symObjAddr: 0x91F0C, symBinAddr: 0x100093B60, symSize: 0x64 }
  - { offsetInCU: 0x416AC, offset: 0x416AC, size: 0x8, addend: 0x0, symName: __ZNKSt3__16vectorINS_4pairINS0_IiNS_9allocatorIiEEEENS0_ImNS2_ImEEEEEENS2_IS7_EEE8capacityB7v160006Ev, symObjAddr: 0x91F70, symBinAddr: 0x100093BC4, symSize: 0xBC }
  - { offsetInCU: 0x416D1, offset: 0x416D1, size: 0x8, addend: 0x0, symName: __ZNKSt3__16vectorINS_4pairINS0_IiNS_9allocatorIiEEEENS0_ImNS2_ImEEEEEENS2_IS7_EEE4sizeB7v160006Ev, symObjAddr: 0x9202C, symBinAddr: 0x100093C80, symSize: 0xB0 }
  - { offsetInCU: 0x416F6, offset: 0x416F6, size: 0x8, addend: 0x0, symName: __ZNKSt3__16vectorINS_4pairINS0_IiNS_9allocatorIiEEEENS0_ImNS2_ImEEEEEENS2_IS7_EEE9__end_capB7v160006Ev, symObjAddr: 0x920DC, symBinAddr: 0x100093D30, symSize: 0x28 }
  - { offsetInCU: 0x4171B, offset: 0x4171B, size: 0x8, addend: 0x0, symName: __ZNKSt3__117__compressed_pairIPNS_4pairINS_6vectorIiNS_9allocatorIiEEEENS2_ImNS3_ImEEEEEENS3_IS8_EEE5firstB7v160006Ev, symObjAddr: 0x92104, symBinAddr: 0x100093D58, symSize: 0x24 }
  - { offsetInCU: 0x41740, offset: 0x41740, size: 0x8, addend: 0x0, symName: __ZNKSt3__122__compressed_pair_elemIPNS_4pairINS_6vectorIiNS_9allocatorIiEEEENS2_ImNS3_ImEEEEEELi0ELb0EE5__getB7v160006Ev, symObjAddr: 0x92128, symBinAddr: 0x100093D7C, symSize: 0x14 }
  - { offsetInCU: 0x41765, offset: 0x41765, size: 0x8, addend: 0x0, symName: __ZNSt3__14pairINS_6vectorIiNS_9allocatorIiEEEENS1_ImNS2_ImEEEEEC1B7v160006IRS4_S6_LPv0EEEOT_OT0_, symObjAddr: 0x92180, symBinAddr: 0x100093DD4, symSize: 0x3C }
  - { offsetInCU: 0x417C2, offset: 0x417C2, size: 0x8, addend: 0x0, symName: __ZNSt3__14pairINS_6vectorIiNS_9allocatorIiEEEENS1_ImNS2_ImEEEEEC2B7v160006IRS4_S6_LPv0EEEOT_OT0_, symObjAddr: 0x921BC, symBinAddr: 0x100093E10, symSize: 0x48 }
  - { offsetInCU: 0x4181F, offset: 0x4181F, size: 0x8, addend: 0x0, symName: __ZNSt3__117__compressed_pairIPNS_4pairINS_6vectorIiNS_9allocatorIiEEEENS2_ImNS3_ImEEEEEENS3_IS8_EEE6secondB7v160006Ev, symObjAddr: 0x92204, symBinAddr: 0x100093E58, symSize: 0x24 }
  - { offsetInCU: 0x41844, offset: 0x41844, size: 0x8, addend: 0x0, symName: __ZNSt3__122__compressed_pair_elemINS_9allocatorINS_4pairINS_6vectorIiNS1_IiEEEENS3_ImNS1_ImEEEEEEEELi1ELb1EE5__getB7v160006Ev, symObjAddr: 0x92228, symBinAddr: 0x100093E7C, symSize: 0x14 }
  - { offsetInCU: 0x41869, offset: 0x41869, size: 0x8, addend: 0x0, symName: __ZNSt3__16vectorINS_4pairINS0_IiNS_9allocatorIiEEEENS0_ImNS2_ImEEEEEENS2_IS7_EEE21_ConstructTransactionD2B7v160006Ev, symObjAddr: 0x9223C, symBinAddr: 0x100093E90, symSize: 0x278 }
  - { offsetInCU: 0x41892, offset: 0x41892, size: 0x8, addend: 0x0, symName: __ZNKSt3__16vectorINS_4pairINS0_IiNS_9allocatorIiEEEENS0_ImNS2_ImEEEEEENS2_IS7_EEE17__annotate_shrinkB7v160006Em, symObjAddr: 0x924B4, symBinAddr: 0x100094108, symSize: 0xE4 }
  - { offsetInCU: 0x418C5, offset: 0x418C5, size: 0x8, addend: 0x0, symName: __ZNKSt3__16vectorINS_4pairINS0_IiNS_9allocatorIiEEEENS0_ImNS2_ImEEEEEENS2_IS7_EEE11__recommendB7v160006Em, symObjAddr: 0x92598, symBinAddr: 0x1000941EC, symSize: 0x384 }
  - { offsetInCU: 0x41920, offset: 0x41920, size: 0x8, addend: 0x0, symName: __ZNSt3__114__split_bufferINS_4pairINS_6vectorIiNS_9allocatorIiEEEENS2_ImNS3_ImEEEEEERNS3_IS8_EEEC1EmmSA_, symObjAddr: 0x9291C, symBinAddr: 0x100094570, symSize: 0x44 }
  - { offsetInCU: 0x41975, offset: 0x41975, size: 0x8, addend: 0x0, symName: __ZNSt3__114__split_bufferINS_4pairINS_6vectorIiNS_9allocatorIiEEEENS2_ImNS3_ImEEEEEERNS3_IS8_EEED1Ev, symObjAddr: 0x92ED4, symBinAddr: 0x100094B28, symSize: 0x2C }
  - { offsetInCU: 0x4199F, offset: 0x4199F, size: 0x8, addend: 0x0, symName: __ZNKSt3__16vectorINS_4pairINS0_IiNS_9allocatorIiEEEENS0_ImNS2_ImEEEEEENS2_IS7_EEE8max_sizeEv, symObjAddr: 0x92F00, symBinAddr: 0x100094B54, symSize: 0x2FC }
  - { offsetInCU: 0x419C7, offset: 0x419C7, size: 0x8, addend: 0x0, symName: __ZNKSt3__16vectorINS_4pairINS0_IiNS_9allocatorIiEEEENS0_ImNS2_ImEEEEEENS2_IS7_EEE20__throw_length_errorB7v160006Ev, symObjAddr: 0x931FC, symBinAddr: 0x100094E50, symSize: 0x20 }
  - { offsetInCU: 0x419F6, offset: 0x419F6, size: 0x8, addend: 0x0, symName: __ZNSt3__116allocator_traitsINS_9allocatorINS_4pairINS_6vectorIiNS1_IiEEEENS3_ImNS1_ImEEEEEEEEE8max_sizeB7v160006IS9_vvEEmRKS9_, symObjAddr: 0x9321C, symBinAddr: 0x100094E70, symSize: 0x28 }
  - { offsetInCU: 0x41A21, offset: 0x41A21, size: 0x8, addend: 0x0, symName: __ZNKSt3__16vectorINS_4pairINS0_IiNS_9allocatorIiEEEENS0_ImNS2_ImEEEEEENS2_IS7_EEE7__allocB7v160006Ev, symObjAddr: 0x93244, symBinAddr: 0x100094E98, symSize: 0x28 }
  - { offsetInCU: 0x41A46, offset: 0x41A46, size: 0x8, addend: 0x0, symName: __ZNKSt3__117__compressed_pairIPNS_4pairINS_6vectorIiNS_9allocatorIiEEEENS2_ImNS3_ImEEEEEENS3_IS8_EEE6secondB7v160006Ev, symObjAddr: 0x9326C, symBinAddr: 0x100094EC0, symSize: 0x24 }
  - { offsetInCU: 0x41A6B, offset: 0x41A6B, size: 0x8, addend: 0x0, symName: __ZNKSt3__122__compressed_pair_elemINS_9allocatorINS_4pairINS_6vectorIiNS1_IiEEEENS3_ImNS1_ImEEEEEEEELi1ELb1EE5__getB7v160006Ev, symObjAddr: 0x93290, symBinAddr: 0x100094EE4, symSize: 0x14 }
  - { offsetInCU: 0x41A90, offset: 0x41A90, size: 0x8, addend: 0x0, symName: __ZNSt3__114__split_bufferINS_4pairINS_6vectorIiNS_9allocatorIiEEEENS2_ImNS3_ImEEEEEERNS3_IS8_EEEC2EmmSA_, symObjAddr: 0x932A4, symBinAddr: 0x100094EF8, symSize: 0x530 }
  - { offsetInCU: 0x41B0A, offset: 0x41B0A, size: 0x8, addend: 0x0, symName: __ZNSt3__117__compressed_pairIPNS_4pairINS_6vectorIiNS_9allocatorIiEEEENS2_ImNS3_ImEEEEEERNS3_IS8_EEEC1B7v160006IDnSB_EEOT_OT0_, symObjAddr: 0x937D4, symBinAddr: 0x100095428, symSize: 0x3C }
  - { offsetInCU: 0x41B61, offset: 0x41B61, size: 0x8, addend: 0x0, symName: __ZNSt3__114__split_bufferINS_4pairINS_6vectorIiNS_9allocatorIiEEEENS2_ImNS3_ImEEEEEERNS3_IS8_EEE7__allocB7v160006Ev, symObjAddr: 0x93A9C, symBinAddr: 0x1000956F0, symSize: 0x28 }
  - { offsetInCU: 0x41B86, offset: 0x41B86, size: 0x8, addend: 0x0, symName: __ZNSt3__114__split_bufferINS_4pairINS_6vectorIiNS_9allocatorIiEEEENS2_ImNS3_ImEEEEEERNS3_IS8_EEE9__end_capB7v160006Ev, symObjAddr: 0x93AC4, symBinAddr: 0x100095718, symSize: 0x28 }
  - { offsetInCU: 0x41BAB, offset: 0x41BAB, size: 0x8, addend: 0x0, symName: __ZNSt3__117__compressed_pairIPNS_4pairINS_6vectorIiNS_9allocatorIiEEEENS2_ImNS3_ImEEEEEERNS3_IS8_EEEC2B7v160006IDnSB_EEOT_OT0_, symObjAddr: 0x93AEC, symBinAddr: 0x100095740, symSize: 0x48 }
  - { offsetInCU: 0x41C02, offset: 0x41C02, size: 0x8, addend: 0x0, symName: __ZNSt3__122__compressed_pair_elemIRNS_9allocatorINS_4pairINS_6vectorIiNS1_IiEEEENS3_ImNS1_ImEEEEEEEELi1ELb0EEC2B7v160006ISA_vEEOT_, symObjAddr: 0x93B34, symBinAddr: 0x100095788, symSize: 0x70 }
  - { offsetInCU: 0x41C43, offset: 0x41C43, size: 0x8, addend: 0x0, symName: __ZNSt3__19allocatorINS_4pairINS_6vectorIiNS0_IiEEEENS2_ImNS0_ImEEEEEEE8allocateB7v160006Em, symObjAddr: 0x93BA4, symBinAddr: 0x1000957F8, symSize: 0x60 }
  - { offsetInCU: 0x41C76, offset: 0x41C76, size: 0x8, addend: 0x0, symName: __ZNSt3__117__compressed_pairIPNS_4pairINS_6vectorIiNS_9allocatorIiEEEENS2_ImNS3_ImEEEEEERNS3_IS8_EEE6secondB7v160006Ev, symObjAddr: 0x93C04, symBinAddr: 0x100095858, symSize: 0x28 }
  - { offsetInCU: 0x41C9B, offset: 0x41C9B, size: 0x8, addend: 0x0, symName: __ZNSt3__122__compressed_pair_elemIRNS_9allocatorINS_4pairINS_6vectorIiNS1_IiEEEENS3_ImNS1_ImEEEEEEEELi1ELb0EE5__getB7v160006Ev, symObjAddr: 0x93C2C, symBinAddr: 0x100095880, symSize: 0x60 }
  - { offsetInCU: 0x41CC0, offset: 0x41CC0, size: 0x8, addend: 0x0, symName: __ZNSt3__117__compressed_pairIPNS_4pairINS_6vectorIiNS_9allocatorIiEEEENS2_ImNS3_ImEEEEEERNS3_IS8_EEE5firstB7v160006Ev, symObjAddr: 0x93C8C, symBinAddr: 0x1000958E0, symSize: 0x24 }
  - { offsetInCU: 0x41CE5, offset: 0x41CE5, size: 0x8, addend: 0x0, symName: __ZNKSt3__16vectorINS_4pairINS0_IiNS_9allocatorIiEEEENS0_ImNS2_ImEEEEEENS2_IS7_EEE17__annotate_deleteB7v160006Ev, symObjAddr: 0x93CB0, symBinAddr: 0x100095904, symSize: 0xE8 }
  - { offsetInCU: 0x41D0A, offset: 0x41D0A, size: 0x8, addend: 0x0, symName: __ZNSt3__116reverse_iteratorIPNS_4pairINS_6vectorIiNS_9allocatorIiEEEENS2_ImNS3_ImEEEEEEEC1B7v160006ES9_, symObjAddr: 0x942DC, symBinAddr: 0x100095F30, symSize: 0x34 }
  - { offsetInCU: 0x41D41, offset: 0x41D41, size: 0x8, addend: 0x0, symName: __ZNKSt3__116reverse_iteratorIPNS_4pairINS_6vectorIiNS_9allocatorIiEEEENS2_ImNS3_ImEEEEEEE4baseB7v160006Ev, symObjAddr: 0x94310, symBinAddr: 0x100095F64, symSize: 0x64 }
  - { offsetInCU: 0x41D66, offset: 0x41D66, size: 0x8, addend: 0x0, symName: __ZNKSt3__16vectorINS_4pairINS0_IiNS_9allocatorIiEEEENS0_ImNS2_ImEEEEEENS2_IS7_EEE14__annotate_newB7v160006Em, symObjAddr: 0x944A8, symBinAddr: 0x1000960FC, symSize: 0xDC }
  - { offsetInCU: 0x41D9A, offset: 0x41D9A, size: 0x8, addend: 0x0, symName: __ZNSt3__129_AllocatorDestroyRangeReverseINS_9allocatorINS_4pairINS_6vectorIiNS1_IiEEEENS3_ImNS1_ImEEEEEEEENS_16reverse_iteratorIPS8_EEEC1B7v160006ERS9_RSC_SF_, symObjAddr: 0x9478C, symBinAddr: 0x1000963E0, symSize: 0x44 }
  - { offsetInCU: 0x41DF0, offset: 0x41DF0, size: 0x8, addend: 0x0, symName: __ZNSt3__116allocator_traitsINS_9allocatorINS_4pairINS_6vectorIiNS1_IiEEEENS3_ImNS1_ImEEEEEEEEE9constructB7v160006IS8_JS8_EvvEEvRS9_PT_DpOT0_, symObjAddr: 0x94818, symBinAddr: 0x10009646C, symSize: 0x30 }
  - { offsetInCU: 0x41E44, offset: 0x41E44, size: 0x8, addend: 0x0, symName: __ZNKSt3__116reverse_iteratorIPNS_4pairINS_6vectorIiNS_9allocatorIiEEEENS2_ImNS3_ImEEEEEEEdeB7v160006Ev, symObjAddr: 0x9486C, symBinAddr: 0x1000964C0, symSize: 0x74 }
  - { offsetInCU: 0x41E77, offset: 0x41E77, size: 0x8, addend: 0x0, symName: __ZNSt3__116reverse_iteratorIPNS_4pairINS_6vectorIiNS_9allocatorIiEEEENS2_ImNS3_ImEEEEEEEppB7v160006Ev, symObjAddr: 0x948E0, symBinAddr: 0x100096534, symSize: 0x6C }
  - { offsetInCU: 0x41E9C, offset: 0x41E9C, size: 0x8, addend: 0x0, symName: __ZNSt3__128__exception_guard_exceptionsINS_29_AllocatorDestroyRangeReverseINS_9allocatorINS_4pairINS_6vectorIiNS2_IiEEEENS4_ImNS2_ImEEEEEEEENS_16reverse_iteratorIPS9_EEEEE10__completeB7v160006Ev, symObjAddr: 0x9494C, symBinAddr: 0x1000965A0, symSize: 0x8C }
  - { offsetInCU: 0x41EC1, offset: 0x41EC1, size: 0x8, addend: 0x0, symName: __ZNSt3__128__exception_guard_exceptionsINS_29_AllocatorDestroyRangeReverseINS_9allocatorINS_4pairINS_6vectorIiNS2_IiEEEENS4_ImNS2_ImEEEEEEEENS_16reverse_iteratorIPS9_EEEEED1B7v160006Ev, symObjAddr: 0x949D8, symBinAddr: 0x10009662C, symSize: 0x2C }
  - { offsetInCU: 0x41EEA, offset: 0x41EEA, size: 0x8, addend: 0x0, symName: __ZNSt3__128__exception_guard_exceptionsINS_29_AllocatorDestroyRangeReverseINS_9allocatorINS_4pairINS_6vectorIiNS2_IiEEEENS4_ImNS2_ImEEEEEEEENS_16reverse_iteratorIPS9_EEEEEC1B7v160006ESE_, symObjAddr: 0x94A04, symBinAddr: 0x100096658, symSize: 0x34 }
  - { offsetInCU: 0x41F22, offset: 0x41F22, size: 0x8, addend: 0x0, symName: __ZNSt3__128__exception_guard_exceptionsINS_29_AllocatorDestroyRangeReverseINS_9allocatorINS_4pairINS_6vectorIiNS2_IiEEEENS4_ImNS2_ImEEEEEEEENS_16reverse_iteratorIPS9_EEEEEC2B7v160006ESE_, symObjAddr: 0x94A38, symBinAddr: 0x10009668C, symSize: 0xA4 }
  - { offsetInCU: 0x41F5A, offset: 0x41F5A, size: 0x8, addend: 0x0, symName: __ZNSt3__129_AllocatorDestroyRangeReverseINS_9allocatorINS_4pairINS_6vectorIiNS1_IiEEEENS3_ImNS1_ImEEEEEEEENS_16reverse_iteratorIPS8_EEEC2B7v160006ERS9_RSC_SF_, symObjAddr: 0x94ADC, symBinAddr: 0x100096730, symSize: 0x104 }
  - { offsetInCU: 0x41FB0, offset: 0x41FB0, size: 0x8, addend: 0x0, symName: __ZNSt3__14pairINS_6vectorIiNS_9allocatorIiEEEENS1_ImNS2_ImEEEEEC1EOS7_, symObjAddr: 0x94C1C, symBinAddr: 0x100096870, symSize: 0x34 }
  - { offsetInCU: 0x41FE3, offset: 0x41FE3, size: 0x8, addend: 0x0, symName: __ZNSt3__14pairINS_6vectorIiNS_9allocatorIiEEEENS1_ImNS2_ImEEEEEC2EOS7_, symObjAddr: 0x94C50, symBinAddr: 0x1000968A4, symSize: 0x48 }
  - { offsetInCU: 0x4201B, offset: 0x4201B, size: 0x8, addend: 0x0, symName: __ZNSt3__119__to_address_helperINS_16reverse_iteratorIPNS_4pairINS_6vectorIiNS_9allocatorIiEEEENS3_ImNS4_ImEEEEEEEEvE6__callB7v160006ERKSB_, symObjAddr: 0x94C98, symBinAddr: 0x1000968EC, symSize: 0x44 }
  - { offsetInCU: 0x4203E, offset: 0x4203E, size: 0x8, addend: 0x0, symName: __ZNKSt3__116reverse_iteratorIPNS_4pairINS_6vectorIiNS_9allocatorIiEEEENS2_ImNS3_ImEEEEEEEptB7v160006Ev, symObjAddr: 0x94CDC, symBinAddr: 0x100096930, symSize: 0x6C }
  - { offsetInCU: 0x42063, offset: 0x42063, size: 0x8, addend: 0x0, symName: __ZNSt3__128__exception_guard_exceptionsINS_29_AllocatorDestroyRangeReverseINS_9allocatorINS_4pairINS_6vectorIiNS2_IiEEEENS4_ImNS2_ImEEEEEEEENS_16reverse_iteratorIPS9_EEEEED2B7v160006Ev, symObjAddr: 0x95074, symBinAddr: 0x100096CC8, symSize: 0xBC }
  - { offsetInCU: 0x4208C, offset: 0x4208C, size: 0x8, addend: 0x0, symName: __ZNKSt3__129_AllocatorDestroyRangeReverseINS_9allocatorINS_4pairINS_6vectorIiNS1_IiEEEENS3_ImNS1_ImEEEEEEEENS_16reverse_iteratorIPS8_EEEclB7v160006Ev, symObjAddr: 0x95130, symBinAddr: 0x100096D84, symSize: 0x3A8 }
  - { offsetInCU: 0x420B2, offset: 0x420B2, size: 0x8, addend: 0x0, symName: __ZNSt3__116reverse_iteratorINS0_IPNS_4pairINS_6vectorIiNS_9allocatorIiEEEENS2_ImNS3_ImEEEEEEEEEC1B7v160006ESA_, symObjAddr: 0x95548, symBinAddr: 0x10009719C, symSize: 0x248 }
  - { offsetInCU: 0x420EE, offset: 0x420EE, size: 0x8, addend: 0x0, symName: __ZNSt3__116allocator_traitsINS_9allocatorINS_4pairINS_6vectorIiNS1_IiEEEENS3_ImNS1_ImEEEEEEEEE7destroyB7v160006IS8_vvEEvRS9_PT_, symObjAddr: 0x95A5C, symBinAddr: 0x1000976B0, symSize: 0x28 }
  - { offsetInCU: 0x42128, offset: 0x42128, size: 0x8, addend: 0x0, symName: __ZNSt3__116reverse_iteratorINS0_IPNS_4pairINS_6vectorIiNS_9allocatorIiEEEENS2_ImNS3_ImEEEEEEEEEppB7v160006Ev, symObjAddr: 0x95AA8, symBinAddr: 0x1000976FC, symSize: 0x30 }
  - { offsetInCU: 0x4214D, offset: 0x4214D, size: 0x8, addend: 0x0, symName: __ZNKSt3__116reverse_iteratorINS0_IPNS_4pairINS_6vectorIiNS_9allocatorIiEEEENS2_ImNS3_ImEEEEEEEEE4baseB7v160006Ev, symObjAddr: 0x95AD8, symBinAddr: 0x10009772C, symSize: 0x20C }
  - { offsetInCU: 0x42173, offset: 0x42173, size: 0x8, addend: 0x0, symName: __ZNSt3__14pairINS_6vectorIiNS_9allocatorIiEEEENS1_ImNS2_ImEEEEED1Ev, symObjAddr: 0x95D2C, symBinAddr: 0x100097980, symSize: 0x2C }
  - { offsetInCU: 0x4219E, offset: 0x4219E, size: 0x8, addend: 0x0, symName: __ZNSt3__14pairINS_6vectorIiNS_9allocatorIiEEEENS1_ImNS2_ImEEEEED2Ev, symObjAddr: 0x95D58, symBinAddr: 0x1000979AC, symSize: 0x38 }
  - { offsetInCU: 0x421CE, offset: 0x421CE, size: 0x8, addend: 0x0, symName: __ZNSt3__119__to_address_helperINS_16reverse_iteratorINS1_IPNS_4pairINS_6vectorIiNS_9allocatorIiEEEENS3_ImNS4_ImEEEEEEEEEEvE6__callB7v160006ERKSC_, symObjAddr: 0x95D90, symBinAddr: 0x1000979E4, symSize: 0x44 }
  - { offsetInCU: 0x421F1, offset: 0x421F1, size: 0x8, addend: 0x0, symName: __ZNKSt3__116reverse_iteratorINS0_IPNS_4pairINS_6vectorIiNS_9allocatorIiEEEENS2_ImNS3_ImEEEEEEEEEptB7v160006Ev, symObjAddr: 0x95DD4, symBinAddr: 0x100097A28, symSize: 0x2A0 }
  - { offsetInCU: 0x42217, offset: 0x42217, size: 0x8, addend: 0x0, symName: __ZNSt3__116reverse_iteratorIPNS_4pairINS_6vectorIiNS_9allocatorIiEEEENS2_ImNS3_ImEEEEEEEpLB7v160006El, symObjAddr: 0x963A0, symBinAddr: 0x100097FF4, symSize: 0x84 }
  - { offsetInCU: 0x4224A, offset: 0x4224A, size: 0x8, addend: 0x0, symName: __ZNSt3__116reverse_iteratorIPNS_4pairINS_6vectorIiNS_9allocatorIiEEEENS2_ImNS3_ImEEEEEEEmmB7v160006Ev, symObjAddr: 0x96424, symBinAddr: 0x100098078, symSize: 0x6C }
  - { offsetInCU: 0x4226F, offset: 0x4226F, size: 0x8, addend: 0x0, symName: __ZNSt3__116reverse_iteratorINS0_IPNS_4pairINS_6vectorIiNS_9allocatorIiEEEENS2_ImNS3_ImEEEEEEEEEC2B7v160006ESA_, symObjAddr: 0x96490, symBinAddr: 0x1000980E4, symSize: 0x22C }
  - { offsetInCU: 0x422AB, offset: 0x422AB, size: 0x8, addend: 0x0, symName: __ZNSt3__116reverse_iteratorIPNS_4pairINS_6vectorIiNS_9allocatorIiEEEENS2_ImNS3_ImEEEEEEEC2B7v160006ES9_, symObjAddr: 0x966BC, symBinAddr: 0x100098310, symSize: 0xB8 }
  - { offsetInCU: 0x422E2, offset: 0x422E2, size: 0x8, addend: 0x0, symName: __ZNSt3__114__split_bufferINS_4pairINS_6vectorIiNS_9allocatorIiEEEENS2_ImNS3_ImEEEEEERNS3_IS8_EEED2Ev, symObjAddr: 0x96774, symBinAddr: 0x1000983C8, symSize: 0x104 }
  - { offsetInCU: 0x4230D, offset: 0x4230D, size: 0x8, addend: 0x0, symName: __ZNSt3__114__split_bufferINS_4pairINS_6vectorIiNS_9allocatorIiEEEENS2_ImNS3_ImEEEEEERNS3_IS8_EEE5clearB7v160006Ev, symObjAddr: 0x96878, symBinAddr: 0x1000984CC, symSize: 0x68 }
  - { offsetInCU: 0x42332, offset: 0x42332, size: 0x8, addend: 0x0, symName: __ZNSt3__116allocator_traitsINS_9allocatorINS_4pairINS_6vectorIiNS1_IiEEEENS3_ImNS1_ImEEEEEEEEE10deallocateB7v160006ERS9_PS8_m, symObjAddr: 0x968E0, symBinAddr: 0x100098534, symSize: 0x34 }
  - { offsetInCU: 0x42374, offset: 0x42374, size: 0x8, addend: 0x0, symName: __ZNKSt3__114__split_bufferINS_4pairINS_6vectorIiNS_9allocatorIiEEEENS2_ImNS3_ImEEEEEERNS3_IS8_EEE8capacityB7v160006Ev, symObjAddr: 0x96914, symBinAddr: 0x100098568, symSize: 0xBC }
  - { offsetInCU: 0x42399, offset: 0x42399, size: 0x8, addend: 0x0, symName: __ZNSt3__114__split_bufferINS_4pairINS_6vectorIiNS_9allocatorIiEEEENS2_ImNS3_ImEEEEEERNS3_IS8_EEE17__destruct_at_endB7v160006EPS8_, symObjAddr: 0x969D0, symBinAddr: 0x100098624, symSize: 0x2C }
  - { offsetInCU: 0x423CB, offset: 0x423CB, size: 0x8, addend: 0x0, symName: __ZNSt3__114__split_bufferINS_4pairINS_6vectorIiNS_9allocatorIiEEEENS2_ImNS3_ImEEEEEERNS3_IS8_EEE17__destruct_at_endB7v160006EPS8_NS_17integral_constantIbLb0EEE, symObjAddr: 0x969FC, symBinAddr: 0x100098650, symSize: 0x10C }
  - { offsetInCU: 0x4240A, offset: 0x4240A, size: 0x8, addend: 0x0, symName: __ZNSt3__19allocatorINS_4pairINS_6vectorIiNS0_IiEEEENS2_ImNS0_ImEEEEEEE10deallocateB7v160006EPS7_m, symObjAddr: 0x96B08, symBinAddr: 0x10009875C, symSize: 0x50 }
  - { offsetInCU: 0x4244B, offset: 0x4244B, size: 0x8, addend: 0x0, symName: __ZNKSt3__114__split_bufferINS_4pairINS_6vectorIiNS_9allocatorIiEEEENS2_ImNS3_ImEEEEEERNS3_IS8_EEE9__end_capB7v160006Ev, symObjAddr: 0x96B58, symBinAddr: 0x1000987AC, symSize: 0x28 }
  - { offsetInCU: 0x42470, offset: 0x42470, size: 0x8, addend: 0x0, symName: __ZNKSt3__117__compressed_pairIPNS_4pairINS_6vectorIiNS_9allocatorIiEEEENS2_ImNS3_ImEEEEEERNS3_IS8_EEE5firstB7v160006Ev, symObjAddr: 0x96B80, symBinAddr: 0x1000987D4, symSize: 0x24 }
  - { offsetInCU: 0x42495, offset: 0x42495, size: 0x8, addend: 0x0, symName: __ZNSt3__110__get_pairILm0EE3getB7v160006INS_6vectorIiNS_9allocatorIiEEEENS3_ImNS4_ImEEEEEERKT_RKNS_4pairIS9_T0_EE, symObjAddr: 0x96BA4, symBinAddr: 0x1000987F8, symSize: 0x14 }
  - { offsetInCU: 0x424CB, offset: 0x424CB, size: 0x8, addend: 0x0, symName: __ZNSt3__110__get_pairILm1EE3getB7v160006INS_6vectorIiNS_9allocatorIiEEEENS3_ImNS4_ImEEEEEERKT0_RKNS_4pairIT_S9_EE, symObjAddr: 0x96BB8, symBinAddr: 0x10009880C, symSize: 0x18 }
  - { offsetInCU: 0x42501, offset: 0x42501, size: 0x8, addend: 0x0, symName: __ZNSt3__16vectorINS_4pairINS0_IiNS_9allocatorIiEEEENS0_ImNS2_ImEEEEEENS2_IS7_EEED2B7v160006Ev, symObjAddr: 0x96BD0, symBinAddr: 0x100098824, symSize: 0x1F8 }
  - { offsetInCU: 0x4252B, offset: 0x4252B, size: 0x8, addend: 0x0, symName: __ZNSt3__16vectorINS_4pairINS0_IiNS_9allocatorIiEEEENS0_ImNS2_ImEEEEEENS2_IS7_EEE16__destroy_vectorC1ERS9_, symObjAddr: 0x96DC8, symBinAddr: 0x100098A1C, symSize: 0x34 }
  - { offsetInCU: 0x42563, offset: 0x42563, size: 0x8, addend: 0x0, symName: __ZNSt3__16vectorINS_4pairINS0_IiNS_9allocatorIiEEEENS0_ImNS2_ImEEEEEENS2_IS7_EEE16__destroy_vectorclB7v160006Ev, symObjAddr: 0x96DFC, symBinAddr: 0x100098A50, symSize: 0x264 }
  - { offsetInCU: 0x42588, offset: 0x42588, size: 0x8, addend: 0x0, symName: __ZNSt3__16vectorINS_4pairINS0_IiNS_9allocatorIiEEEENS0_ImNS2_ImEEEEEENS2_IS7_EEE16__destroy_vectorC2ERS9_, symObjAddr: 0x97060, symBinAddr: 0x100098CB4, symSize: 0x70 }
  - { offsetInCU: 0x425C0, offset: 0x425C0, size: 0x8, addend: 0x0, symName: __ZNSt3__16vectorINS_4pairINS0_IiNS_9allocatorIiEEEENS0_ImNS2_ImEEEEEENS2_IS7_EEE7__clearB7v160006Ev, symObjAddr: 0x970E0, symBinAddr: 0x100098D34, symSize: 0x64 }
  - { offsetInCU: 0x425E5, offset: 0x425E5, size: 0x8, addend: 0x0, symName: __ZNSt3__16vectorINS_4pairINS0_IiNS_9allocatorIiEEEENS0_ImNS2_ImEEEEEENS2_IS7_EEE22__base_destruct_at_endB7v160006EPS7_, symObjAddr: 0x97144, symBinAddr: 0x100098D98, symSize: 0x114 }
  - { offsetInCU: 0x42628, offset: 0x42628, size: 0x8, addend: 0x0, symName: __ZNK10CSelfMatchIiE7combineILm3EEEvRNSt3__16vectorINS2_5arrayImXT_EEENS2_9allocatorIS5_EEEERKNS3_ImNS6_ImEEEERSB_mmm, symObjAddr: 0x97258, symBinAddr: 0x100098EAC, symSize: 0x3A8 }
  - { offsetInCU: 0x426EF, offset: 0x426EF, size: 0x8, addend: 0x0, symName: __ZN10CSelfMatchI6CDummyEC2IPKS0_EET_S5_, symObjAddr: 0x97600, symBinAddr: 0x100099254, symSize: 0x3C }
  - { offsetInCU: 0x4273D, offset: 0x4273D, size: 0x8, addend: 0x0, symName: __ZNSt3__16vectorI6CDummyNS_9allocatorIS1_EEEC1IPKS1_Li0EEET_S8_, symObjAddr: 0x9763C, symBinAddr: 0x100099290, symSize: 0x3C }
  - { offsetInCU: 0x42795, offset: 0x42795, size: 0x8, addend: 0x0, symName: __ZNSt3__16vectorI6CDummyNS_9allocatorIS1_EEEC2IPKS1_Li0EEET_S8_, symObjAddr: 0x97678, symBinAddr: 0x1000992CC, symSize: 0x4D4 }
  - { offsetInCU: 0x42819, offset: 0x42819, size: 0x8, addend: 0x0, symName: __ZNSt3__117__compressed_pairIP6CDummyNS_9allocatorIS1_EEEC1B7v160006IDnNS_18__default_init_tagEEEOT_OT0_, symObjAddr: 0x97B4C, symBinAddr: 0x1000997A0, symSize: 0x3C }
  - { offsetInCU: 0x42870, offset: 0x42870, size: 0x8, addend: 0x0, symName: __ZNSt3__16vectorI6CDummyNS_9allocatorIS1_EEE11__vallocateB7v160006Em, symObjAddr: 0x97E3C, symBinAddr: 0x100099A90, symSize: 0x420 }
  - { offsetInCU: 0x428B8, offset: 0x428B8, size: 0x8, addend: 0x0, symName: __ZNSt3__16vectorI6CDummyNS_9allocatorIS1_EEE18__construct_at_endIPKS1_Li0EEEvT_S8_m, symObjAddr: 0x9825C, symBinAddr: 0x100099EB0, symSize: 0x380 }
  - { offsetInCU: 0x42932, offset: 0x42932, size: 0x8, addend: 0x0, symName: __ZNSt3__128__exception_guard_exceptionsINS_6vectorI6CDummyNS_9allocatorIS2_EEE16__destroy_vectorEE10__completeB7v160006Ev, symObjAddr: 0x985DC, symBinAddr: 0x10009A230, symSize: 0x8C }
  - { offsetInCU: 0x42957, offset: 0x42957, size: 0x8, addend: 0x0, symName: __ZNSt3__128__exception_guard_exceptionsINS_6vectorI6CDummyNS_9allocatorIS2_EEE16__destroy_vectorEED1B7v160006Ev, symObjAddr: 0x98668, symBinAddr: 0x10009A2BC, symSize: 0x2C }
  - { offsetInCU: 0x42980, offset: 0x42980, size: 0x8, addend: 0x0, symName: __ZNSt3__117__compressed_pairIP6CDummyNS_9allocatorIS1_EEEC2B7v160006IDnNS_18__default_init_tagEEEOT_OT0_, symObjAddr: 0x98694, symBinAddr: 0x10009A2E8, symSize: 0x40 }
  - { offsetInCU: 0x429D7, offset: 0x429D7, size: 0x8, addend: 0x0, symName: __ZNSt3__122__compressed_pair_elemIP6CDummyLi0ELb0EEC2B7v160006IDnvEEOT_, symObjAddr: 0x986D4, symBinAddr: 0x10009A328, symSize: 0x64 }
  - { offsetInCU: 0x42A18, offset: 0x42A18, size: 0x8, addend: 0x0, symName: __ZNSt3__122__compressed_pair_elemINS_9allocatorI6CDummyEELi1ELb1EEC2B7v160006ENS_18__default_init_tagE, symObjAddr: 0x98738, symBinAddr: 0x10009A38C, symSize: 0x2C }
  - { offsetInCU: 0x42A4B, offset: 0x42A4B, size: 0x8, addend: 0x0, symName: __ZNSt3__19allocatorI6CDummyEC2B7v160006Ev, symObjAddr: 0x98764, symBinAddr: 0x10009A3B8, symSize: 0x2C }
  - { offsetInCU: 0x42A74, offset: 0x42A74, size: 0x8, addend: 0x0, symName: __ZNSt3__116__non_trivial_ifILb1ENS_9allocatorI6CDummyEEEC2B7v160006Ev, symObjAddr: 0x98790, symBinAddr: 0x10009A3E4, symSize: 0x14 }
  - { offsetInCU: 0x42A9D, offset: 0x42A9D, size: 0x8, addend: 0x0, symName: __ZNSt3__128__exception_guard_exceptionsINS_6vectorI6CDummyNS_9allocatorIS2_EEE16__destroy_vectorEEC1B7v160006ES6_, symObjAddr: 0x987A4, symBinAddr: 0x10009A3F8, symSize: 0x238 }
  - { offsetInCU: 0x42AD9, offset: 0x42AD9, size: 0x8, addend: 0x0, symName: __ZNSt3__128__exception_guard_exceptionsINS_6vectorI6CDummyNS_9allocatorIS2_EEE16__destroy_vectorEEC2B7v160006ES6_, symObjAddr: 0x989DC, symBinAddr: 0x10009A630, symSize: 0x264 }
  - { offsetInCU: 0x42B14, offset: 0x42B14, size: 0x8, addend: 0x0, symName: __ZNKSt3__16vectorI6CDummyNS_9allocatorIS1_EEE8max_sizeEv, symObjAddr: 0x98C60, symBinAddr: 0x10009A8B4, symSize: 0x2FC }
  - { offsetInCU: 0x42B3C, offset: 0x42B3C, size: 0x8, addend: 0x0, symName: __ZNKSt3__16vectorI6CDummyNS_9allocatorIS1_EEE20__throw_length_errorB7v160006Ev, symObjAddr: 0x98F5C, symBinAddr: 0x10009ABB0, symSize: 0x20 }
  - { offsetInCU: 0x42B61, offset: 0x42B61, size: 0x8, addend: 0x0, symName: __ZNSt3__16vectorI6CDummyNS_9allocatorIS1_EEE9__end_capB7v160006Ev, symObjAddr: 0x99208, symBinAddr: 0x10009AE5C, symSize: 0x28 }
  - { offsetInCU: 0x42B86, offset: 0x42B86, size: 0x8, addend: 0x0, symName: __ZNKSt3__16vectorI6CDummyNS_9allocatorIS1_EEE14__annotate_newB7v160006Em, symObjAddr: 0x99230, symBinAddr: 0x10009AE84, symSize: 0xC0 }
  - { offsetInCU: 0x42BC4, offset: 0x42BC4, size: 0x8, addend: 0x0, symName: __ZNSt3__116allocator_traitsINS_9allocatorI6CDummyEEE8max_sizeB7v160006IS3_vvEEmRKS3_, symObjAddr: 0x992F0, symBinAddr: 0x10009AF44, symSize: 0x28 }
  - { offsetInCU: 0x42BEF, offset: 0x42BEF, size: 0x8, addend: 0x0, symName: __ZNKSt3__16vectorI6CDummyNS_9allocatorIS1_EEE7__allocB7v160006Ev, symObjAddr: 0x99318, symBinAddr: 0x10009AF6C, symSize: 0x28 }
  - { offsetInCU: 0x42C14, offset: 0x42C14, size: 0x8, addend: 0x0, symName: __ZNKSt3__117__compressed_pairIP6CDummyNS_9allocatorIS1_EEE6secondB7v160006Ev, symObjAddr: 0x99340, symBinAddr: 0x10009AF94, symSize: 0x24 }
  - { offsetInCU: 0x42C39, offset: 0x42C39, size: 0x8, addend: 0x0, symName: __ZNKSt3__122__compressed_pair_elemINS_9allocatorI6CDummyEELi1ELb1EE5__getB7v160006Ev, symObjAddr: 0x99364, symBinAddr: 0x10009AFB8, symSize: 0x14 }
  - { offsetInCU: 0x42C5E, offset: 0x42C5E, size: 0x8, addend: 0x0, symName: __ZNSt3__19allocatorI6CDummyE8allocateB7v160006Em, symObjAddr: 0x99378, symBinAddr: 0x10009AFCC, symSize: 0x5C }
  - { offsetInCU: 0x42C91, offset: 0x42C91, size: 0x8, addend: 0x0, symName: __ZNSt3__117__compressed_pairIP6CDummyNS_9allocatorIS1_EEE5firstB7v160006Ev, symObjAddr: 0x993D4, symBinAddr: 0x10009B028, symSize: 0x24 }
  - { offsetInCU: 0x42CB6, offset: 0x42CB6, size: 0x8, addend: 0x0, symName: __ZNSt3__122__compressed_pair_elemIP6CDummyLi0ELb0EE5__getB7v160006Ev, symObjAddr: 0x993F8, symBinAddr: 0x10009B04C, symSize: 0x14 }
  - { offsetInCU: 0x42CF4, offset: 0x42CF4, size: 0x8, addend: 0x0, symName: __ZNSt3__16vectorI6CDummyNS_9allocatorIS1_EEE21_ConstructTransactionC1B7v160006ERS4_m, symObjAddr: 0x9940C, symBinAddr: 0x10009B060, symSize: 0x3C }
  - { offsetInCU: 0x42D3B, offset: 0x42D3B, size: 0x8, addend: 0x0, symName: __ZNSt3__16vectorI6CDummyNS_9allocatorIS1_EEE21_ConstructTransactionD1B7v160006Ev, symObjAddr: 0x99480, symBinAddr: 0x10009B0D4, symSize: 0x2C }
  - { offsetInCU: 0x42D64, offset: 0x42D64, size: 0x8, addend: 0x0, symName: __ZNSt3__16vectorI6CDummyNS_9allocatorIS1_EEE21_ConstructTransactionC2B7v160006ERS4_m, symObjAddr: 0x994AC, symBinAddr: 0x10009B100, symSize: 0x1D0 }
  - { offsetInCU: 0x42DAB, offset: 0x42DAB, size: 0x8, addend: 0x0, symName: __ZNKSt3__16vectorI6CDummyNS_9allocatorIS1_EEE19__annotate_increaseB7v160006Em, symObjAddr: 0x9967C, symBinAddr: 0x10009B2D0, symSize: 0xD8 }
  - { offsetInCU: 0x42DF8, offset: 0x42DF8, size: 0x8, addend: 0x0, symName: __ZNKSt3__114__copy_trivialclB7v160006IK6CDummyS2_Li0EEENS_4pairIPT_PT0_EES6_S6_S8_, symObjAddr: 0x9A5E0, symBinAddr: 0x10009C234, symSize: 0x230 }
  - { offsetInCU: 0x42E7C, offset: 0x42E7C, size: 0x8, addend: 0x0, symName: __ZNSt3__119__unwrap_range_implIPK6CDummyS3_E8__unwrapB7v160006ES3_S3_, symObjAddr: 0x9AAB4, symBinAddr: 0x10009C708, symSize: 0x30C }
  - { offsetInCU: 0x42EB4, offset: 0x42EB4, size: 0x8, addend: 0x0, symName: __ZNSt3__14pairIPK6CDummyS3_EC1B7v160006IS3_S3_LPv0EEEOT_OT0_, symObjAddr: 0x9ADE4, symBinAddr: 0x10009CA38, symSize: 0x3C }
  - { offsetInCU: 0x42F11, offset: 0x42F11, size: 0x8, addend: 0x0, symName: __ZNSt3__118__unwrap_iter_implIPK6CDummyLb1EE8__unwrapB7v160006ES3_, symObjAddr: 0x9AE20, symBinAddr: 0x10009CA74, symSize: 0x24 }
  - { offsetInCU: 0x42F34, offset: 0x42F34, size: 0x8, addend: 0x0, symName: __ZNSt3__14pairIPK6CDummyS3_EC2B7v160006IS3_S3_LPv0EEEOT_OT0_, symObjAddr: 0x9AE58, symBinAddr: 0x10009CAAC, symSize: 0x138 }
  - { offsetInCU: 0x42F9B, offset: 0x42F9B, size: 0x8, addend: 0x0, symName: __ZNSt3__14pairIPK6CDummyPS1_EC1B7v160006IRS3_S4_LPv0EEEOT_OT0_, symObjAddr: 0x9B54C, symBinAddr: 0x10009D1A0, symSize: 0x3C }
  - { offsetInCU: 0x42FF8, offset: 0x42FF8, size: 0x8, addend: 0x0, symName: __ZNSt3__14pairIPK6CDummyPS1_EC2B7v160006IRS3_S4_LPv0EEEOT_OT0_, symObjAddr: 0x9B588, symBinAddr: 0x10009D1DC, symSize: 0x138 }
  - { offsetInCU: 0x43055, offset: 0x43055, size: 0x8, addend: 0x0, symName: __ZNSt3__118__unwrap_iter_implIP6CDummyLb1EE8__unwrapB7v160006ES2_, symObjAddr: 0x9B6C0, symBinAddr: 0x10009D314, symSize: 0x24 }
  - { offsetInCU: 0x43078, offset: 0x43078, size: 0x8, addend: 0x0, symName: __ZNSt3__14pairIPK6CDummyPS1_EC1B7v160006IS3_S4_LPv0EEEOT_OT0_, symObjAddr: 0x9B6E4, symBinAddr: 0x10009D338, symSize: 0x3C }
  - { offsetInCU: 0x430D5, offset: 0x430D5, size: 0x8, addend: 0x0, symName: __ZNSt3__14pairIPK6CDummyPS1_EC2B7v160006IS3_S4_LPv0EEEOT_OT0_, symObjAddr: 0x9B720, symBinAddr: 0x10009D374, symSize: 0x138 }
  - { offsetInCU: 0x43132, offset: 0x43132, size: 0x8, addend: 0x0, symName: __ZNSt3__119__unwrap_range_implIPK6CDummyS3_E8__rewrapB7v160006ES3_S3_, symObjAddr: 0x9B858, symBinAddr: 0x10009D4AC, symSize: 0x2C }
  - { offsetInCU: 0x43163, offset: 0x43163, size: 0x8, addend: 0x0, symName: __ZNSt3__118__unwrap_iter_implIPK6CDummyLb1EE8__rewrapB7v160006ES3_S3_, symObjAddr: 0x9B8CC, symBinAddr: 0x10009D520, symSize: 0x48 }
  - { offsetInCU: 0x43194, offset: 0x43194, size: 0x8, addend: 0x0, symName: __ZNSt3__118__unwrap_iter_implIP6CDummyLb1EE8__rewrapB7v160006ES2_S2_, symObjAddr: 0x9B914, symBinAddr: 0x10009D568, symSize: 0x48 }
  - { offsetInCU: 0x431C5, offset: 0x431C5, size: 0x8, addend: 0x0, symName: __ZNSt3__16vectorI6CDummyNS_9allocatorIS1_EEE21_ConstructTransactionD2B7v160006Ev, symObjAddr: 0x9B95C, symBinAddr: 0x10009D5B0, symSize: 0x270 }
  - { offsetInCU: 0x431EE, offset: 0x431EE, size: 0x8, addend: 0x0, symName: __ZNKSt3__16vectorI6CDummyNS_9allocatorIS1_EEE17__annotate_shrinkB7v160006Em, symObjAddr: 0x9BBCC, symBinAddr: 0x10009D820, symSize: 0xC8 }
  - { offsetInCU: 0x43222, offset: 0x43222, size: 0x8, addend: 0x0, symName: __ZNSt3__128__exception_guard_exceptionsINS_6vectorI6CDummyNS_9allocatorIS2_EEE16__destroy_vectorEED2B7v160006Ev, symObjAddr: 0x9BC94, symBinAddr: 0x10009D8E8, symSize: 0xBC }
  - { offsetInCU: 0x4324B, offset: 0x4324B, size: 0x8, addend: 0x0, symName: __ZNSt3__16vectorINS0_I6CDummyNS_9allocatorIS1_EEEENS2_IS4_EEEC1B7v160006Ev, symObjAddr: 0x9BD50, symBinAddr: 0x10009D9A4, symSize: 0x2C }
  - { offsetInCU: 0x43273, offset: 0x43273, size: 0x8, addend: 0x0, symName: __ZNKSt3__16vectorI6CDummyNS_9allocatorIS1_EEE5beginB7v160006Ev, symObjAddr: 0x9BD7C, symBinAddr: 0x10009D9D0, symSize: 0x268 }
  - { offsetInCU: 0x4329B, offset: 0x4329B, size: 0x8, addend: 0x0, symName: __ZNKSt3__111__wrap_iterIPK6CDummyEplB7v160006El, symObjAddr: 0x9BFE4, symBinAddr: 0x10009DC38, symSize: 0x20C }
  - { offsetInCU: 0x432E2, offset: 0x432E2, size: 0x8, addend: 0x0, symName: __ZNSt3__16vectorI6CDummyNS_9allocatorIS1_EEEC1INS_11__wrap_iterIPKS1_EELi0EEET_SA_, symObjAddr: 0x9C1F0, symBinAddr: 0x10009DE44, symSize: 0x2FC }
  - { offsetInCU: 0x43343, offset: 0x43343, size: 0x8, addend: 0x0, symName: __ZNKSt3__16vectorINS0_I6CDummyNS_9allocatorIS1_EEEENS2_IS4_EEE4sizeB7v160006Ev, symObjAddr: 0x9C4EC, symBinAddr: 0x10009E140, symSize: 0xB0 }
  - { offsetInCU: 0x43367, offset: 0x43367, size: 0x8, addend: 0x0, symName: __ZNSt3__16vectorINS0_I6CDummyNS_9allocatorIS1_EEEENS2_IS4_EEEixB7v160006Em, symObjAddr: 0x9C998, symBinAddr: 0x10009E5EC, symSize: 0x74 }
  - { offsetInCU: 0x4339C, offset: 0x4339C, size: 0x8, addend: 0x0, symName: __ZNSt3__16vectorINS0_I6CDummyNS_9allocatorIS1_EEEENS2_IS4_EEE9push_backB7v160006ERKS4_, symObjAddr: 0x9CA0C, symBinAddr: 0x10009E660, symSize: 0xE0 }
  - { offsetInCU: 0x433D2, offset: 0x433D2, size: 0x8, addend: 0x0, symName: __ZNSt3__16vectorINS0_I6CDummyNS_9allocatorIS1_EEEENS2_IS4_EEE5clearB7v160006Ev, symObjAddr: 0x9CAEC, symBinAddr: 0x10009E740, symSize: 0x4C }
  - { offsetInCU: 0x43406, offset: 0x43406, size: 0x8, addend: 0x0, symName: __ZNSt3__16vectorINS0_I6CDummyNS_9allocatorIS1_EEEENS2_IS4_EEED1B7v160006Ev, symObjAddr: 0x9CB38, symBinAddr: 0x10009E78C, symSize: 0x2C }
  - { offsetInCU: 0x4342F, offset: 0x4342F, size: 0x8, addend: 0x0, symName: __ZNSt3__16vectorINS0_I6CDummyNS_9allocatorIS1_EEEENS2_IS4_EEEC2B7v160006Ev, symObjAddr: 0x9CB64, symBinAddr: 0x10009E7B8, symSize: 0x2F4 }
  - { offsetInCU: 0x43459, offset: 0x43459, size: 0x8, addend: 0x0, symName: __ZNSt3__117__compressed_pairIPNS_6vectorI6CDummyNS_9allocatorIS2_EEEENS3_IS5_EEEC1B7v160006IDnNS_18__default_init_tagEEEOT_OT0_, symObjAddr: 0x9CE58, symBinAddr: 0x10009EAAC, symSize: 0x3C }
  - { offsetInCU: 0x434B0, offset: 0x434B0, size: 0x8, addend: 0x0, symName: __ZNSt3__117__compressed_pairIPNS_6vectorI6CDummyNS_9allocatorIS2_EEEENS3_IS5_EEEC2B7v160006IDnNS_18__default_init_tagEEEOT_OT0_, symObjAddr: 0x9CEA4, symBinAddr: 0x10009EAF8, symSize: 0x40 }
  - { offsetInCU: 0x43507, offset: 0x43507, size: 0x8, addend: 0x0, symName: __ZNSt3__122__compressed_pair_elemIPNS_6vectorI6CDummyNS_9allocatorIS2_EEEELi0ELb0EEC2B7v160006IDnvEEOT_, symObjAddr: 0x9CEE4, symBinAddr: 0x10009EB38, symSize: 0x64 }
  - { offsetInCU: 0x43548, offset: 0x43548, size: 0x8, addend: 0x0, symName: __ZNSt3__122__compressed_pair_elemINS_9allocatorINS_6vectorI6CDummyNS1_IS3_EEEEEELi1ELb1EEC2B7v160006ENS_18__default_init_tagE, symObjAddr: 0x9CF48, symBinAddr: 0x10009EB9C, symSize: 0x2C }
  - { offsetInCU: 0x4357B, offset: 0x4357B, size: 0x8, addend: 0x0, symName: __ZNSt3__19allocatorINS_6vectorI6CDummyNS0_IS2_EEEEEC2B7v160006Ev, symObjAddr: 0x9CF74, symBinAddr: 0x10009EBC8, symSize: 0x2C }
  - { offsetInCU: 0x435A4, offset: 0x435A4, size: 0x8, addend: 0x0, symName: __ZNSt3__116__non_trivial_ifILb1ENS_9allocatorINS_6vectorI6CDummyNS1_IS3_EEEEEEEC2B7v160006Ev, symObjAddr: 0x9CFA0, symBinAddr: 0x10009EBF4, symSize: 0x14 }
  - { offsetInCU: 0x435CD, offset: 0x435CD, size: 0x8, addend: 0x0, symName: __ZNKSt3__16vectorI6CDummyNS_9allocatorIS1_EEE11__make_iterB7v160006EPKS1_, symObjAddr: 0x9CFB4, symBinAddr: 0x10009EC08, symSize: 0x200 }
  - { offsetInCU: 0x43603, offset: 0x43603, size: 0x8, addend: 0x0, symName: __ZNSt3__111__wrap_iterIPK6CDummyEC1B7v160006EPKvS3_, symObjAddr: 0x9D1B4, symBinAddr: 0x10009EE08, symSize: 0x3C }
  - { offsetInCU: 0x43648, offset: 0x43648, size: 0x8, addend: 0x0, symName: __ZNSt3__111__wrap_iterIPK6CDummyEC2B7v160006EPKvS3_, symObjAddr: 0x9D1F0, symBinAddr: 0x10009EE44, symSize: 0x74 }
  - { offsetInCU: 0x4368D, offset: 0x4368D, size: 0x8, addend: 0x0, symName: __ZNSt3__111__wrap_iterIPK6CDummyEpLB7v160006El, symObjAddr: 0x9D264, symBinAddr: 0x10009EEB8, symSize: 0x78 }
  - { offsetInCU: 0x436C0, offset: 0x436C0, size: 0x8, addend: 0x0, symName: __ZNSt3__16vectorI6CDummyNS_9allocatorIS1_EEEC2INS_11__wrap_iterIPKS1_EELi0EEET_SA_, symObjAddr: 0x9D2DC, symBinAddr: 0x10009EF30, symSize: 0x6EC }
  - { offsetInCU: 0x4374A, offset: 0x4374A, size: 0x8, addend: 0x0, symName: __ZNSt3__16vectorI6CDummyNS_9allocatorIS1_EEE18__construct_at_endINS_11__wrap_iterIPKS1_EELi0EEEvT_SA_m, symObjAddr: 0x9DD18, symBinAddr: 0x10009F96C, symSize: 0x548 }
  - { offsetInCU: 0x437CA, offset: 0x437CA, size: 0x8, addend: 0x0, symName: __ZNKSt3__111__wrap_iterIPK6CDummyE4baseB7v160006Ev, symObjAddr: 0x9E514, symBinAddr: 0x1000A0168, symSize: 0x60 }
  - { offsetInCU: 0x437EF, offset: 0x437EF, size: 0x8, addend: 0x0, symName: __ZNSt3__129_AllocatorDestroyRangeReverseINS_9allocatorI6CDummyEEPS2_EC1B7v160006ERS3_RS4_S7_, symObjAddr: 0x9ED28, symBinAddr: 0x1000A097C, symSize: 0x44 }
  - { offsetInCU: 0x43845, offset: 0x43845, size: 0x8, addend: 0x0, symName: __ZNSt3__116allocator_traitsINS_9allocatorI6CDummyEEE9constructB7v160006IS2_JRKS2_EvvEEvRS3_PT_DpOT0_, symObjAddr: 0x9EDA0, symBinAddr: 0x1000A09F4, symSize: 0x30 }
  - { offsetInCU: 0x43899, offset: 0x43899, size: 0x8, addend: 0x0, symName: __ZNKSt3__111__wrap_iterIPK6CDummyEdeB7v160006Ev, symObjAddr: 0x9EDD0, symBinAddr: 0x1000A0A24, symSize: 0x60 }
  - { offsetInCU: 0x438BE, offset: 0x438BE, size: 0x8, addend: 0x0, symName: __ZNSt3__111__wrap_iterIPK6CDummyEppB7v160006Ev, symObjAddr: 0x9EE30, symBinAddr: 0x1000A0A84, symSize: 0x68 }
  - { offsetInCU: 0x438E3, offset: 0x438E3, size: 0x8, addend: 0x0, symName: __ZNSt3__128__exception_guard_exceptionsINS_29_AllocatorDestroyRangeReverseINS_9allocatorI6CDummyEEPS3_EEE10__completeB7v160006Ev, symObjAddr: 0x9EE98, symBinAddr: 0x1000A0AEC, symSize: 0x8C }
  - { offsetInCU: 0x43908, offset: 0x43908, size: 0x8, addend: 0x0, symName: __ZNSt3__128__exception_guard_exceptionsINS_29_AllocatorDestroyRangeReverseINS_9allocatorI6CDummyEEPS3_EEED1B7v160006Ev, symObjAddr: 0x9EF24, symBinAddr: 0x1000A0B78, symSize: 0x2C }
  - { offsetInCU: 0x43931, offset: 0x43931, size: 0x8, addend: 0x0, symName: __ZNSt3__128__exception_guard_exceptionsINS_29_AllocatorDestroyRangeReverseINS_9allocatorI6CDummyEEPS3_EEEC1B7v160006ES6_, symObjAddr: 0x9EF50, symBinAddr: 0x1000A0BA4, symSize: 0x34 }
  - { offsetInCU: 0x43969, offset: 0x43969, size: 0x8, addend: 0x0, symName: __ZNSt3__128__exception_guard_exceptionsINS_29_AllocatorDestroyRangeReverseINS_9allocatorI6CDummyEEPS3_EEEC2B7v160006ES6_, symObjAddr: 0x9EF84, symBinAddr: 0x1000A0BD8, symSize: 0xA4 }
  - { offsetInCU: 0x439A1, offset: 0x439A1, size: 0x8, addend: 0x0, symName: __ZNSt3__129_AllocatorDestroyRangeReverseINS_9allocatorI6CDummyEEPS2_EC2B7v160006ERS3_RS4_S7_, symObjAddr: 0x9F028, symBinAddr: 0x1000A0C7C, symSize: 0x104 }
  - { offsetInCU: 0x439F7, offset: 0x439F7, size: 0x8, addend: 0x0, symName: __ZNSt3__128__exception_guard_exceptionsINS_29_AllocatorDestroyRangeReverseINS_9allocatorI6CDummyEEPS3_EEED2B7v160006Ev, symObjAddr: 0x9F1B4, symBinAddr: 0x1000A0E08, symSize: 0xBC }
  - { offsetInCU: 0x43A20, offset: 0x43A20, size: 0x8, addend: 0x0, symName: __ZNKSt3__129_AllocatorDestroyRangeReverseINS_9allocatorI6CDummyEEPS2_EclB7v160006Ev, symObjAddr: 0x9F270, symBinAddr: 0x1000A0EC4, symSize: 0x39C }
  - { offsetInCU: 0x43A46, offset: 0x43A46, size: 0x8, addend: 0x0, symName: __ZNSt3__116reverse_iteratorIP6CDummyEC1B7v160006ES2_, symObjAddr: 0x9F8C4, symBinAddr: 0x1000A1518, symSize: 0x34 }
  - { offsetInCU: 0x43A7D, offset: 0x43A7D, size: 0x8, addend: 0x0, symName: __ZNSt3__116reverse_iteratorIP6CDummyEppB7v160006Ev, symObjAddr: 0x9F964, symBinAddr: 0x1000A15B8, symSize: 0x6C }
  - { offsetInCU: 0x43AA2, offset: 0x43AA2, size: 0x8, addend: 0x0, symName: __ZNKSt3__116reverse_iteratorIP6CDummyE4baseB7v160006Ev, symObjAddr: 0x9F9D0, symBinAddr: 0x1000A1624, symSize: 0x64 }
  - { offsetInCU: 0x43ACC, offset: 0x43ACC, size: 0x8, addend: 0x0, symName: __ZNSt3__119__to_address_helperINS_16reverse_iteratorIP6CDummyEEvE6__callB7v160006ERKS4_, symObjAddr: 0x9FA34, symBinAddr: 0x1000A1688, symSize: 0x44 }
  - { offsetInCU: 0x43AEF, offset: 0x43AEF, size: 0x8, addend: 0x0, symName: __ZNKSt3__116reverse_iteratorIP6CDummyEptB7v160006Ev, symObjAddr: 0x9FA78, symBinAddr: 0x1000A16CC, symSize: 0x6C }
  - { offsetInCU: 0x43B14, offset: 0x43B14, size: 0x8, addend: 0x0, symName: __ZNSt3__116reverse_iteratorIP6CDummyEC2B7v160006ES2_, symObjAddr: 0x9FE08, symBinAddr: 0x1000A1A5C, symSize: 0xB8 }
  - { offsetInCU: 0x43B4A, offset: 0x43B4A, size: 0x8, addend: 0x0, symName: __ZNKSt3__16vectorI6CDummyNS_9allocatorIS1_EEE3endB7v160006Ev, symObjAddr: 0xA02CC, symBinAddr: 0x1000A1F20, symSize: 0x26C }
  - { offsetInCU: 0x43B72, offset: 0x43B72, size: 0x8, addend: 0x0, symName: __ZNKSt3__110__equal_toclB7v160006I6CDummyS2_EEbRKT_RKT0_, symObjAddr: 0xA08B8, symBinAddr: 0x1000A250C, symSize: 0x34 }
  - { offsetInCU: 0x43BC5, offset: 0x43BC5, size: 0x8, addend: 0x0, symName: __ZNK6CDummyeqERKS_, symObjAddr: 0xA08EC, symBinAddr: 0x1000A2540, symSize: 0x100 }
  - { offsetInCU: 0x43BF8, offset: 0x43BF8, size: 0x8, addend: 0x0, symName: __ZNSt3__16vectorINS0_I6CDummyNS_9allocatorIS1_EEEENS2_IS4_EEE9__end_capB7v160006Ev, symObjAddr: 0xA09EC, symBinAddr: 0x1000A2640, symSize: 0x28 }
  - { offsetInCU: 0x43C1D, offset: 0x43C1D, size: 0x8, addend: 0x0, symName: __ZNSt3__16vectorINS0_I6CDummyNS_9allocatorIS1_EEEENS2_IS4_EEE22__construct_one_at_endB7v160006IJRKS4_EEEvDpOT_, symObjAddr: 0xA0A14, symBinAddr: 0x1000A2668, symSize: 0x36C }
  - { offsetInCU: 0x43C70, offset: 0x43C70, size: 0x8, addend: 0x0, symName: __ZNSt3__16vectorINS0_I6CDummyNS_9allocatorIS1_EEEENS2_IS4_EEE21__push_back_slow_pathIRKS4_EEvOT_, symObjAddr: 0xA0D80, symBinAddr: 0x1000A29D4, symSize: 0x3C0 }
  - { offsetInCU: 0x43CD4, offset: 0x43CD4, size: 0x8, addend: 0x0, symName: __ZNSt3__117__compressed_pairIPNS_6vectorI6CDummyNS_9allocatorIS2_EEEENS3_IS5_EEE5firstB7v160006Ev, symObjAddr: 0xA1140, symBinAddr: 0x1000A2D94, symSize: 0x24 }
  - { offsetInCU: 0x43CF9, offset: 0x43CF9, size: 0x8, addend: 0x0, symName: __ZNSt3__122__compressed_pair_elemIPNS_6vectorI6CDummyNS_9allocatorIS2_EEEELi0ELb0EE5__getB7v160006Ev, symObjAddr: 0xA1164, symBinAddr: 0x1000A2DB8, symSize: 0x14 }
  - { offsetInCU: 0x43D37, offset: 0x43D37, size: 0x8, addend: 0x0, symName: __ZNSt3__16vectorINS0_I6CDummyNS_9allocatorIS1_EEEENS2_IS4_EEE21_ConstructTransactionC1B7v160006ERS6_m, symObjAddr: 0xA1178, symBinAddr: 0x1000A2DCC, symSize: 0x3C }
  - { offsetInCU: 0x43D7E, offset: 0x43D7E, size: 0x8, addend: 0x0, symName: __ZNSt3__116allocator_traitsINS_9allocatorINS_6vectorI6CDummyNS1_IS3_EEEEEEE9constructB7v160006IS5_JRKS5_EvvEEvRS6_PT_DpOT0_, symObjAddr: 0xA11B4, symBinAddr: 0x1000A2E08, symSize: 0x30 }
  - { offsetInCU: 0x43DD2, offset: 0x43DD2, size: 0x8, addend: 0x0, symName: __ZNSt3__16vectorINS0_I6CDummyNS_9allocatorIS1_EEEENS2_IS4_EEE7__allocB7v160006Ev, symObjAddr: 0xA11E4, symBinAddr: 0x1000A2E38, symSize: 0x28 }
  - { offsetInCU: 0x43DF7, offset: 0x43DF7, size: 0x8, addend: 0x0, symName: __ZNSt3__16vectorINS0_I6CDummyNS_9allocatorIS1_EEEENS2_IS4_EEE21_ConstructTransactionD1B7v160006Ev, symObjAddr: 0xA1220, symBinAddr: 0x1000A2E74, symSize: 0x2C }
  - { offsetInCU: 0x43E20, offset: 0x43E20, size: 0x8, addend: 0x0, symName: __ZNSt3__16vectorINS0_I6CDummyNS_9allocatorIS1_EEEENS2_IS4_EEE21_ConstructTransactionC2B7v160006ERS6_m, symObjAddr: 0xA124C, symBinAddr: 0x1000A2EA0, symSize: 0x1D8 }
  - { offsetInCU: 0x43E67, offset: 0x43E67, size: 0x8, addend: 0x0, symName: __ZNKSt3__16vectorINS0_I6CDummyNS_9allocatorIS1_EEEENS2_IS4_EEE19__annotate_increaseB7v160006Em, symObjAddr: 0xA1424, symBinAddr: 0x1000A3078, symSize: 0xF8 }
  - { offsetInCU: 0x43E9B, offset: 0x43E9B, size: 0x8, addend: 0x0, symName: __ZNKSt3__16vectorINS0_I6CDummyNS_9allocatorIS1_EEEENS2_IS4_EEE31__annotate_contiguous_containerEPKvS8_S8_S8_, symObjAddr: 0xA151C, symBinAddr: 0x1000A3170, symSize: 0x58 }
  - { offsetInCU: 0x43EFC, offset: 0x43EFC, size: 0x8, addend: 0x0, symName: __ZNKSt3__16vectorINS0_I6CDummyNS_9allocatorIS1_EEEENS2_IS4_EEE4dataB7v160006Ev, symObjAddr: 0xA1574, symBinAddr: 0x1000A31C8, symSize: 0x64 }
  - { offsetInCU: 0x43F21, offset: 0x43F21, size: 0x8, addend: 0x0, symName: __ZNKSt3__16vectorINS0_I6CDummyNS_9allocatorIS1_EEEENS2_IS4_EEE8capacityB7v160006Ev, symObjAddr: 0xA15D8, symBinAddr: 0x1000A322C, symSize: 0xBC }
  - { offsetInCU: 0x43F46, offset: 0x43F46, size: 0x8, addend: 0x0, symName: __ZNKSt3__16vectorINS0_I6CDummyNS_9allocatorIS1_EEEENS2_IS4_EEE9__end_capB7v160006Ev, symObjAddr: 0xA1694, symBinAddr: 0x1000A32E8, symSize: 0x28 }
  - { offsetInCU: 0x43F6B, offset: 0x43F6B, size: 0x8, addend: 0x0, symName: __ZNKSt3__117__compressed_pairIPNS_6vectorI6CDummyNS_9allocatorIS2_EEEENS3_IS5_EEE5firstB7v160006Ev, symObjAddr: 0xA16BC, symBinAddr: 0x1000A3310, symSize: 0x24 }
  - { offsetInCU: 0x43F90, offset: 0x43F90, size: 0x8, addend: 0x0, symName: __ZNKSt3__122__compressed_pair_elemIPNS_6vectorI6CDummyNS_9allocatorIS2_EEEELi0ELb0EE5__getB7v160006Ev, symObjAddr: 0xA16E0, symBinAddr: 0x1000A3334, symSize: 0x14 }
  - { offsetInCU: 0x43FB5, offset: 0x43FB5, size: 0x8, addend: 0x0, symName: __ZNSt3__16vectorI6CDummyNS_9allocatorIS1_EEEC1ERKS4_, symObjAddr: 0xA1730, symBinAddr: 0x1000A3384, symSize: 0x34 }
  - { offsetInCU: 0x43FEF, offset: 0x43FEF, size: 0x8, addend: 0x0, symName: __ZNSt3__16vectorI6CDummyNS_9allocatorIS1_EEEC2ERKS4_, symObjAddr: 0xA1764, symBinAddr: 0x1000A33B8, symSize: 0x538 }
  - { offsetInCU: 0x44054, offset: 0x44054, size: 0x8, addend: 0x0, symName: __ZNSt3__116allocator_traitsINS_9allocatorI6CDummyEEE37select_on_container_copy_constructionB7v160006IS3_vvEES3_RKS3_, symObjAddr: 0xA1C9C, symBinAddr: 0x1000A38F0, symSize: 0x10 }
  - { offsetInCU: 0x44088, offset: 0x44088, size: 0x8, addend: 0x0, symName: __ZNSt3__117__compressed_pairIP6CDummyNS_9allocatorIS1_EEEC1B7v160006IDnS4_EEOT_OT0_, symObjAddr: 0xA1CAC, symBinAddr: 0x1000A3900, symSize: 0x3C }
  - { offsetInCU: 0x440DE, offset: 0x440DE, size: 0x8, addend: 0x0, symName: __ZNSt3__16vectorI6CDummyNS_9allocatorIS1_EEE18__construct_at_endIPS1_Li0EEEvT_S7_m, symObjAddr: 0xA1CE8, symBinAddr: 0x1000A393C, symSize: 0x380 }
  - { offsetInCU: 0x44158, offset: 0x44158, size: 0x8, addend: 0x0, symName: __ZNSt3__117__compressed_pairIP6CDummyNS_9allocatorIS1_EEEC2B7v160006IDnS4_EEOT_OT0_, symObjAddr: 0xA2068, symBinAddr: 0x1000A3CBC, symSize: 0x44 }
  - { offsetInCU: 0x441AF, offset: 0x441AF, size: 0x8, addend: 0x0, symName: __ZNSt3__122__compressed_pair_elemINS_9allocatorI6CDummyEELi1ELb1EEC2B7v160006IS3_vEEOT_, symObjAddr: 0xA20AC, symBinAddr: 0x1000A3D00, symSize: 0x18 }
  - { offsetInCU: 0x441F0, offset: 0x441F0, size: 0x8, addend: 0x0, symName: __ZNSt3__116allocator_traitsINS_9allocatorI6CDummyEEE9constructB7v160006IS2_JRS2_EvvEEvRS3_PT_DpOT0_, symObjAddr: 0xA25E4, symBinAddr: 0x1000A4238, symSize: 0x30 }
  - { offsetInCU: 0x44244, offset: 0x44244, size: 0x8, addend: 0x0, symName: __ZNSt3__117__compressed_pairIPNS_6vectorI6CDummyNS_9allocatorIS2_EEEENS3_IS5_EEE6secondB7v160006Ev, symObjAddr: 0xA2654, symBinAddr: 0x1000A42A8, symSize: 0x24 }
  - { offsetInCU: 0x44269, offset: 0x44269, size: 0x8, addend: 0x0, symName: __ZNSt3__122__compressed_pair_elemINS_9allocatorINS_6vectorI6CDummyNS1_IS3_EEEEEELi1ELb1EE5__getB7v160006Ev, symObjAddr: 0xA2678, symBinAddr: 0x1000A42CC, symSize: 0x14 }
  - { offsetInCU: 0x4428E, offset: 0x4428E, size: 0x8, addend: 0x0, symName: __ZNSt3__16vectorINS0_I6CDummyNS_9allocatorIS1_EEEENS2_IS4_EEE21_ConstructTransactionD2B7v160006Ev, symObjAddr: 0xA268C, symBinAddr: 0x1000A42E0, symSize: 0x278 }
  - { offsetInCU: 0x442B7, offset: 0x442B7, size: 0x8, addend: 0x0, symName: __ZNKSt3__16vectorINS0_I6CDummyNS_9allocatorIS1_EEEENS2_IS4_EEE17__annotate_shrinkB7v160006Em, symObjAddr: 0xA2904, symBinAddr: 0x1000A4558, symSize: 0xE4 }
  - { offsetInCU: 0x442EA, offset: 0x442EA, size: 0x8, addend: 0x0, symName: __ZNKSt3__16vectorINS0_I6CDummyNS_9allocatorIS1_EEEENS2_IS4_EEE11__recommendB7v160006Em, symObjAddr: 0xA29E8, symBinAddr: 0x1000A463C, symSize: 0x384 }
  - { offsetInCU: 0x44345, offset: 0x44345, size: 0x8, addend: 0x0, symName: __ZNSt3__114__split_bufferINS_6vectorI6CDummyNS_9allocatorIS2_EEEERNS3_IS5_EEEC1EmmS7_, symObjAddr: 0xA2D6C, symBinAddr: 0x1000A49C0, symSize: 0x44 }
  - { offsetInCU: 0x4439A, offset: 0x4439A, size: 0x8, addend: 0x0, symName: __ZNSt3__114__split_bufferINS_6vectorI6CDummyNS_9allocatorIS2_EEEERNS3_IS5_EEED1Ev, symObjAddr: 0xA3324, symBinAddr: 0x1000A4F78, symSize: 0x2C }
  - { offsetInCU: 0x443C4, offset: 0x443C4, size: 0x8, addend: 0x0, symName: __ZNKSt3__16vectorINS0_I6CDummyNS_9allocatorIS1_EEEENS2_IS4_EEE8max_sizeEv, symObjAddr: 0xA3350, symBinAddr: 0x1000A4FA4, symSize: 0x2FC }
  - { offsetInCU: 0x443EC, offset: 0x443EC, size: 0x8, addend: 0x0, symName: __ZNKSt3__16vectorINS0_I6CDummyNS_9allocatorIS1_EEEENS2_IS4_EEE20__throw_length_errorB7v160006Ev, symObjAddr: 0xA364C, symBinAddr: 0x1000A52A0, symSize: 0x20 }
  - { offsetInCU: 0x4441B, offset: 0x4441B, size: 0x8, addend: 0x0, symName: __ZNSt3__116allocator_traitsINS_9allocatorINS_6vectorI6CDummyNS1_IS3_EEEEEEE8max_sizeB7v160006IS6_vvEEmRKS6_, symObjAddr: 0xA366C, symBinAddr: 0x1000A52C0, symSize: 0x28 }
  - { offsetInCU: 0x44446, offset: 0x44446, size: 0x8, addend: 0x0, symName: __ZNKSt3__16vectorINS0_I6CDummyNS_9allocatorIS1_EEEENS2_IS4_EEE7__allocB7v160006Ev, symObjAddr: 0xA3694, symBinAddr: 0x1000A52E8, symSize: 0x28 }
  - { offsetInCU: 0x4446B, offset: 0x4446B, size: 0x8, addend: 0x0, symName: __ZNKSt3__117__compressed_pairIPNS_6vectorI6CDummyNS_9allocatorIS2_EEEENS3_IS5_EEE6secondB7v160006Ev, symObjAddr: 0xA36BC, symBinAddr: 0x1000A5310, symSize: 0x24 }
  - { offsetInCU: 0x44490, offset: 0x44490, size: 0x8, addend: 0x0, symName: __ZNKSt3__122__compressed_pair_elemINS_9allocatorINS_6vectorI6CDummyNS1_IS3_EEEEEELi1ELb1EE5__getB7v160006Ev, symObjAddr: 0xA36E0, symBinAddr: 0x1000A5334, symSize: 0x14 }
  - { offsetInCU: 0x444B5, offset: 0x444B5, size: 0x8, addend: 0x0, symName: __ZNSt3__114__split_bufferINS_6vectorI6CDummyNS_9allocatorIS2_EEEERNS3_IS5_EEEC2EmmS7_, symObjAddr: 0xA36F4, symBinAddr: 0x1000A5348, symSize: 0x530 }
  - { offsetInCU: 0x4452F, offset: 0x4452F, size: 0x8, addend: 0x0, symName: __ZNSt3__117__compressed_pairIPNS_6vectorI6CDummyNS_9allocatorIS2_EEEERNS3_IS5_EEEC1B7v160006IDnS8_EEOT_OT0_, symObjAddr: 0xA3C24, symBinAddr: 0x1000A5878, symSize: 0x3C }
  - { offsetInCU: 0x44586, offset: 0x44586, size: 0x8, addend: 0x0, symName: __ZNSt3__114__split_bufferINS_6vectorI6CDummyNS_9allocatorIS2_EEEERNS3_IS5_EEE7__allocB7v160006Ev, symObjAddr: 0xA3EEC, symBinAddr: 0x1000A5B40, symSize: 0x28 }
  - { offsetInCU: 0x445AB, offset: 0x445AB, size: 0x8, addend: 0x0, symName: __ZNSt3__114__split_bufferINS_6vectorI6CDummyNS_9allocatorIS2_EEEERNS3_IS5_EEE9__end_capB7v160006Ev, symObjAddr: 0xA3F14, symBinAddr: 0x1000A5B68, symSize: 0x28 }
  - { offsetInCU: 0x445D0, offset: 0x445D0, size: 0x8, addend: 0x0, symName: __ZNSt3__117__compressed_pairIPNS_6vectorI6CDummyNS_9allocatorIS2_EEEERNS3_IS5_EEEC2B7v160006IDnS8_EEOT_OT0_, symObjAddr: 0xA3F3C, symBinAddr: 0x1000A5B90, symSize: 0x48 }
  - { offsetInCU: 0x44627, offset: 0x44627, size: 0x8, addend: 0x0, symName: __ZNSt3__122__compressed_pair_elemIRNS_9allocatorINS_6vectorI6CDummyNS1_IS3_EEEEEELi1ELb0EEC2B7v160006IS7_vEEOT_, symObjAddr: 0xA3F84, symBinAddr: 0x1000A5BD8, symSize: 0x70 }
  - { offsetInCU: 0x44668, offset: 0x44668, size: 0x8, addend: 0x0, symName: __ZNSt3__19allocatorINS_6vectorI6CDummyNS0_IS2_EEEEE8allocateB7v160006Em, symObjAddr: 0xA3FF4, symBinAddr: 0x1000A5C48, symSize: 0x60 }
  - { offsetInCU: 0x4469B, offset: 0x4469B, size: 0x8, addend: 0x0, symName: __ZNSt3__117__compressed_pairIPNS_6vectorI6CDummyNS_9allocatorIS2_EEEERNS3_IS5_EEE6secondB7v160006Ev, symObjAddr: 0xA4054, symBinAddr: 0x1000A5CA8, symSize: 0x28 }
  - { offsetInCU: 0x446C0, offset: 0x446C0, size: 0x8, addend: 0x0, symName: __ZNSt3__122__compressed_pair_elemIRNS_9allocatorINS_6vectorI6CDummyNS1_IS3_EEEEEELi1ELb0EE5__getB7v160006Ev, symObjAddr: 0xA407C, symBinAddr: 0x1000A5CD0, symSize: 0x60 }
  - { offsetInCU: 0x446E5, offset: 0x446E5, size: 0x8, addend: 0x0, symName: __ZNSt3__117__compressed_pairIPNS_6vectorI6CDummyNS_9allocatorIS2_EEEERNS3_IS5_EEE5firstB7v160006Ev, symObjAddr: 0xA40DC, symBinAddr: 0x1000A5D30, symSize: 0x24 }
  - { offsetInCU: 0x4470A, offset: 0x4470A, size: 0x8, addend: 0x0, symName: __ZNKSt3__16vectorINS0_I6CDummyNS_9allocatorIS1_EEEENS2_IS4_EEE17__annotate_deleteB7v160006Ev, symObjAddr: 0xA4100, symBinAddr: 0x1000A5D54, symSize: 0xE8 }
  - { offsetInCU: 0x4472F, offset: 0x4472F, size: 0x8, addend: 0x0, symName: __ZNSt3__116reverse_iteratorIPNS_6vectorI6CDummyNS_9allocatorIS2_EEEEEC1B7v160006ES6_, symObjAddr: 0xA472C, symBinAddr: 0x1000A6380, symSize: 0x34 }
  - { offsetInCU: 0x44766, offset: 0x44766, size: 0x8, addend: 0x0, symName: __ZNKSt3__116reverse_iteratorIPNS_6vectorI6CDummyNS_9allocatorIS2_EEEEE4baseB7v160006Ev, symObjAddr: 0xA4760, symBinAddr: 0x1000A63B4, symSize: 0x64 }
  - { offsetInCU: 0x4478B, offset: 0x4478B, size: 0x8, addend: 0x0, symName: __ZNKSt3__16vectorINS0_I6CDummyNS_9allocatorIS1_EEEENS2_IS4_EEE14__annotate_newB7v160006Em, symObjAddr: 0xA48F8, symBinAddr: 0x1000A654C, symSize: 0xDC }
  - { offsetInCU: 0x447BF, offset: 0x447BF, size: 0x8, addend: 0x0, symName: __ZNSt3__129_AllocatorDestroyRangeReverseINS_9allocatorINS_6vectorI6CDummyNS1_IS3_EEEEEENS_16reverse_iteratorIPS5_EEEC1B7v160006ERS6_RS9_SC_, symObjAddr: 0xA4BDC, symBinAddr: 0x1000A6830, symSize: 0x44 }
  - { offsetInCU: 0x44815, offset: 0x44815, size: 0x8, addend: 0x0, symName: __ZNSt3__116allocator_traitsINS_9allocatorINS_6vectorI6CDummyNS1_IS3_EEEEEEE9constructB7v160006IS5_JS5_EvvEEvRS6_PT_DpOT0_, symObjAddr: 0xA4C68, symBinAddr: 0x1000A68BC, symSize: 0x30 }
  - { offsetInCU: 0x44869, offset: 0x44869, size: 0x8, addend: 0x0, symName: __ZNKSt3__116reverse_iteratorIPNS_6vectorI6CDummyNS_9allocatorIS2_EEEEEdeB7v160006Ev, symObjAddr: 0xA4CBC, symBinAddr: 0x1000A6910, symSize: 0x74 }
  - { offsetInCU: 0x4489C, offset: 0x4489C, size: 0x8, addend: 0x0, symName: __ZNSt3__116reverse_iteratorIPNS_6vectorI6CDummyNS_9allocatorIS2_EEEEEppB7v160006Ev, symObjAddr: 0xA4D30, symBinAddr: 0x1000A6984, symSize: 0x6C }
  - { offsetInCU: 0x448C1, offset: 0x448C1, size: 0x8, addend: 0x0, symName: __ZNSt3__128__exception_guard_exceptionsINS_29_AllocatorDestroyRangeReverseINS_9allocatorINS_6vectorI6CDummyNS2_IS4_EEEEEENS_16reverse_iteratorIPS6_EEEEE10__completeB7v160006Ev, symObjAddr: 0xA4D9C, symBinAddr: 0x1000A69F0, symSize: 0x8C }
  - { offsetInCU: 0x448E6, offset: 0x448E6, size: 0x8, addend: 0x0, symName: __ZNSt3__128__exception_guard_exceptionsINS_29_AllocatorDestroyRangeReverseINS_9allocatorINS_6vectorI6CDummyNS2_IS4_EEEEEENS_16reverse_iteratorIPS6_EEEEED1B7v160006Ev, symObjAddr: 0xA4E28, symBinAddr: 0x1000A6A7C, symSize: 0x2C }
  - { offsetInCU: 0x4490F, offset: 0x4490F, size: 0x8, addend: 0x0, symName: __ZNSt3__128__exception_guard_exceptionsINS_29_AllocatorDestroyRangeReverseINS_9allocatorINS_6vectorI6CDummyNS2_IS4_EEEEEENS_16reverse_iteratorIPS6_EEEEEC1B7v160006ESB_, symObjAddr: 0xA4E54, symBinAddr: 0x1000A6AA8, symSize: 0x34 }
  - { offsetInCU: 0x44947, offset: 0x44947, size: 0x8, addend: 0x0, symName: __ZNSt3__128__exception_guard_exceptionsINS_29_AllocatorDestroyRangeReverseINS_9allocatorINS_6vectorI6CDummyNS2_IS4_EEEEEENS_16reverse_iteratorIPS6_EEEEEC2B7v160006ESB_, symObjAddr: 0xA4E88, symBinAddr: 0x1000A6ADC, symSize: 0xA4 }
  - { offsetInCU: 0x4497F, offset: 0x4497F, size: 0x8, addend: 0x0, symName: __ZNSt3__129_AllocatorDestroyRangeReverseINS_9allocatorINS_6vectorI6CDummyNS1_IS3_EEEEEENS_16reverse_iteratorIPS5_EEEC2B7v160006ERS6_RS9_SC_, symObjAddr: 0xA4F2C, symBinAddr: 0x1000A6B80, symSize: 0x104 }
  - { offsetInCU: 0x449D5, offset: 0x449D5, size: 0x8, addend: 0x0, symName: __ZNSt3__16vectorI6CDummyNS_9allocatorIS1_EEEC1B7v160006EOS4_, symObjAddr: 0xA506C, symBinAddr: 0x1000A6CC0, symSize: 0x34 }
  - { offsetInCU: 0x44A0F, offset: 0x44A0F, size: 0x8, addend: 0x0, symName: __ZNSt3__16vectorI6CDummyNS_9allocatorIS1_EEEC2B7v160006EOS4_, symObjAddr: 0xA50A0, symBinAddr: 0x1000A6CF4, symSize: 0x50C }
  - { offsetInCU: 0x44A50, offset: 0x44A50, size: 0x8, addend: 0x0, symName: __ZNSt3__119__to_address_helperINS_16reverse_iteratorIPNS_6vectorI6CDummyNS_9allocatorIS3_EEEEEEvE6__callB7v160006ERKS8_, symObjAddr: 0xA55C0, symBinAddr: 0x1000A7214, symSize: 0x44 }
  - { offsetInCU: 0x44A73, offset: 0x44A73, size: 0x8, addend: 0x0, symName: __ZNKSt3__116reverse_iteratorIPNS_6vectorI6CDummyNS_9allocatorIS2_EEEEEptB7v160006Ev, symObjAddr: 0xA5604, symBinAddr: 0x1000A7258, symSize: 0x6C }
  - { offsetInCU: 0x44A98, offset: 0x44A98, size: 0x8, addend: 0x0, symName: __ZNSt3__128__exception_guard_exceptionsINS_29_AllocatorDestroyRangeReverseINS_9allocatorINS_6vectorI6CDummyNS2_IS4_EEEEEENS_16reverse_iteratorIPS6_EEEEED2B7v160006Ev, symObjAddr: 0xA599C, symBinAddr: 0x1000A75F0, symSize: 0xBC }
  - { offsetInCU: 0x44AC1, offset: 0x44AC1, size: 0x8, addend: 0x0, symName: __ZNKSt3__129_AllocatorDestroyRangeReverseINS_9allocatorINS_6vectorI6CDummyNS1_IS3_EEEEEENS_16reverse_iteratorIPS5_EEEclB7v160006Ev, symObjAddr: 0xA5A58, symBinAddr: 0x1000A76AC, symSize: 0x3A8 }
  - { offsetInCU: 0x44AE7, offset: 0x44AE7, size: 0x8, addend: 0x0, symName: __ZNSt3__116reverse_iteratorINS0_IPNS_6vectorI6CDummyNS_9allocatorIS2_EEEEEEEC1B7v160006ES7_, symObjAddr: 0xA5E70, symBinAddr: 0x1000A7AC4, symSize: 0x248 }
  - { offsetInCU: 0x44B23, offset: 0x44B23, size: 0x8, addend: 0x0, symName: __ZNSt3__116allocator_traitsINS_9allocatorINS_6vectorI6CDummyNS1_IS3_EEEEEEE7destroyB7v160006IS5_vvEEvRS6_PT_, symObjAddr: 0xA6384, symBinAddr: 0x1000A7FD8, symSize: 0x28 }
  - { offsetInCU: 0x44B5D, offset: 0x44B5D, size: 0x8, addend: 0x0, symName: __ZNSt3__116reverse_iteratorINS0_IPNS_6vectorI6CDummyNS_9allocatorIS2_EEEEEEEppB7v160006Ev, symObjAddr: 0xA63D0, symBinAddr: 0x1000A8024, symSize: 0x30 }
  - { offsetInCU: 0x44B82, offset: 0x44B82, size: 0x8, addend: 0x0, symName: __ZNKSt3__116reverse_iteratorINS0_IPNS_6vectorI6CDummyNS_9allocatorIS2_EEEEEEE4baseB7v160006Ev, symObjAddr: 0xA6400, symBinAddr: 0x1000A8054, symSize: 0x20C }
  - { offsetInCU: 0x44BAD, offset: 0x44BAD, size: 0x8, addend: 0x0, symName: __ZNSt3__119__to_address_helperINS_16reverse_iteratorINS1_IPNS_6vectorI6CDummyNS_9allocatorIS3_EEEEEEEEvE6__callB7v160006ERKS9_, symObjAddr: 0xA6654, symBinAddr: 0x1000A82A8, symSize: 0x44 }
  - { offsetInCU: 0x44BD0, offset: 0x44BD0, size: 0x8, addend: 0x0, symName: __ZNKSt3__116reverse_iteratorINS0_IPNS_6vectorI6CDummyNS_9allocatorIS2_EEEEEEEptB7v160006Ev, symObjAddr: 0xA6698, symBinAddr: 0x1000A82EC, symSize: 0x2A0 }
  - { offsetInCU: 0x44BF6, offset: 0x44BF6, size: 0x8, addend: 0x0, symName: __ZNSt3__116reverse_iteratorIPNS_6vectorI6CDummyNS_9allocatorIS2_EEEEEpLB7v160006El, symObjAddr: 0xA6C64, symBinAddr: 0x1000A88B8, symSize: 0x84 }
  - { offsetInCU: 0x44C29, offset: 0x44C29, size: 0x8, addend: 0x0, symName: __ZNSt3__116reverse_iteratorIPNS_6vectorI6CDummyNS_9allocatorIS2_EEEEEmmB7v160006Ev, symObjAddr: 0xA6CE8, symBinAddr: 0x1000A893C, symSize: 0x6C }
  - { offsetInCU: 0x44C4E, offset: 0x44C4E, size: 0x8, addend: 0x0, symName: __ZNSt3__116reverse_iteratorINS0_IPNS_6vectorI6CDummyNS_9allocatorIS2_EEEEEEEC2B7v160006ES7_, symObjAddr: 0xA6D54, symBinAddr: 0x1000A89A8, symSize: 0x22C }
  - { offsetInCU: 0x44C8A, offset: 0x44C8A, size: 0x8, addend: 0x0, symName: __ZNSt3__116reverse_iteratorIPNS_6vectorI6CDummyNS_9allocatorIS2_EEEEEC2B7v160006ES6_, symObjAddr: 0xA6F80, symBinAddr: 0x1000A8BD4, symSize: 0xB8 }
  - { offsetInCU: 0x44CC1, offset: 0x44CC1, size: 0x8, addend: 0x0, symName: __ZNSt3__114__split_bufferINS_6vectorI6CDummyNS_9allocatorIS2_EEEERNS3_IS5_EEED2Ev, symObjAddr: 0xA7038, symBinAddr: 0x1000A8C8C, symSize: 0x104 }
  - { offsetInCU: 0x44CEC, offset: 0x44CEC, size: 0x8, addend: 0x0, symName: __ZNSt3__114__split_bufferINS_6vectorI6CDummyNS_9allocatorIS2_EEEERNS3_IS5_EEE5clearB7v160006Ev, symObjAddr: 0xA713C, symBinAddr: 0x1000A8D90, symSize: 0x68 }
  - { offsetInCU: 0x44D11, offset: 0x44D11, size: 0x8, addend: 0x0, symName: __ZNSt3__116allocator_traitsINS_9allocatorINS_6vectorI6CDummyNS1_IS3_EEEEEEE10deallocateB7v160006ERS6_PS5_m, symObjAddr: 0xA71A4, symBinAddr: 0x1000A8DF8, symSize: 0x34 }
  - { offsetInCU: 0x44D53, offset: 0x44D53, size: 0x8, addend: 0x0, symName: __ZNKSt3__114__split_bufferINS_6vectorI6CDummyNS_9allocatorIS2_EEEERNS3_IS5_EEE8capacityB7v160006Ev, symObjAddr: 0xA71D8, symBinAddr: 0x1000A8E2C, symSize: 0xBC }
  - { offsetInCU: 0x44D78, offset: 0x44D78, size: 0x8, addend: 0x0, symName: __ZNSt3__114__split_bufferINS_6vectorI6CDummyNS_9allocatorIS2_EEEERNS3_IS5_EEE17__destruct_at_endB7v160006EPS5_, symObjAddr: 0xA7294, symBinAddr: 0x1000A8EE8, symSize: 0x2C }
  - { offsetInCU: 0x44DAA, offset: 0x44DAA, size: 0x8, addend: 0x0, symName: __ZNSt3__114__split_bufferINS_6vectorI6CDummyNS_9allocatorIS2_EEEERNS3_IS5_EEE17__destruct_at_endB7v160006EPS5_NS_17integral_constantIbLb0EEE, symObjAddr: 0xA72C0, symBinAddr: 0x1000A8F14, symSize: 0x10C }
  - { offsetInCU: 0x44DE9, offset: 0x44DE9, size: 0x8, addend: 0x0, symName: __ZNSt3__19allocatorINS_6vectorI6CDummyNS0_IS2_EEEEE10deallocateB7v160006EPS4_m, symObjAddr: 0xA73CC, symBinAddr: 0x1000A9020, symSize: 0x50 }
  - { offsetInCU: 0x44E2A, offset: 0x44E2A, size: 0x8, addend: 0x0, symName: __ZNKSt3__114__split_bufferINS_6vectorI6CDummyNS_9allocatorIS2_EEEERNS3_IS5_EEE9__end_capB7v160006Ev, symObjAddr: 0xA741C, symBinAddr: 0x1000A9070, symSize: 0x28 }
  - { offsetInCU: 0x44E4F, offset: 0x44E4F, size: 0x8, addend: 0x0, symName: __ZNKSt3__117__compressed_pairIPNS_6vectorI6CDummyNS_9allocatorIS2_EEEERNS3_IS5_EEE5firstB7v160006Ev, symObjAddr: 0xA7444, symBinAddr: 0x1000A9098, symSize: 0x24 }
  - { offsetInCU: 0x44E74, offset: 0x44E74, size: 0x8, addend: 0x0, symName: __ZNSt3__16vectorINS0_I6CDummyNS_9allocatorIS1_EEEENS2_IS4_EEE7__clearB7v160006Ev, symObjAddr: 0xA7468, symBinAddr: 0x1000A90BC, symSize: 0x64 }
  - { offsetInCU: 0x44E99, offset: 0x44E99, size: 0x8, addend: 0x0, symName: __ZNSt3__16vectorINS0_I6CDummyNS_9allocatorIS1_EEEENS2_IS4_EEE22__base_destruct_at_endB7v160006EPS4_, symObjAddr: 0xA74CC, symBinAddr: 0x1000A9120, symSize: 0x114 }
  - { offsetInCU: 0x44EDC, offset: 0x44EDC, size: 0x8, addend: 0x0, symName: __ZNSt3__16vectorINS0_I6CDummyNS_9allocatorIS1_EEEENS2_IS4_EEED2B7v160006Ev, symObjAddr: 0xA75E0, symBinAddr: 0x1000A9234, symSize: 0x1F8 }
  - { offsetInCU: 0x44F06, offset: 0x44F06, size: 0x8, addend: 0x0, symName: __ZNSt3__16vectorINS0_I6CDummyNS_9allocatorIS1_EEEENS2_IS4_EEE16__destroy_vectorC1ERS6_, symObjAddr: 0xA77D8, symBinAddr: 0x1000A942C, symSize: 0x34 }
  - { offsetInCU: 0x44F3E, offset: 0x44F3E, size: 0x8, addend: 0x0, symName: __ZNSt3__16vectorINS0_I6CDummyNS_9allocatorIS1_EEEENS2_IS4_EEE16__destroy_vectorclB7v160006Ev, symObjAddr: 0xA780C, symBinAddr: 0x1000A9460, symSize: 0x264 }
  - { offsetInCU: 0x44F63, offset: 0x44F63, size: 0x8, addend: 0x0, symName: __ZNSt3__16vectorINS0_I6CDummyNS_9allocatorIS1_EEEENS2_IS4_EEE16__destroy_vectorC2ERS6_, symObjAddr: 0xA7A70, symBinAddr: 0x1000A96C4, symSize: 0x70 }
  - { offsetInCU: 0x44F9B, offset: 0x44F9B, size: 0x8, addend: 0x0, symName: __ZNSt3__16vectorINS_4pairINS0_I6CDummyNS_9allocatorIS2_EEEENS0_ImNS3_ImEEEEEENS3_IS8_EEEC1B7v160006Ev, symObjAddr: 0xA7AF0, symBinAddr: 0x1000A9744, symSize: 0x2C }
  - { offsetInCU: 0x44FC3, offset: 0x44FC3, size: 0x8, addend: 0x0, symName: __ZNSt3__16vectorINS_4pairINS0_I6CDummyNS_9allocatorIS2_EEEENS0_ImNS3_ImEEEEEENS3_IS8_EEE5beginB7v160006Ev, symObjAddr: 0xA7B1C, symBinAddr: 0x1000A9770, symSize: 0x268 }
  - { offsetInCU: 0x44FEA, offset: 0x44FEA, size: 0x8, addend: 0x0, symName: __ZNSt3__16vectorINS_4pairINS0_I6CDummyNS_9allocatorIS2_EEEENS0_ImNS3_ImEEEEEENS3_IS8_EEE3endB7v160006Ev, symObjAddr: 0xA7D84, symBinAddr: 0x1000A99D8, symSize: 0x26C }
  - { offsetInCU: 0x45012, offset: 0x45012, size: 0x8, addend: 0x0, symName: __ZNKSt3__111__wrap_iterIPNS_4pairINS_6vectorI6CDummyNS_9allocatorIS3_EEEENS2_ImNS4_ImEEEEEEEdeB7v160006Ev, symObjAddr: 0xA8024, symBinAddr: 0x1000A9C78, symSize: 0x60 }
  - { offsetInCU: 0x45036, offset: 0x45036, size: 0x8, addend: 0x0, symName: __ZNSt3__16vectorI6CDummyNS_9allocatorIS1_EEE5beginB7v160006Ev, symObjAddr: 0xA84D8, symBinAddr: 0x1000AA12C, symSize: 0x268 }
  - { offsetInCU: 0x4505D, offset: 0x4505D, size: 0x8, addend: 0x0, symName: __ZNSt3__16vectorI6CDummyNS_9allocatorIS1_EEE3endB7v160006Ev, symObjAddr: 0xA8740, symBinAddr: 0x1000AA394, symSize: 0x26C }
  - { offsetInCU: 0x45085, offset: 0x45085, size: 0x8, addend: 0x0, symName: __ZNSt3__111__wrap_iterIPNS_4pairINS_6vectorI6CDummyNS_9allocatorIS3_EEEENS2_ImNS4_ImEEEEEEEppB7v160006Ev, symObjAddr: 0xA89AC, symBinAddr: 0x1000AA600, symSize: 0x68 }
  - { offsetInCU: 0x450A9, offset: 0x450A9, size: 0x8, addend: 0x0, symName: __ZNSt3__16vectorINS_4pairINS0_I6CDummyNS_9allocatorIS2_EEEENS0_ImNS3_ImEEEEEENS3_IS8_EEE12emplace_backIJRS5_S7_EEERS8_DpOT_, symObjAddr: 0xA8A14, symBinAddr: 0x1000AA668, symSize: 0xF4 }
  - { offsetInCU: 0x450FE, offset: 0x450FE, size: 0x8, addend: 0x0, symName: __ZNK10CSelfMatchI6CDummyE7combineILm2EEEvRNSt3__16vectorINS3_5arrayImXT_EEENS3_9allocatorIS6_EEEERKNS4_ImNS7_ImEEEERSC_mmm, symObjAddr: 0xA8B50, symBinAddr: 0x1000AA7A4, symSize: 0x39C }
  - { offsetInCU: 0x451C5, offset: 0x451C5, size: 0x8, addend: 0x0, symName: __ZNSt3__16vectorINS_4pairINS0_I6CDummyNS_9allocatorIS2_EEEENS0_ImNS3_ImEEEEEENS3_IS8_EEED1B7v160006Ev, symObjAddr: 0xA8EEC, symBinAddr: 0x1000AAB40, symSize: 0x2C }
  - { offsetInCU: 0x451EE, offset: 0x451EE, size: 0x8, addend: 0x0, symName: __ZNSt3__16vectorINS_4pairINS0_I6CDummyNS_9allocatorIS2_EEEENS0_ImNS3_ImEEEEEENS3_IS8_EEEC2B7v160006Ev, symObjAddr: 0xA8F18, symBinAddr: 0x1000AAB6C, symSize: 0x2F4 }
  - { offsetInCU: 0x45218, offset: 0x45218, size: 0x8, addend: 0x0, symName: __ZNSt3__117__compressed_pairIPNS_4pairINS_6vectorI6CDummyNS_9allocatorIS3_EEEENS2_ImNS4_ImEEEEEENS4_IS9_EEEC1B7v160006IDnNS_18__default_init_tagEEEOT_OT0_, symObjAddr: 0xA920C, symBinAddr: 0x1000AAE60, symSize: 0x3C }
  - { offsetInCU: 0x4526F, offset: 0x4526F, size: 0x8, addend: 0x0, symName: __ZNSt3__117__compressed_pairIPNS_4pairINS_6vectorI6CDummyNS_9allocatorIS3_EEEENS2_ImNS4_ImEEEEEENS4_IS9_EEEC2B7v160006IDnNS_18__default_init_tagEEEOT_OT0_, symObjAddr: 0xA9258, symBinAddr: 0x1000AAEAC, symSize: 0x40 }
  - { offsetInCU: 0x452C6, offset: 0x452C6, size: 0x8, addend: 0x0, symName: __ZNSt3__122__compressed_pair_elemIPNS_4pairINS_6vectorI6CDummyNS_9allocatorIS3_EEEENS2_ImNS4_ImEEEEEELi0ELb0EEC2B7v160006IDnvEEOT_, symObjAddr: 0xA9298, symBinAddr: 0x1000AAEEC, symSize: 0x64 }
  - { offsetInCU: 0x45307, offset: 0x45307, size: 0x8, addend: 0x0, symName: __ZNSt3__122__compressed_pair_elemINS_9allocatorINS_4pairINS_6vectorI6CDummyNS1_IS4_EEEENS3_ImNS1_ImEEEEEEEELi1ELb1EEC2B7v160006ENS_18__default_init_tagE, symObjAddr: 0xA92FC, symBinAddr: 0x1000AAF50, symSize: 0x2C }
  - { offsetInCU: 0x4533A, offset: 0x4533A, size: 0x8, addend: 0x0, symName: __ZNSt3__19allocatorINS_4pairINS_6vectorI6CDummyNS0_IS3_EEEENS2_ImNS0_ImEEEEEEEC2B7v160006Ev, symObjAddr: 0xA9328, symBinAddr: 0x1000AAF7C, symSize: 0x2C }
  - { offsetInCU: 0x45363, offset: 0x45363, size: 0x8, addend: 0x0, symName: __ZNSt3__116__non_trivial_ifILb1ENS_9allocatorINS_4pairINS_6vectorI6CDummyNS1_IS4_EEEENS3_ImNS1_ImEEEEEEEEEC2B7v160006Ev, symObjAddr: 0xA9354, symBinAddr: 0x1000AAFA8, symSize: 0x14 }
  - { offsetInCU: 0x4538C, offset: 0x4538C, size: 0x8, addend: 0x0, symName: __ZNSt3__16vectorINS_4pairINS0_I6CDummyNS_9allocatorIS2_EEEENS0_ImNS3_ImEEEEEENS3_IS8_EEE11__make_iterB7v160006EPS8_, symObjAddr: 0xA9368, symBinAddr: 0x1000AAFBC, symSize: 0x200 }
  - { offsetInCU: 0x453C2, offset: 0x453C2, size: 0x8, addend: 0x0, symName: __ZNSt3__111__wrap_iterIPNS_4pairINS_6vectorI6CDummyNS_9allocatorIS3_EEEENS2_ImNS4_ImEEEEEEEC1B7v160006EPKvSA_, symObjAddr: 0xA9568, symBinAddr: 0x1000AB1BC, symSize: 0x3C }
  - { offsetInCU: 0x45407, offset: 0x45407, size: 0x8, addend: 0x0, symName: __ZNSt3__111__wrap_iterIPNS_4pairINS_6vectorI6CDummyNS_9allocatorIS3_EEEENS2_ImNS4_ImEEEEEEEC2B7v160006EPKvSA_, symObjAddr: 0xA95A4, symBinAddr: 0x1000AB1F8, symSize: 0x74 }
