---
triple:          'arm64-apple-darwin'
binary-path:     a.out
relocations:
  - { offsetInCU: 0x3C, offset: 0x3C, size: 0x8, addend: 0x0, symName: _.str, symObjAddr: 0x4EDE0, symBinAddr: 0x100051760, symSize: 0x0 }
  - { offsetInCU: 0x6D, offset: 0x6D, size: 0x8, addend: 0x0, symName: ___func__.main, symObjAddr: 0x4EE00, symBinAddr: 0x100051780, symSize: 0x0 }
  - { offsetInCU: 0x8B, offset: 0x8B, size: 0x8, addend: 0x0, symName: _.str.1, symObjAddr: 0x4EE20, symBinAddr: 0x1000517A0, symSize: 0x0 }
  - { offsetInCU: 0xA9, offset: 0xA9, size: 0x8, addend: 0x0, symName: _.str.2, symObjAddr: 0x4EE40, symBinAddr: 0x1000517C0, symSize: 0x0 }
  - { offsetInCU: 0xC7, offset: 0xC7, size: 0x8, addend: 0x0, symName: _.str.3, symObjAddr: 0x4EEE0, symBinAddr: 0x100051860, symSize: 0x0 }
  - { offsetInCU: 0xE5, offset: 0xE5, size: 0x8, addend: 0x0, symName: _.str.4, symObjAddr: 0x4EF80, symBinAddr: 0x100051900, symSize: 0x0 }
  - { offsetInCU: 0x103, offset: 0x103, size: 0x8, addend: 0x0, symName: _.str.5, symObjAddr: 0x4EFA0, symBinAddr: 0x100051920, symSize: 0x0 }
  - { offsetInCU: 0x121, offset: 0x121, size: 0x8, addend: 0x0, symName: _.str.6, symObjAddr: 0x4F040, symBinAddr: 0x1000519C0, symSize: 0x0 }
  - { offsetInCU: 0x13F, offset: 0x13F, size: 0x8, addend: 0x0, symName: _.str.7, symObjAddr: 0x4F0E0, symBinAddr: 0x100051A60, symSize: 0x0 }
  - { offsetInCU: 0x151, offset: 0x151, size: 0x8, addend: 0x0, symName: _.str.8, symObjAddr: 0x4F180, symBinAddr: 0x100051B00, symSize: 0x0 }
  - { offsetInCU: 0x163, offset: 0x163, size: 0x8, addend: 0x0, symName: _.str.9, symObjAddr: 0x4F220, symBinAddr: 0x100051BA0, symSize: 0x0 }
  - { offsetInCU: 0x175, offset: 0x175, size: 0x8, addend: 0x0, symName: _.str.10, symObjAddr: 0x4F2C0, symBinAddr: 0x100051C40, symSize: 0x0 }
  - { offsetInCU: 0x187, offset: 0x187, size: 0x8, addend: 0x0, symName: _.str.11, symObjAddr: 0x4F360, symBinAddr: 0x100051CE0, symSize: 0x0 }
  - { offsetInCU: 0x199, offset: 0x199, size: 0x8, addend: 0x0, symName: _.str.12, symObjAddr: 0x4F400, symBinAddr: 0x100051D80, symSize: 0x0 }
  - { offsetInCU: 0x1AB, offset: 0x1AB, size: 0x8, addend: 0x0, symName: _.str.13, symObjAddr: 0x4F4A0, symBinAddr: 0x100051E20, symSize: 0x0 }
  - { offsetInCU: 0x1BD, offset: 0x1BD, size: 0x8, addend: 0x0, symName: _.str.14, symObjAddr: 0x4F540, symBinAddr: 0x100051EC0, symSize: 0x0 }
  - { offsetInCU: 0x1CF, offset: 0x1CF, size: 0x8, addend: 0x0, symName: _.str.15, symObjAddr: 0x4F5E0, symBinAddr: 0x100051F60, symSize: 0x0 }
  - { offsetInCU: 0x1E1, offset: 0x1E1, size: 0x8, addend: 0x0, symName: _.str.16, symObjAddr: 0x4F680, symBinAddr: 0x100052000, symSize: 0x0 }
  - { offsetInCU: 0x1F3, offset: 0x1F3, size: 0x8, addend: 0x0, symName: _.str.17, symObjAddr: 0x4F720, symBinAddr: 0x1000520A0, symSize: 0x0 }
  - { offsetInCU: 0x205, offset: 0x205, size: 0x8, addend: 0x0, symName: _.str.18, symObjAddr: 0x4F7C0, symBinAddr: 0x100052140, symSize: 0x0 }
  - { offsetInCU: 0x217, offset: 0x217, size: 0x8, addend: 0x0, symName: _.str.19, symObjAddr: 0x4F860, symBinAddr: 0x1000521E0, symSize: 0x0 }
  - { offsetInCU: 0x235, offset: 0x235, size: 0x8, addend: 0x0, symName: _.str.20, symObjAddr: 0x4F8A0, symBinAddr: 0x100052220, symSize: 0x0 }
  - { offsetInCU: 0x253, offset: 0x253, size: 0x8, addend: 0x0, symName: _.str.21, symObjAddr: 0x4F920, symBinAddr: 0x1000522A0, symSize: 0x0 }
  - { offsetInCU: 0x271, offset: 0x271, size: 0x8, addend: 0x0, symName: _.str.22, symObjAddr: 0x4F940, symBinAddr: 0x1000522C0, symSize: 0x0 }
  - { offsetInCU: 0x28F, offset: 0x28F, size: 0x8, addend: 0x0, symName: _.str.23, symObjAddr: 0x4F9C0, symBinAddr: 0x100052340, symSize: 0x0 }
  - { offsetInCU: 0x2AD, offset: 0x2AD, size: 0x8, addend: 0x0, symName: _.str.24, symObjAddr: 0x4F9E0, symBinAddr: 0x100052360, symSize: 0x0 }
  - { offsetInCU: 0x2CB, offset: 0x2CB, size: 0x8, addend: 0x0, symName: _.str.25, symObjAddr: 0x4FA60, symBinAddr: 0x1000523E0, symSize: 0x0 }
  - { offsetInCU: 0x2DD, offset: 0x2DD, size: 0x8, addend: 0x0, symName: _.str.26, symObjAddr: 0x4FAA0, symBinAddr: 0x100052420, symSize: 0x0 }
  - { offsetInCU: 0x2EF, offset: 0x2EF, size: 0x8, addend: 0x0, symName: _.str.27, symObjAddr: 0x4FB20, symBinAddr: 0x1000524A0, symSize: 0x0 }
  - { offsetInCU: 0x30D, offset: 0x30D, size: 0x8, addend: 0x0, symName: _.str.28, symObjAddr: 0x4FBA0, symBinAddr: 0x100052520, symSize: 0x0 }
  - { offsetInCU: 0x31F, offset: 0x31F, size: 0x8, addend: 0x0, symName: _.str.29, symObjAddr: 0x4FC20, symBinAddr: 0x1000525A0, symSize: 0x0 }
  - { offsetInCU: 0x331, offset: 0x331, size: 0x8, addend: 0x0, symName: _.str.30, symObjAddr: 0x4FCA0, symBinAddr: 0x100052620, symSize: 0x0 }
  - { offsetInCU: 0x343, offset: 0x343, size: 0x8, addend: 0x0, symName: _.str.31, symObjAddr: 0x4FD20, symBinAddr: 0x1000526A0, symSize: 0x0 }
  - { offsetInCU: 0x355, offset: 0x355, size: 0x8, addend: 0x0, symName: _.str.32, symObjAddr: 0x4FDA0, symBinAddr: 0x100052720, symSize: 0x0 }
  - { offsetInCU: 0x367, offset: 0x367, size: 0x8, addend: 0x0, symName: _.str.33, symObjAddr: 0x4FDC0, symBinAddr: 0x100052740, symSize: 0x0 }
  - { offsetInCU: 0x379, offset: 0x379, size: 0x8, addend: 0x0, symName: _.str.34, symObjAddr: 0x4FE40, symBinAddr: 0x1000527C0, symSize: 0x0 }
  - { offsetInCU: 0x398, offset: 0x398, size: 0x8, addend: 0x0, symName: _.str.35, symObjAddr: 0x50140, symBinAddr: 0x100052AC0, symSize: 0x0 }
  - { offsetInCU: 0x3B7, offset: 0x3B7, size: 0x8, addend: 0x0, symName: _.str.36, symObjAddr: 0x50480, symBinAddr: 0x100052E00, symSize: 0x0 }
  - { offsetInCU: 0x3D5, offset: 0x3D5, size: 0x8, addend: 0x0, symName: _.str.37, symObjAddr: 0x504A0, symBinAddr: 0x100052E20, symSize: 0x0 }
  - { offsetInCU: 0x3F3, offset: 0x3F3, size: 0x8, addend: 0x0, symName: _.str.38, symObjAddr: 0x50540, symBinAddr: 0x100052EC0, symSize: 0x0 }
  - { offsetInCU: 0x405, offset: 0x405, size: 0x8, addend: 0x0, symName: _.str.39, symObjAddr: 0x50560, symBinAddr: 0x100052EE0, symSize: 0x0 }
  - { offsetInCU: 0x423, offset: 0x423, size: 0x8, addend: 0x0, symName: _.str.40, symObjAddr: 0x50600, symBinAddr: 0x100052F80, symSize: 0x0 }
  - { offsetInCU: 0x435, offset: 0x435, size: 0x8, addend: 0x0, symName: _.str.41, symObjAddr: 0x50620, symBinAddr: 0x100052FA0, symSize: 0x0 }
  - { offsetInCU: 0x453, offset: 0x453, size: 0x8, addend: 0x0, symName: _.str.42, symObjAddr: 0x506A0, symBinAddr: 0x100053020, symSize: 0x0 }
  - { offsetInCU: 0x465, offset: 0x465, size: 0x8, addend: 0x0, symName: _.str.43, symObjAddr: 0x506C0, symBinAddr: 0x100053040, symSize: 0x0 }
  - { offsetInCU: 0x483, offset: 0x483, size: 0x8, addend: 0x0, symName: _.str.44, symObjAddr: 0x50760, symBinAddr: 0x1000530E0, symSize: 0x0 }
  - { offsetInCU: 0x4A1, offset: 0x4A1, size: 0x8, addend: 0x0, symName: _.str.45, symObjAddr: 0x50780, symBinAddr: 0x100053100, symSize: 0x0 }
  - { offsetInCU: 0x4BF, offset: 0x4BF, size: 0x8, addend: 0x0, symName: _.str.46, symObjAddr: 0x50800, symBinAddr: 0x100053180, symSize: 0x0 }
  - { offsetInCU: 0x4D1, offset: 0x4D1, size: 0x8, addend: 0x0, symName: _.str.47, symObjAddr: 0x50820, symBinAddr: 0x1000531A0, symSize: 0x0 }
  - { offsetInCU: 0x4EF, offset: 0x4EF, size: 0x8, addend: 0x0, symName: _.str.48, symObjAddr: 0x50880, symBinAddr: 0x100053200, symSize: 0x0 }
  - { offsetInCU: 0x50D, offset: 0x50D, size: 0x8, addend: 0x0, symName: _.str.49, symObjAddr: 0x508C0, symBinAddr: 0x100053240, symSize: 0x0 }
  - { offsetInCU: 0x52B, offset: 0x52B, size: 0x8, addend: 0x0, symName: _.str.50, symObjAddr: 0x50960, symBinAddr: 0x1000532E0, symSize: 0x0 }
  - { offsetInCU: 0x53D, offset: 0x53D, size: 0x8, addend: 0x0, symName: _.str.51, symObjAddr: 0x509E0, symBinAddr: 0x100053360, symSize: 0x0 }
  - { offsetInCU: 0x54F, offset: 0x54F, size: 0x8, addend: 0x0, symName: _.str.52, symObjAddr: 0x50A60, symBinAddr: 0x1000533E0, symSize: 0x0 }
  - { offsetInCU: 0x574, offset: 0x574, size: 0x8, addend: 0x0, symName: __ZNSt3__115strong_ordering5equalE, symObjAddr: 0x50A80, symBinAddr: 0x100053400, symSize: 0x0 }
  - { offsetInCU: 0x4DC4, offset: 0x4DC4, size: 0x8, addend: 0x0, symName: __ZNSt3__17advanceB7v160006IPNS_12basic_stringIcNS_11char_traitsIcEENS_9allocatorIcEEEEllvEEvRT_T0_, symObjAddr: 0x18738, symBinAddr: 0x10001AA6C, symSize: 0x50 }
  - { offsetInCU: 0x5044, offset: 0x5044, size: 0x8, addend: 0x0, symName: __ZNSt3__17advanceB7v160006INS_16reverse_iteratorIPNS_12basic_stringIcNS_11char_traitsIcEENS_9allocatorIcEEEEEEllvEEvRT_T0_, symObjAddr: 0x19A68, symBinAddr: 0x10001BD9C, symSize: 0x50 }
  - { offsetInCU: 0x50AF, offset: 0x50AF, size: 0x8, addend: 0x0, symName: __ZNSt3__111__introsortINS_17_ClassicAlgPolicyERNS_6__lessINS_12basic_stringIcNS_11char_traitsIcEENS_9allocatorIcEEEES8_EEPS8_EEvT1_SC_T0_NS_15iterator_traitsISC_E15difference_typeE, symObjAddr: 0x1B394, symBinAddr: 0x10001D6C8, symSize: 0x1EA0 }
  - { offsetInCU: 0x5220, offset: 0x5220, size: 0x8, addend: 0x0, symName: __ZNSt3__118__insertion_sort_3B7v160006INS_17_ClassicAlgPolicyERNS_6__lessINS_12basic_stringIcNS_11char_traitsIcEENS_9allocatorIcEEEES8_EEPS8_EEvT1_SC_T0_, symObjAddr: 0x1D690, symBinAddr: 0x10001F9C4, symSize: 0x6A0 }
  - { offsetInCU: 0x52F4, offset: 0x52F4, size: 0x8, addend: 0x0, symName: __ZNSt3__111__sift_downB7v160006INS_17_ClassicAlgPolicyERNS_6__lessINS_12basic_stringIcNS_11char_traitsIcEENS_9allocatorIcEEEES8_EEPS8_EEvT1_OT0_NS_15iterator_traitsISC_E15difference_typeESC_, symObjAddr: 0x216D0, symBinAddr: 0x100023A04, symSize: 0x8A8 }
  - { offsetInCU: 0x53B1, offset: 0x53B1, size: 0x8, addend: 0x0, symName: __ZNSt3__117__floyd_sift_downB7v160006INS_17_ClassicAlgPolicyERNS_6__lessINS_12basic_stringIcNS_11char_traitsIcEENS_9allocatorIcEEEES8_EEPS8_EET1_SC_OT0_NS_15iterator_traitsISC_E15difference_typeE, symObjAddr: 0x22584, symBinAddr: 0x1000248B8, symSize: 0x3D4 }
  - { offsetInCU: 0x5452, offset: 0x5452, size: 0x8, addend: 0x0, symName: __ZNSt3__127__insertion_sort_incompleteIRNS_6__lessINS_12basic_stringIcNS_11char_traitsIcEENS_9allocatorIcEEEES7_EEPS7_EEbT0_SB_T_, symObjAddr: 0x1E484, symBinAddr: 0x1000207B8, symSize: 0xD30 }
  - { offsetInCU: 0x7042, offset: 0x7042, size: 0x8, addend: 0x0, symName: __ZNSt3__17advanceB7v160006IP8CStudentllvEEvRT_T0_, symObjAddr: 0x2995C, symBinAddr: 0x10002BC90, symSize: 0x50 }
  - { offsetInCU: 0x72C2, offset: 0x72C2, size: 0x8, addend: 0x0, symName: __ZNSt3__17advanceB7v160006INS_16reverse_iteratorIP8CStudentEEllvEEvRT_T0_, symObjAddr: 0x2AC78, symBinAddr: 0x10002CFAC, symSize: 0x50 }
  - { offsetInCU: 0x742A, offset: 0x742A, size: 0x8, addend: 0x0, symName: __ZNSt3__111__introsortINS_17_ClassicAlgPolicyER5CSortP8CStudentEEvT1_S6_T0_NS_15iterator_traitsIS6_E15difference_typeE, symObjAddr: 0x2C48C, symBinAddr: 0x10002E7C0, symSize: 0x1EA0 }
  - { offsetInCU: 0x759B, offset: 0x759B, size: 0x8, addend: 0x0, symName: __ZNSt3__118__insertion_sort_3B7v160006INS_17_ClassicAlgPolicyER5CSortP8CStudentEEvT1_S6_T0_, symObjAddr: 0x2EEEC, symBinAddr: 0x100031220, symSize: 0x6A0 }
  - { offsetInCU: 0x766F, offset: 0x766F, size: 0x8, addend: 0x0, symName: __ZNSt3__111__sift_downB7v160006INS_17_ClassicAlgPolicyER5CSortP8CStudentEEvT1_OT0_NS_15iterator_traitsIS6_E15difference_typeES6_, symObjAddr: 0x32DF0, symBinAddr: 0x100035124, symSize: 0x8A8 }
  - { offsetInCU: 0x772C, offset: 0x772C, size: 0x8, addend: 0x0, symName: __ZNSt3__117__floyd_sift_downB7v160006INS_17_ClassicAlgPolicyER5CSortP8CStudentEET1_S6_OT0_NS_15iterator_traitsIS6_E15difference_typeE, symObjAddr: 0x33CBC, symBinAddr: 0x100035FF0, symSize: 0x3D4 }
  - { offsetInCU: 0x77CD, offset: 0x77CD, size: 0x8, addend: 0x0, symName: __ZNSt3__127__insertion_sort_incompleteIR5CSortP8CStudentEEbT0_S5_T_, symObjAddr: 0x2FCE0, symBinAddr: 0x100032014, symSize: 0xD4C }
  - { offsetInCU: 0x9682, offset: 0x9682, size: 0x8, addend: 0x0, symName: __ZNSt3__17advanceB7v160006IPNS_4pairI8ESortKeybEEllvEEvRT_T0_, symObjAddr: 0x39254, symBinAddr: 0x10003B588, symSize: 0x50 }
  - { offsetInCU: 0x9A44, offset: 0x9A44, size: 0x8, addend: 0x0, symName: __ZNSt3__17advanceB7v160006INS_16reverse_iteratorIPNS_4pairI8ESortKeybEEEEllvEEvRT_T0_, symObjAddr: 0x3FFC0, symBinAddr: 0x1000422F4, symSize: 0x50 }
  - { offsetInCU: 0xB446, offset: 0xB446, size: 0x8, addend: 0x0, symName: __ZNSt3__17advanceB7v160006INS_21__tree_const_iteratorINS_12basic_stringIcNS_11char_traitsIcEENS_9allocatorIcEEEEPNS_11__tree_nodeIS7_PvEElEEllvEEvRT_T0_, symObjAddr: 0x47018, symBinAddr: 0x10004934C, symSize: 0x50 }
  - { offsetInCU: 0xF4A7, offset: 0xF4A7, size: 0x8, addend: 0x0, symName: __ZNSt3__1eqB7v160006I8CStudentNS_9allocatorIS1_EEEEbRKNS_4listIT_T0_EES9_, symObjAddr: 0x8E34, symBinAddr: 0x10000B168, symSize: 0x3F8 }
  - { offsetInCU: 0xF4F8, offset: 0xF4F8, size: 0x8, addend: 0x0, symName: __ZNSt3__1eqB7v160006INS_12basic_stringIcNS_11char_traitsIcEENS_9allocatorIcEEEENS_4lessIS6_EENS4_IS6_EEEEbRKNS_3setIT_T0_T1_EESG_, symObjAddr: 0xA3D0, symBinAddr: 0x10000C704, symSize: 0x3F8 }
  - { offsetInCU: 0xF552, offset: 0xF552, size: 0x8, addend: 0x0, symName: __ZNSt3__119__debug_db_insert_cB7v160006INS_12basic_stringIcNS_11char_traitsIcEENS_9allocatorIcEEEEEEvPT_, symObjAddr: 0xB7E8, symBinAddr: 0x10000DB1C, symSize: 0x10 }
  - { offsetInCU: 0xF583, offset: 0xF583, size: 0x8, addend: 0x0, symName: __ZNSt3__118__constexpr_strlenB7v160006EPKc, symObjAddr: 0xB8B4, symBinAddr: 0x10000DBE8, symSize: 0x24 }
  - { offsetInCU: 0xF5AF, offset: 0xF5AF, size: 0x8, addend: 0x0, symName: __ZNSt3__1eqB7v160006INS_9allocatorIcEEEEbRKNS_12basic_stringIcNS_11char_traitsIcEET_EES9_, symObjAddr: 0xBB2C, symBinAddr: 0x10000DE60, symSize: 0x234 }
  - { offsetInCU: 0xF622, offset: 0xF622, size: 0x8, addend: 0x0, symName: __ZNSt3__112__to_addressB7v160006IKcEEPT_S3_, symObjAddr: 0xC338, symBinAddr: 0x10000E66C, symSize: 0x14 }
  - { offsetInCU: 0xF68A, offset: 0xF68A, size: 0x8, addend: 0x0, symName: __ZNSt3__118__constexpr_memcmpB7v160006IcEEiPKT_S3_m, symObjAddr: 0xC448, symBinAddr: 0x10000E77C, symSize: 0x34 }
  - { offsetInCU: 0xF6F9, offset: 0xF6F9, size: 0x8, addend: 0x0, symName: __ZNSt3__117__libcpp_allocateB7v160006Emm, symObjAddr: 0xD054, symBinAddr: 0x10000F388, symSize: 0x60 }
  - { offsetInCU: 0xF93F, offset: 0xF93F, size: 0x8, addend: 0x0, symName: __ZNSt3__124__is_overaligned_for_newB7v160006Em, symObjAddr: 0xD0D0, symBinAddr: 0x10000F404, symSize: 0x20 }
  - { offsetInCU: 0xF96D, offset: 0xF96D, size: 0x8, addend: 0x0, symName: __ZNSt3__121__libcpp_operator_newB7v160006IJmSt11align_val_tEEEPvDpT_, symObjAddr: 0xD0F0, symBinAddr: 0x10000F424, symSize: 0x2C }
  - { offsetInCU: 0xF9BA, offset: 0xF9BA, size: 0x8, addend: 0x0, symName: __ZNSt3__121__libcpp_operator_newB7v160006IJmEEEPvDpT_, symObjAddr: 0xD11C, symBinAddr: 0x10000F450, symSize: 0x24 }
  - { offsetInCU: 0xFA18, offset: 0xFA18, size: 0x8, addend: 0x0, symName: __ZNSt3__112construct_atB7v160006I8CStudentJRKS1_EPS1_EEPT_S6_DpOT0_, symObjAddr: 0xD584, symBinAddr: 0x10000F8B8, symSize: 0x3C }
  - { offsetInCU: 0xFABB, offset: 0xFABB, size: 0x8, addend: 0x0, symName: __ZNSt3__119__libcpp_deallocateB7v160006EPvmm, symObjAddr: 0xDA18, symBinAddr: 0x10000FD4C, symSize: 0x60 }
  - { offsetInCU: 0xFB20, offset: 0xFB20, size: 0x8, addend: 0x0, symName: __ZNSt3__127__do_deallocate_handle_sizeB7v160006IJSt11align_val_tEEEvPvmDpT_, symObjAddr: 0xDA78, symBinAddr: 0x10000FDAC, symSize: 0x30 }
  - { offsetInCU: 0xFB73, offset: 0xFB73, size: 0x8, addend: 0x0, symName: __ZNSt3__127__do_deallocate_handle_sizeB7v160006IJEEEvPvmDpT_, symObjAddr: 0xDAA8, symBinAddr: 0x10000FDDC, symSize: 0x28 }
  - { offsetInCU: 0xFBB1, offset: 0xFBB1, size: 0x8, addend: 0x0, symName: __ZNSt3__124__libcpp_operator_deleteB7v160006IJPvSt11align_val_tEEEvDpT_, symObjAddr: 0xDAD0, symBinAddr: 0x10000FE04, symSize: 0x2C }
  - { offsetInCU: 0xFBFA, offset: 0xFBFA, size: 0x8, addend: 0x0, symName: __ZNSt3__124__libcpp_operator_deleteB7v160006IJPvEEEvDpT_, symObjAddr: 0xDAFC, symBinAddr: 0x10000FE30, symSize: 0x24 }
  - { offsetInCU: 0xFC2F, offset: 0xFC2F, size: 0x8, addend: 0x0, symName: __ZNSt3__17copy_ifB7v160006INS_21__list_const_iteratorI8CStudentPvEENS_20back_insert_iteratorINS_6vectorIS2_NS_9allocatorIS2_EEEEEEZNK10CStudyDept6searchERK7CFilterRK5CSortEUlRKS2_E_EET0_T_SM_SL_T1_, symObjAddr: 0xDB74, symBinAddr: 0x10000FEA8, symSize: 0x408 }
  - { offsetInCU: 0xFCB2, offset: 0xFCB2, size: 0x8, addend: 0x0, symName: __ZNSt3__113back_inserterB7v160006INS_6vectorI8CStudentNS_9allocatorIS2_EEEEEENS_20back_insert_iteratorIT_EERS7_, symObjAddr: 0xE3E4, symBinAddr: 0x100010718, symSize: 0x1F8 }
  - { offsetInCU: 0xFCE8, offset: 0xFCE8, size: 0x8, addend: 0x0, symName: __ZNSt3__17copy_ifB7v160006INS_21__list_const_iteratorI8CStudentPvEENS_20back_insert_iteratorINS_6vectorIS2_NS_9allocatorIS2_EEEEEEZNK10CStudyDept6searchERK7CFilterRK5CSortEUlRKS2_E0_EET0_T_SM_SL_T1_, symObjAddr: 0xE5DC, symBinAddr: 0x100010910, symSize: 0x408 }
  - { offsetInCU: 0xFD6B, offset: 0xFD6B, size: 0x8, addend: 0x0, symName: __ZNSt3__14sortB7v160006INS_11__wrap_iterIP8CStudentEE5CSortEEvT_S6_T0_, symObjAddr: 0xE9E4, symBinAddr: 0x100010D18, symSize: 0x358 }
  - { offsetInCU: 0xFDEB, offset: 0xFDEB, size: 0x8, addend: 0x0, symName: __ZNSt3__119__debug_db_insert_cB7v160006INS_6vectorI8CStudentNS_9allocatorIS2_EEEEEEvPT_, symObjAddr: 0xF8B4, symBinAddr: 0x100011BE8, symSize: 0x10 }
  - { offsetInCU: 0xFE1C, offset: 0xFE1C, size: 0x8, addend: 0x0, symName: __ZNSt3__1neB7v160006ERKNS_21__list_const_iteratorI8CStudentPvEES5_, symObjAddr: 0xFA84, symBinAddr: 0x100011DB8, symSize: 0x34 }
  - { offsetInCU: 0xFE59, offset: 0xFE59, size: 0x8, addend: 0x0, symName: __ZNSt3__1eqB7v160006ERKNS_21__list_const_iteratorI8CStudentPvEES5_, symObjAddr: 0xFD08, symBinAddr: 0x10001203C, symSize: 0xB8 }
  - { offsetInCU: 0xFE96, offset: 0xFE96, size: 0x8, addend: 0x0, symName: __ZNSt3__1ltB7v160006ENS_15strong_orderingENS_20_CmpUnspecifiedParamE, symObjAddr: 0x10AB8, symBinAddr: 0x100012DEC, symSize: 0x274 }
  - { offsetInCU: 0xFEF0, offset: 0xFEF0, size: 0x8, addend: 0x0, symName: __ZNSt3__1gtB7v160006ENS_15strong_orderingENS_20_CmpUnspecifiedParamE, symObjAddr: 0x11760, symBinAddr: 0x100013A94, symSize: 0x274 }
  - { offsetInCU: 0xFF2E, offset: 0xFF2E, size: 0x8, addend: 0x0, symName: __ZNSt3__14sortB7v160006INS_11__wrap_iterIPNS_12basic_stringIcNS_11char_traitsIcEENS_9allocatorIcEEEEEEEEvT_SA_, symObjAddr: 0x120EC, symBinAddr: 0x100014420, symSize: 0x348 }
  - { offsetInCU: 0xFF78, offset: 0xFF78, size: 0x8, addend: 0x0, symName: __ZNSt3__1eqB7v160006INS_12basic_stringIcNS_11char_traitsIcEENS_9allocatorIcEEEENS4_IS6_EEEEbRKNS_6vectorIT_T0_EESD_, symObjAddr: 0x12908, symBinAddr: 0x100014C3C, symSize: 0x3FC }
  - { offsetInCU: 0xFFD9, offset: 0xFFD9, size: 0x8, addend: 0x0, symName: __ZNSt3__1neB7v160006IPKcEEbRKNS_11__wrap_iterIT_EES7_, symObjAddr: 0x1323C, symBinAddr: 0x100015570, symSize: 0x34 }
  - { offsetInCU: 0x1001C, offset: 0x1001C, size: 0x8, addend: 0x0, symName: __ZNSt3__119__debug_db_insert_cB7v160006INS_6vectorINS_12basic_stringIcNS_11char_traitsIcEENS_9allocatorIcEEEENS5_IS7_EEEEEEvPT_, symObjAddr: 0x13B20, symBinAddr: 0x100015E54, symSize: 0x10 }
  - { offsetInCU: 0x1004D, offset: 0x1004D, size: 0x8, addend: 0x0, symName: __ZNSt3__1eqB7v160006IPKcEEbRKNS_11__wrap_iterIT_EES7_, symObjAddr: 0x14368, symBinAddr: 0x10001669C, symSize: 0x48 }
  - { offsetInCU: 0x10090, offset: 0x10090, size: 0x8, addend: 0x0, symName: __ZNSt3__112__to_addressB7v160006INS_12basic_stringIcNS_11char_traitsIcEENS_9allocatorIcEEEEEEPT_S8_, symObjAddr: 0x14D50, symBinAddr: 0x100017084, symSize: 0x14 }
  - { offsetInCU: 0x100EA, offset: 0x100EA, size: 0x8, addend: 0x0, symName: __ZNSt3__112construct_atB7v160006INS_12basic_stringIcNS_11char_traitsIcEENS_9allocatorIcEEEEJRKS6_EPS6_EEPT_SB_DpOT0_, symObjAddr: 0x152E8, symBinAddr: 0x10001761C, symSize: 0x3C }
  - { offsetInCU: 0x1015A, offset: 0x1015A, size: 0x8, addend: 0x0, symName: __ZNSt3__13maxB7v160006ImEERKT_S3_S3_, symObjAddr: 0x1633C, symBinAddr: 0x100018670, symSize: 0x2C }
  - { offsetInCU: 0x1019D, offset: 0x1019D, size: 0x8, addend: 0x0, symName: __ZNSt3__13minB7v160006ImEERKT_S3_S3_, symObjAddr: 0x16368, symBinAddr: 0x10001869C, symSize: 0x2C }
  - { offsetInCU: 0x103CA, offset: 0x103CA, size: 0x8, addend: 0x0, symName: __ZNSt3__13minB7v160006ImNS_6__lessImmEEEERKT_S5_S5_T0_, symObjAddr: 0x163F8, symBinAddr: 0x10001872C, symSize: 0x1E8 }
  - { offsetInCU: 0x10465, offset: 0x10465, size: 0x8, addend: 0x0, symName: __ZNSt3__120__throw_length_errorB7v160006EPKc, symObjAddr: 0x166DC, symBinAddr: 0x100018A10, symSize: 0x68 }
  - { offsetInCU: 0x1048D, offset: 0x1048D, size: 0x8, addend: 0x0, symName: __ZNSt3__13maxB7v160006ImNS_6__lessImmEEEERKT_S5_S5_T0_, symObjAddr: 0x16804, symBinAddr: 0x100018B38, symSize: 0x1E8 }
  - { offsetInCU: 0x104ED, offset: 0x104ED, size: 0x8, addend: 0x0, symName: __ZNSt3__119__allocate_at_leastB7v160006INS_9allocatorINS_12basic_stringIcNS_11char_traitsIcEENS1_IcEEEEEEEENS_19__allocation_resultINS_16allocator_traitsIT_E7pointerEEERSA_m, symObjAddr: 0x16F58, symBinAddr: 0x10001928C, symSize: 0x28C }
  - { offsetInCU: 0x10532, offset: 0x10532, size: 0x8, addend: 0x0, symName: __ZNSt3__142__uninitialized_allocator_move_if_noexceptB7v160006INS_9allocatorINS_12basic_stringIcNS_11char_traitsIcEENS1_IcEEEEEENS_16reverse_iteratorIPS6_EESA_SA_EET2_RT_T0_T1_SB_, symObjAddr: 0x174E0, symBinAddr: 0x100019814, symSize: 0x544 }
  - { offsetInCU: 0x105E7, offset: 0x105E7, size: 0x8, addend: 0x0, symName: __ZNSt3__14swapB7v160006IPNS_12basic_stringIcNS_11char_traitsIcEENS_9allocatorIcEEEEEENS_9enable_ifIXaasr21is_move_constructibleIT_EE5valuesr18is_move_assignableIS9_EE5valueEvE4typeERS9_SC_, symObjAddr: 0x17ABC, symBinAddr: 0x100019DF0, symSize: 0x134 }
  - { offsetInCU: 0x10638, offset: 0x10638, size: 0x8, addend: 0x0, symName: __ZNSt3__125__debug_db_invalidate_allB7v160006INS_6vectorINS_12basic_stringIcNS_11char_traitsIcEENS_9allocatorIcEEEENS5_IS7_EEEEEEvPT_, symObjAddr: 0x17CCC, symBinAddr: 0x10001A000, symSize: 0x10 }
  - { offsetInCU: 0x10669, offset: 0x10669, size: 0x8, addend: 0x0, symName: __ZNSt3__122__make_exception_guardB7v160006INS_29_AllocatorDestroyRangeReverseINS_9allocatorINS_12basic_stringIcNS_11char_traitsIcEENS2_IcEEEEEENS_16reverse_iteratorIPS7_EEEEEENS_28__exception_guard_exceptionsIT_EESE_, symObjAddr: 0x17CDC, symBinAddr: 0x10001A010, symSize: 0x1F8 }
  - { offsetInCU: 0x106A0, offset: 0x106A0, size: 0x8, addend: 0x0, symName: __ZNSt3__1neB7v160006IPNS_12basic_stringIcNS_11char_traitsIcEENS_9allocatorIcEEEES7_EEbRKNS_16reverse_iteratorIT_EERKNS8_IT0_EE, symObjAddr: 0x17F18, symBinAddr: 0x10001A24C, symSize: 0x48 }
  - { offsetInCU: 0x106EC, offset: 0x106EC, size: 0x8, addend: 0x0, symName: __ZNSt3__112__to_addressB7v160006INS_16reverse_iteratorIPNS_12basic_stringIcNS_11char_traitsIcEENS_9allocatorIcEEEEEEvEENS_5decayIDTclsr19__to_address_helperIT_EE6__callclsr3stdE7declvalIRKSB_EEEEE4typeESD_, symObjAddr: 0x17F90, symBinAddr: 0x10001A2C4, symSize: 0x24 }
  - { offsetInCU: 0x10722, offset: 0x10722, size: 0x8, addend: 0x0, symName: __ZNSt3__112construct_atB7v160006INS_12basic_stringIcNS_11char_traitsIcEENS_9allocatorIcEEEEJS6_EPS6_EEPT_S9_DpOT0_, symObjAddr: 0x18328, symBinAddr: 0x10001A65C, symSize: 0x3C }
  - { offsetInCU: 0x10792, offset: 0x10792, size: 0x8, addend: 0x0, symName: __ZNSt3__115__debug_db_swapB7v160006INS_12basic_stringIcNS_11char_traitsIcEENS_9allocatorIcEEEEEEvPT_S8_, symObjAddr: 0x18418, symBinAddr: 0x10001A74C, symSize: 0x14 }
  - { offsetInCU: 0x107FA, offset: 0x107FA, size: 0x8, addend: 0x0, symName: __ZNSt3__14prevB7v160006IPNS_12basic_stringIcNS_11char_traitsIcEENS_9allocatorIcEEEEEENS_9enable_ifIXsr25__is_cpp17_input_iteratorIT_EE5valueES9_E4typeES9_NS_15iterator_traitsIS9_E15difference_typeE, symObjAddr: 0x184DC, symBinAddr: 0x10001A810, symSize: 0x25C }
  - { offsetInCU: 0x10842, offset: 0x10842, size: 0x8, addend: 0x0, symName: __ZNSt3__121__convert_to_integralB7v160006El, symObjAddr: 0x18788, symBinAddr: 0x10001AABC, symSize: 0x14 }
  - { offsetInCU: 0x1086E, offset: 0x1086E, size: 0x8, addend: 0x0, symName: __ZNSt3__19__advanceB7v160006IPNS_12basic_stringIcNS_11char_traitsIcEENS_9allocatorIcEEEEEEvRT_NS_15iterator_traitsIS8_E15difference_typeENS_26random_access_iterator_tagE, symObjAddr: 0x1879C, symBinAddr: 0x10001AAD0, symSize: 0x80 }
  - { offsetInCU: 0x108B7, offset: 0x108B7, size: 0x8, addend: 0x0, symName: __ZNSt3__119__allocator_destroyB7v160006INS_9allocatorINS_12basic_stringIcNS_11char_traitsIcEENS1_IcEEEEEENS_16reverse_iteratorINS8_IPS6_EEEESB_EEvRT_T0_T1_, symObjAddr: 0x18C80, symBinAddr: 0x10001AFB4, symSize: 0x70 }
  - { offsetInCU: 0x1091C, offset: 0x1091C, size: 0x8, addend: 0x0, symName: __ZNSt3__1neB7v160006INS_16reverse_iteratorIPNS_12basic_stringIcNS_11char_traitsIcEENS_9allocatorIcEEEEEES9_EEbRKNS1_IT_EERKNS1_IT0_EE, symObjAddr: 0x18F38, symBinAddr: 0x10001B26C, symSize: 0x2CC }
  - { offsetInCU: 0x1096A, offset: 0x1096A, size: 0x8, addend: 0x0, symName: __ZNSt3__112__to_addressB7v160006INS_16reverse_iteratorINS1_IPNS_12basic_stringIcNS_11char_traitsIcEENS_9allocatorIcEEEEEEEEvEENS_5decayIDTclsr19__to_address_helperIT_EE6__callclsr3stdE7declvalIRKSC_EEEEE4typeESE_, symObjAddr: 0x1922C, symBinAddr: 0x10001B560, symSize: 0x24 }
  - { offsetInCU: 0x109A0, offset: 0x109A0, size: 0x8, addend: 0x0, symName: __ZNSt3__110destroy_atB7v160006INS_12basic_stringIcNS_11char_traitsIcEENS_9allocatorIcEEEELi0EEEvPT_, symObjAddr: 0x1948C, symBinAddr: 0x10001B7C0, symSize: 0x24 }
  - { offsetInCU: 0x109D7, offset: 0x109D7, size: 0x8, addend: 0x0, symName: __ZNSt3__112__destroy_atB7v160006INS_12basic_stringIcNS_11char_traitsIcEENS_9allocatorIcEEEELi0EEEvPT_, symObjAddr: 0x194B0, symBinAddr: 0x10001B7E4, symSize: 0x24 }
  - { offsetInCU: 0x10A37, offset: 0x10A37, size: 0x8, addend: 0x0, symName: __ZNSt3__14prevB7v160006INS_16reverse_iteratorIPNS_12basic_stringIcNS_11char_traitsIcEENS_9allocatorIcEEEEEEEENS_9enable_ifIXsr25__is_cpp17_input_iteratorIT_EE5valueESB_E4typeESB_NS_15iterator_traitsISB_E15difference_typeE, symObjAddr: 0x197B8, symBinAddr: 0x10001BAEC, symSize: 0x2B0 }
  - { offsetInCU: 0x10A7F, offset: 0x10A7F, size: 0x8, addend: 0x0, symName: __ZNSt3__19__advanceB7v160006INS_16reverse_iteratorIPNS_12basic_stringIcNS_11char_traitsIcEENS_9allocatorIcEEEEEEEEvRT_NS_15iterator_traitsISA_E15difference_typeENS_26random_access_iterator_tagE, symObjAddr: 0x19AB8, symBinAddr: 0x10001BDEC, symSize: 0x2C }
  - { offsetInCU: 0x10AC8, offset: 0x10AC8, size: 0x8, addend: 0x0, symName: __ZNSt3__125__debug_db_invalidate_allB7v160006INS_12basic_stringIcNS_11char_traitsIcEENS_9allocatorIcEEEEEEvPT_, symObjAddr: 0x1A2E8, symBinAddr: 0x10001C61C, symSize: 0x10 }
  - { offsetInCU: 0x10AF9, offset: 0x10AF9, size: 0x8, addend: 0x0, symName: __ZNSt3__14sortB7v160006INS_11__wrap_iterIPNS_12basic_stringIcNS_11char_traitsIcEENS_9allocatorIcEEEEEENS_6__lessIS7_S7_EEEEvT_SC_T0_, symObjAddr: 0x1A644, symBinAddr: 0x10001C978, symSize: 0x36C }
  - { offsetInCU: 0x10B5F, offset: 0x10B5F, size: 0x8, addend: 0x0, symName: __ZNSt3__111__sort_implB7v160006INS_17_ClassicAlgPolicyENS_11__wrap_iterIPNS_12basic_stringIcNS_11char_traitsIcEENS_9allocatorIcEEEEEENS_6__lessIS8_S8_EEEEvT0_SD_RT1_, symObjAddr: 0x1A9B0, symBinAddr: 0x10001CCE4, symSize: 0x43C }
  - { offsetInCU: 0x10C11, offset: 0x10C11, size: 0x8, addend: 0x0, symName: __ZNSt3__123__debug_randomize_rangeB7v160006INS_17_ClassicAlgPolicyENS_11__wrap_iterIPNS_12basic_stringIcNS_11char_traitsIcEENS_9allocatorIcEEEEEESA_EEvT0_T1_, symObjAddr: 0x1ADEC, symBinAddr: 0x10001D120, symSize: 0x264 }
  - { offsetInCU: 0x10C6A, offset: 0x10C6A, size: 0x8, addend: 0x0, symName: __ZNSt3__16__sortIRNS_6__lessINS_12basic_stringIcNS_11char_traitsIcEENS_9allocatorIcEEEES7_EEPS7_EEvT0_SB_T_, symObjAddr: 0x1B050, symBinAddr: 0x10001D384, symSize: 0x68 }
  - { offsetInCU: 0x10CFA, offset: 0x10CFA, size: 0x8, addend: 0x0, symName: __ZNSt3__113__unwrap_iterB7v160006INS_11__wrap_iterIPNS_12basic_stringIcNS_11char_traitsIcEENS_9allocatorIcEEEEEENS_18__unwrap_iter_implIS9_Lb1EEELi0EEEDTclsrT0_8__unwrapclsr3stdE7declvalIT_EEEESD_, symObjAddr: 0x1B0B8, symBinAddr: 0x10001D3EC, symSize: 0x274 }
  - { offsetInCU: 0x10D42, offset: 0x10D42, size: 0x8, addend: 0x0, symName: __ZNSt3__17__log2iB7v160006IlEET_S1_, symObjAddr: 0x1B32C, symBinAddr: 0x10001D660, symSize: 0x54 }
  - { offsetInCU: 0x10DE7, offset: 0x10DE7, size: 0x8, addend: 0x0, symName: __ZNSt3__112__libcpp_clzB7v160006Em, symObjAddr: 0x1D24C, symBinAddr: 0x10001F580, symSize: 0x1C }
  - { offsetInCU: 0x10F2B, offset: 0x10F2B, size: 0x8, addend: 0x0, symName: __ZNSt3__124__sort3_maybe_branchlessB7v160006INS_17_ClassicAlgPolicyERNS_6__lessINS_12basic_stringIcNS_11char_traitsIcEENS_9allocatorIcEEEES8_EEPS8_EENS_9enable_ifIXntsr21__use_branchless_sortIT0_T1_EE5valueEvE4typeESE_SE_SE_SD_, symObjAddr: 0x1D5C4, symBinAddr: 0x10001F8F8, symSize: 0x3C }
  - { offsetInCU: 0x10F9C, offset: 0x10F9C, size: 0x8, addend: 0x0, symName: __ZNSt3__124__sort4_maybe_branchlessB7v160006INS_17_ClassicAlgPolicyERNS_6__lessINS_12basic_stringIcNS_11char_traitsIcEENS_9allocatorIcEEEES8_EEPS8_EENS_9enable_ifIXntsr21__use_branchless_sortIT0_T1_EE5valueEvE4typeESE_SE_SE_SE_SD_, symObjAddr: 0x1D600, symBinAddr: 0x10001F934, symSize: 0x44 }
  - { offsetInCU: 0x11021, offset: 0x11021, size: 0x8, addend: 0x0, symName: __ZNSt3__124__sort5_maybe_branchlessB7v160006INS_17_ClassicAlgPolicyERNS_6__lessINS_12basic_stringIcNS_11char_traitsIcEENS_9allocatorIcEEEES8_EEPS8_EENS_9enable_ifIXntsr21__use_branchless_sortIT0_T1_EE5valueEvE4typeESE_SE_SE_SE_SE_SD_, symObjAddr: 0x1D644, symBinAddr: 0x10001F978, symSize: 0x4C }
  - { offsetInCU: 0x110B5, offset: 0x110B5, size: 0x8, addend: 0x0, symName: __ZNSt3__114__partial_sortB7v160006INS_17_ClassicAlgPolicyERNS_6__lessINS_12basic_stringIcNS_11char_traitsIcEENS_9allocatorIcEEEES8_EEPS8_SB_EET1_SC_SC_T2_RT0_, symObjAddr: 0x1DD30, symBinAddr: 0x100020064, symSize: 0x94 }
  - { offsetInCU: 0x1113D, offset: 0x1113D, size: 0x8, addend: 0x0, symName: __ZNSt3__119__sort5_wrap_policyB7v160006INS_17_ClassicAlgPolicyERNS_6__lessINS_12basic_stringIcNS_11char_traitsIcEENS_9allocatorIcEEEES8_EEPS8_EEjT1_SC_SC_SC_SC_T0_, symObjAddr: 0x1DDC4, symBinAddr: 0x1000200F8, symSize: 0x54 }
  - { offsetInCU: 0x111E3, offset: 0x111E3, size: 0x8, addend: 0x0, symName: __ZNSt3__17__sort3B7v160006INS_17_ClassicAlgPolicyERNS_6__lessINS_12basic_stringIcNS_11char_traitsIcEENS_9allocatorIcEEEES8_EEPS8_EEjT1_SC_SC_T0_, symObjAddr: 0x1DE18, symBinAddr: 0x10002014C, symSize: 0x66C }
  - { offsetInCU: 0x11270, offset: 0x11270, size: 0x8, addend: 0x0, symName: __ZNSt3__1ssB7v160006IcNS_11char_traitsIcEENS_9allocatorIcEEEEDaRKNS_12basic_stringIT_T0_T1_EESC_, symObjAddr: 0x1F1CC, symBinAddr: 0x100021500, symSize: 0x3AC }
  - { offsetInCU: 0x112CA, offset: 0x112CA, size: 0x8, addend: 0x0, symName: __ZNSt3__1ssB7v160006IcNS_11char_traitsIcEEEEDaNS_17basic_string_viewIT_T0_EES7_, symObjAddr: 0x1F578, symBinAddr: 0x1000218AC, symSize: 0x3E8 }
  - { offsetInCU: 0x11321, offset: 0x11321, size: 0x8, addend: 0x0, symName: __ZNSt3__19iter_swapB7v160006IPNS_12basic_stringIcNS_11char_traitsIcEENS_9allocatorIcEEEES7_EEvT_T0_, symObjAddr: 0x2019C, symBinAddr: 0x1000224D0, symSize: 0x2C }
  - { offsetInCU: 0x11369, offset: 0x11369, size: 0x8, addend: 0x0, symName: __ZNSt3__14swapB7v160006IcNS_11char_traitsIcEENS_9allocatorIcEEEEvRNS_12basic_stringIT_T0_T1_EESA_, symObjAddr: 0x201C8, symBinAddr: 0x1000224FC, symSize: 0x2C }
  - { offsetInCU: 0x113BD, offset: 0x113BD, size: 0x8, addend: 0x0, symName: __ZNSt3__14swapB7v160006INS_12basic_stringIcNS_11char_traitsIcEENS_9allocatorIcEEE5__repEEENS_9enable_ifIXaasr21is_move_constructibleIT_EE5valuesr18is_move_assignableIS9_EE5valueEvE4typeERS9_SC_, symObjAddr: 0x2029C, symBinAddr: 0x1000225D0, symSize: 0x234 }
  - { offsetInCU: 0x11414, offset: 0x11414, size: 0x8, addend: 0x0, symName: __ZNSt3__116__swap_allocatorB7v160006INS_9allocatorIcEEEEvRT_S4_, symObjAddr: 0x204D0, symBinAddr: 0x100022804, symSize: 0x2C }
  - { offsetInCU: 0x11453, offset: 0x11453, size: 0x8, addend: 0x0, symName: __ZNSt3__116__swap_allocatorB7v160006INS_9allocatorIcEEEEvRT_S4_NS_17integral_constantIbLb0EEE, symObjAddr: 0x20520, symBinAddr: 0x100022854, symSize: 0x14 }
  - { offsetInCU: 0x11494, offset: 0x11494, size: 0x8, addend: 0x0, symName: __ZNSt3__17__sort4B7v160006INS_17_ClassicAlgPolicyERNS_6__lessINS_12basic_stringIcNS_11char_traitsIcEENS_9allocatorIcEEEES8_EEPS8_EEjT1_SC_SC_SC_T0_, symObjAddr: 0x2056C, symBinAddr: 0x1000228A0, symSize: 0x608 }
  - { offsetInCU: 0x11558, offset: 0x11558, size: 0x8, addend: 0x0, symName: __ZNSt3__123__debug_randomize_rangeB7v160006INS_17_ClassicAlgPolicyEPNS_12basic_stringIcNS_11char_traitsIcEENS_9allocatorIcEEEES8_EEvT0_T1_, symObjAddr: 0x2105C, symBinAddr: 0x100023390, symSize: 0x14 }
  - { offsetInCU: 0x115A9, offset: 0x115A9, size: 0x8, addend: 0x0, symName: __ZNSt3__119__partial_sort_implB7v160006INS_17_ClassicAlgPolicyERNS_6__lessINS_12basic_stringIcNS_11char_traitsIcEENS_9allocatorIcEEEES8_EEPS8_SB_EET1_SC_SC_T2_OT0_, symObjAddr: 0x21070, symBinAddr: 0x1000233A4, symSize: 0x59C }
  - { offsetInCU: 0x1164B, offset: 0x1164B, size: 0x8, addend: 0x0, symName: __ZNSt3__111__make_heapB7v160006INS_17_ClassicAlgPolicyERNS_6__lessINS_12basic_stringIcNS_11char_traitsIcEENS_9allocatorIcEEEES8_EEPS8_EEvT1_SC_OT0_, symObjAddr: 0x2160C, symBinAddr: 0x100023940, symSize: 0xC4 }
  - { offsetInCU: 0x116ED, offset: 0x116ED, size: 0x8, addend: 0x0, symName: __ZNSt3__111__sort_heapB7v160006INS_17_ClassicAlgPolicyERNS_6__lessINS_12basic_stringIcNS_11char_traitsIcEENS_9allocatorIcEEEES8_EEPS8_EEvT1_SC_OT0_, symObjAddr: 0x21F78, symBinAddr: 0x1000242AC, symSize: 0x94 }
  - { offsetInCU: 0x11781, offset: 0x11781, size: 0x8, addend: 0x0, symName: __ZNSt3__110__pop_heapB7v160006INS_17_ClassicAlgPolicyENS_6__lessINS_12basic_stringIcNS_11char_traitsIcEENS_9allocatorIcEEEES8_EEPS8_EEvT1_SB_RT0_NS_15iterator_traitsISB_E15difference_typeE, symObjAddr: 0x2200C, symBinAddr: 0x100024340, symSize: 0x578 }
  - { offsetInCU: 0x11839, offset: 0x11839, size: 0x8, addend: 0x0, symName: __ZNSt3__19__sift_upB7v160006INS_17_ClassicAlgPolicyERNS_6__lessINS_12basic_stringIcNS_11char_traitsIcEENS_9allocatorIcEEEES8_EEPS8_EEvT1_SC_OT0_NS_15iterator_traitsISC_E15difference_typeE, symObjAddr: 0x22958, symBinAddr: 0x100024C8C, symSize: 0x66C }
  - { offsetInCU: 0x118E8, offset: 0x118E8, size: 0x8, addend: 0x0, symName: __ZNSt3__17__sort5IRNS_6__lessINS_12basic_stringIcNS_11char_traitsIcEENS_9allocatorIcEEEES7_EEPS7_EEjT0_SB_SB_SB_SB_T_, symObjAddr: 0x22FC4, symBinAddr: 0x1000252F8, symSize: 0x760 }
  - { offsetInCU: 0x119FF, offset: 0x119FF, size: 0x8, addend: 0x0, symName: __ZNSt3__112__to_addressB7v160006INS_11__wrap_iterIPNS_12basic_stringIcNS_11char_traitsIcEENS_9allocatorIcEEEEEEvEENS_5decayIDTclsr19__to_address_helperIT_EE6__callclsr3stdE7declvalIRKSB_EEEEE4typeESD_, symObjAddr: 0x23914, symBinAddr: 0x100025C48, symSize: 0x24 }
  - { offsetInCU: 0x11AA0, offset: 0x11AA0, size: 0x8, addend: 0x0, symName: __ZNSt3__15equalB7v160006INS_11__wrap_iterIPKNS_12basic_stringIcNS_11char_traitsIcEENS_9allocatorIcEEEEEESA_EEbT_SB_T0_, symObjAddr: 0x2403C, symBinAddr: 0x100026370, symSize: 0x40C }
  - { offsetInCU: 0x11B06, offset: 0x11B06, size: 0x8, addend: 0x0, symName: __ZNSt3__15equalB7v160006INS_11__wrap_iterIPKNS_12basic_stringIcNS_11char_traitsIcEENS_9allocatorIcEEEEEESA_NS_10__equal_toEEEbT_SC_T0_T1_, symObjAddr: 0x2491C, symBinAddr: 0x100026C50, symSize: 0x380 }
  - { offsetInCU: 0x11B88, offset: 0x11B88, size: 0x8, addend: 0x0, symName: __ZNSt3__1neB7v160006IPKNS_12basic_stringIcNS_11char_traitsIcEENS_9allocatorIcEEEEEEbRKNS_11__wrap_iterIT_EESD_, symObjAddr: 0x24C9C, symBinAddr: 0x100026FD0, symSize: 0x34 }
  - { offsetInCU: 0x11C37, offset: 0x11C37, size: 0x8, addend: 0x0, symName: __ZNSt3__1eqB7v160006IPKNS_12basic_stringIcNS_11char_traitsIcEENS_9allocatorIcEEEEEEbRKNS_11__wrap_iterIT_EESD_, symObjAddr: 0x24DCC, symBinAddr: 0x100027100, symSize: 0x48 }
  - { offsetInCU: 0x11C7A, offset: 0x11C7A, size: 0x8, addend: 0x0, symName: __ZNSt3__118__debug_db_erase_cB7v160006INS_6vectorINS_12basic_stringIcNS_11char_traitsIcEENS_9allocatorIcEEEENS5_IS7_EEEEEEvPT_, symObjAddr: 0x25624, symBinAddr: 0x100027958, symSize: 0x10 }
  - { offsetInCU: 0x11CAB, offset: 0x11CAB, size: 0x8, addend: 0x0, symName: __ZNSt3__127__throw_bad_optional_accessB7v160006Ev, symObjAddr: 0x257AC, symBinAddr: 0x100027AE0, symSize: 0x4C }
  - { offsetInCU: 0x11CC4, offset: 0x11CC4, size: 0x8, addend: 0x0, symName: __ZNSt3__1eqB7v160006ENS_15strong_orderingENS_20_CmpUnspecifiedParamE, symObjAddr: 0x259BC, symBinAddr: 0x100027CF0, symSize: 0x274 }
  - { offsetInCU: 0x11CFF, offset: 0x11CFF, size: 0x8, addend: 0x0, symName: __ZNSt3__112__to_addressB7v160006I8CStudentEEPT_S3_, symObjAddr: 0x26620, symBinAddr: 0x100028954, symSize: 0x14 }
  - { offsetInCU: 0x11D34, offset: 0x11D34, size: 0x8, addend: 0x0, symName: __ZNSt3__119__allocate_at_leastB7v160006INS_9allocatorI8CStudentEEEENS_19__allocation_resultINS_16allocator_traitsIT_E7pointerEEERS6_m, symObjAddr: 0x281C4, symBinAddr: 0x10002A4F8, symSize: 0x28C }
  - { offsetInCU: 0x11D79, offset: 0x11D79, size: 0x8, addend: 0x0, symName: __ZNSt3__142__uninitialized_allocator_move_if_noexceptB7v160006INS_9allocatorI8CStudentEENS_16reverse_iteratorIPS2_EES6_S6_EET2_RT_T0_T1_S7_, symObjAddr: 0x2874C, symBinAddr: 0x10002AA80, symSize: 0x544 }
  - { offsetInCU: 0x11E2E, offset: 0x11E2E, size: 0x8, addend: 0x0, symName: __ZNSt3__14swapB7v160006IP8CStudentEENS_9enable_ifIXaasr21is_move_constructibleIT_EE5valuesr18is_move_assignableIS4_EE5valueEvE4typeERS4_S7_, symObjAddr: 0x28D28, symBinAddr: 0x10002B05C, symSize: 0x134 }
  - { offsetInCU: 0x11E7F, offset: 0x11E7F, size: 0x8, addend: 0x0, symName: __ZNSt3__125__debug_db_invalidate_allB7v160006INS_6vectorI8CStudentNS_9allocatorIS2_EEEEEEvPT_, symObjAddr: 0x28F38, symBinAddr: 0x10002B26C, symSize: 0x10 }
  - { offsetInCU: 0x11EB0, offset: 0x11EB0, size: 0x8, addend: 0x0, symName: __ZNSt3__122__make_exception_guardB7v160006INS_29_AllocatorDestroyRangeReverseINS_9allocatorI8CStudentEENS_16reverse_iteratorIPS3_EEEEEENS_28__exception_guard_exceptionsIT_EESA_, symObjAddr: 0x28F48, symBinAddr: 0x10002B27C, symSize: 0x1F8 }
  - { offsetInCU: 0x11EE7, offset: 0x11EE7, size: 0x8, addend: 0x0, symName: __ZNSt3__1neB7v160006IP8CStudentS2_EEbRKNS_16reverse_iteratorIT_EERKNS3_IT0_EE, symObjAddr: 0x29184, symBinAddr: 0x10002B4B8, symSize: 0x48 }
  - { offsetInCU: 0x11F33, offset: 0x11F33, size: 0x8, addend: 0x0, symName: __ZNSt3__112__to_addressB7v160006INS_16reverse_iteratorIP8CStudentEEvEENS_5decayIDTclsr19__to_address_helperIT_EE6__callclsr3stdE7declvalIRKS6_EEEEE4typeES8_, symObjAddr: 0x291FC, symBinAddr: 0x10002B530, symSize: 0x24 }
  - { offsetInCU: 0x11F69, offset: 0x11F69, size: 0x8, addend: 0x0, symName: __ZNSt3__112construct_atB7v160006I8CStudentJS1_EPS1_EEPT_S4_DpOT0_, symObjAddr: 0x29594, symBinAddr: 0x10002B8C8, symSize: 0x3C }
  - { offsetInCU: 0x12002, offset: 0x12002, size: 0x8, addend: 0x0, symName: __ZNSt3__14prevB7v160006IP8CStudentEENS_9enable_ifIXsr25__is_cpp17_input_iteratorIT_EE5valueES4_E4typeES4_NS_15iterator_traitsIS4_E15difference_typeE, symObjAddr: 0x29700, symBinAddr: 0x10002BA34, symSize: 0x25C }
  - { offsetInCU: 0x1204A, offset: 0x1204A, size: 0x8, addend: 0x0, symName: __ZNSt3__19__advanceB7v160006IP8CStudentEEvRT_NS_15iterator_traitsIS3_E15difference_typeENS_26random_access_iterator_tagE, symObjAddr: 0x299AC, symBinAddr: 0x10002BCE0, symSize: 0x80 }
  - { offsetInCU: 0x12093, offset: 0x12093, size: 0x8, addend: 0x0, symName: __ZNSt3__119__allocator_destroyB7v160006INS_9allocatorI8CStudentEENS_16reverse_iteratorINS4_IPS2_EEEES7_EEvRT_T0_T1_, symObjAddr: 0x29E90, symBinAddr: 0x10002C1C4, symSize: 0x70 }
  - { offsetInCU: 0x120F8, offset: 0x120F8, size: 0x8, addend: 0x0, symName: __ZNSt3__1neB7v160006INS_16reverse_iteratorIP8CStudentEES4_EEbRKNS1_IT_EERKNS1_IT0_EE, symObjAddr: 0x2A148, symBinAddr: 0x10002C47C, symSize: 0x2CC }
  - { offsetInCU: 0x12146, offset: 0x12146, size: 0x8, addend: 0x0, symName: __ZNSt3__112__to_addressB7v160006INS_16reverse_iteratorINS1_IP8CStudentEEEEvEENS_5decayIDTclsr19__to_address_helperIT_EE6__callclsr3stdE7declvalIRKS7_EEEEE4typeES9_, symObjAddr: 0x2A43C, symBinAddr: 0x10002C770, symSize: 0x24 }
  - { offsetInCU: 0x1217C, offset: 0x1217C, size: 0x8, addend: 0x0, symName: __ZNSt3__110destroy_atB7v160006I8CStudentLi0EEEvPT_, symObjAddr: 0x2A69C, symBinAddr: 0x10002C9D0, symSize: 0x24 }
  - { offsetInCU: 0x121B3, offset: 0x121B3, size: 0x8, addend: 0x0, symName: __ZNSt3__112__destroy_atB7v160006I8CStudentLi0EEEvPT_, symObjAddr: 0x2A6C0, symBinAddr: 0x10002C9F4, symSize: 0x24 }
  - { offsetInCU: 0x12213, offset: 0x12213, size: 0x8, addend: 0x0, symName: __ZNSt3__14prevB7v160006INS_16reverse_iteratorIP8CStudentEEEENS_9enable_ifIXsr25__is_cpp17_input_iteratorIT_EE5valueES6_E4typeES6_NS_15iterator_traitsIS6_E15difference_typeE, symObjAddr: 0x2A9C8, symBinAddr: 0x10002CCFC, symSize: 0x2B0 }
  - { offsetInCU: 0x1225B, offset: 0x1225B, size: 0x8, addend: 0x0, symName: __ZNSt3__19__advanceB7v160006INS_16reverse_iteratorIP8CStudentEEEEvRT_NS_15iterator_traitsIS5_E15difference_typeENS_26random_access_iterator_tagE, symObjAddr: 0x2ACC8, symBinAddr: 0x10002CFFC, symSize: 0x2C }
  - { offsetInCU: 0x122A4, offset: 0x122A4, size: 0x8, addend: 0x0, symName: __ZNSt3__111__sort_implB7v160006INS_17_ClassicAlgPolicyENS_11__wrap_iterIP8CStudentEE5CSortEEvT0_S7_RT1_, symObjAddr: 0x2BAFC, symBinAddr: 0x10002DE30, symSize: 0x43C }
  - { offsetInCU: 0x12356, offset: 0x12356, size: 0x8, addend: 0x0, symName: __ZNSt3__123__debug_randomize_rangeB7v160006INS_17_ClassicAlgPolicyENS_11__wrap_iterIP8CStudentEES5_EEvT0_T1_, symObjAddr: 0x2BF38, symBinAddr: 0x10002E26C, symSize: 0x264 }
  - { offsetInCU: 0x123AF, offset: 0x123AF, size: 0x8, addend: 0x0, symName: __ZNSt3__16__sortIR5CSortP8CStudentEEvT0_S5_T_, symObjAddr: 0x2C19C, symBinAddr: 0x10002E4D0, symSize: 0x68 }
  - { offsetInCU: 0x1243F, offset: 0x1243F, size: 0x8, addend: 0x0, symName: __ZNSt3__113__unwrap_iterB7v160006INS_11__wrap_iterIP8CStudentEENS_18__unwrap_iter_implIS4_Lb1EEELi0EEEDTclsrT0_8__unwrapclsr3stdE7declvalIT_EEEES8_, symObjAddr: 0x2C204, symBinAddr: 0x10002E538, symSize: 0x274 }
  - { offsetInCU: 0x124BA, offset: 0x124BA, size: 0x8, addend: 0x0, symName: __ZNSt3__124__sort3_maybe_branchlessB7v160006INS_17_ClassicAlgPolicyER5CSortP8CStudentEENS_9enable_ifIXntsr21__use_branchless_sortIT0_T1_EE5valueEvE4typeES8_S8_S8_S7_, symObjAddr: 0x2EE20, symBinAddr: 0x100031154, symSize: 0x3C }
  - { offsetInCU: 0x1252B, offset: 0x1252B, size: 0x8, addend: 0x0, symName: __ZNSt3__124__sort4_maybe_branchlessB7v160006INS_17_ClassicAlgPolicyER5CSortP8CStudentEENS_9enable_ifIXntsr21__use_branchless_sortIT0_T1_EE5valueEvE4typeES8_S8_S8_S8_S7_, symObjAddr: 0x2EE5C, symBinAddr: 0x100031190, symSize: 0x44 }
  - { offsetInCU: 0x125B0, offset: 0x125B0, size: 0x8, addend: 0x0, symName: __ZNSt3__124__sort5_maybe_branchlessB7v160006INS_17_ClassicAlgPolicyER5CSortP8CStudentEENS_9enable_ifIXntsr21__use_branchless_sortIT0_T1_EE5valueEvE4typeES8_S8_S8_S8_S8_S7_, symObjAddr: 0x2EEA0, symBinAddr: 0x1000311D4, symSize: 0x4C }
  - { offsetInCU: 0x12644, offset: 0x12644, size: 0x8, addend: 0x0, symName: __ZNSt3__114__partial_sortB7v160006INS_17_ClassicAlgPolicyER5CSortP8CStudentS5_EET1_S6_S6_T2_RT0_, symObjAddr: 0x2F58C, symBinAddr: 0x1000318C0, symSize: 0x94 }
  - { offsetInCU: 0x126CC, offset: 0x126CC, size: 0x8, addend: 0x0, symName: __ZNSt3__119__sort5_wrap_policyB7v160006INS_17_ClassicAlgPolicyER5CSortP8CStudentEEjT1_S6_S6_S6_S6_T0_, symObjAddr: 0x2F620, symBinAddr: 0x100031954, symSize: 0x54 }
  - { offsetInCU: 0x12772, offset: 0x12772, size: 0x8, addend: 0x0, symName: __ZNSt3__17__sort3B7v160006INS_17_ClassicAlgPolicyER5CSortP8CStudentEEjT1_S6_S6_T0_, symObjAddr: 0x2F674, symBinAddr: 0x1000319A8, symSize: 0x66C }
  - { offsetInCU: 0x127FF, offset: 0x127FF, size: 0x8, addend: 0x0, symName: __ZNSt3__1neB7v160006IPKNS_4pairI8ESortKeybEEEEbRKNS_11__wrap_iterIT_EESA_, symObjAddr: 0x30F18, symBinAddr: 0x10003324C, symSize: 0x34 }
  - { offsetInCU: 0x12842, offset: 0x12842, size: 0x8, addend: 0x0, symName: __ZNSt3__13getB7v160006ILm0E8ESortKeybEERKNS_13tuple_elementIXT_ENS_4pairIT0_T1_EEE4typeERKS6_, symObjAddr: 0x30FAC, symBinAddr: 0x1000332E0, symSize: 0x24 }
  - { offsetInCU: 0x1288C, offset: 0x1288C, size: 0x8, addend: 0x0, symName: __ZNSt3__13getB7v160006ILm1E8ESortKeybEERKNS_13tuple_elementIXT_ENS_4pairIT0_T1_EEE4typeERKS6_, symObjAddr: 0x30FD0, symBinAddr: 0x100033304, symSize: 0x24 }
  - { offsetInCU: 0x128D6, offset: 0x128D6, size: 0x8, addend: 0x0, symName: __ZNSt3__1eqB7v160006ENS_15strong_orderingES0_, symObjAddr: 0x3122C, symBinAddr: 0x100033560, symSize: 0x348 }
  - { offsetInCU: 0x12910, offset: 0x12910, size: 0x8, addend: 0x0, symName: __ZNSt3__1eqB7v160006IPKNS_4pairI8ESortKeybEEEEbRKNS_11__wrap_iterIT_EESA_, symObjAddr: 0x3188C, symBinAddr: 0x100033BC0, symSize: 0x48 }
  - { offsetInCU: 0x129F1, offset: 0x129F1, size: 0x8, addend: 0x0, symName: __ZNSt3__19iter_swapB7v160006IP8CStudentS2_EEvT_T0_, symObjAddr: 0x31E44, symBinAddr: 0x100034178, symSize: 0x2C }
  - { offsetInCU: 0x12A39, offset: 0x12A39, size: 0x8, addend: 0x0, symName: __ZNSt3__14swapB7v160006I8CStudentEENS_9enable_ifIXaasr21is_move_constructibleIT_EE5valuesr18is_move_assignableIS3_EE5valueEvE4typeERS3_S6_, symObjAddr: 0x31E70, symBinAddr: 0x1000341A4, symSize: 0x230 }
  - { offsetInCU: 0x12A90, offset: 0x12A90, size: 0x8, addend: 0x0, symName: __ZNSt3__17__sort4B7v160006INS_17_ClassicAlgPolicyER5CSortP8CStudentEEjT1_S6_S6_S6_T0_, symObjAddr: 0x320EC, symBinAddr: 0x100034420, symSize: 0x608 }
  - { offsetInCU: 0x12B54, offset: 0x12B54, size: 0x8, addend: 0x0, symName: __ZNSt3__123__debug_randomize_rangeB7v160006INS_17_ClassicAlgPolicyEP8CStudentS3_EEvT0_T1_, symObjAddr: 0x3277C, symBinAddr: 0x100034AB0, symSize: 0x14 }
  - { offsetInCU: 0x12BA5, offset: 0x12BA5, size: 0x8, addend: 0x0, symName: __ZNSt3__119__partial_sort_implB7v160006INS_17_ClassicAlgPolicyER5CSortP8CStudentS5_EET1_S6_S6_T2_OT0_, symObjAddr: 0x32790, symBinAddr: 0x100034AC4, symSize: 0x59C }
  - { offsetInCU: 0x12C47, offset: 0x12C47, size: 0x8, addend: 0x0, symName: __ZNSt3__111__make_heapB7v160006INS_17_ClassicAlgPolicyER5CSortP8CStudentEEvT1_S6_OT0_, symObjAddr: 0x32D2C, symBinAddr: 0x100035060, symSize: 0xC4 }
  - { offsetInCU: 0x12CE9, offset: 0x12CE9, size: 0x8, addend: 0x0, symName: __ZNSt3__111__sort_heapB7v160006INS_17_ClassicAlgPolicyER5CSortP8CStudentEEvT1_S6_OT0_, symObjAddr: 0x33698, symBinAddr: 0x1000359CC, symSize: 0x94 }
  - { offsetInCU: 0x12D7D, offset: 0x12D7D, size: 0x8, addend: 0x0, symName: __ZNSt3__110__pop_heapB7v160006INS_17_ClassicAlgPolicyE5CSortP8CStudentEEvT1_S5_RT0_NS_15iterator_traitsIS5_E15difference_typeE, symObjAddr: 0x3372C, symBinAddr: 0x100035A60, symSize: 0x590 }
  - { offsetInCU: 0x12E35, offset: 0x12E35, size: 0x8, addend: 0x0, symName: __ZNSt3__19__sift_upB7v160006INS_17_ClassicAlgPolicyER5CSortP8CStudentEEvT1_S6_OT0_NS_15iterator_traitsIS6_E15difference_typeE, symObjAddr: 0x34090, symBinAddr: 0x1000363C4, symSize: 0x66C }
  - { offsetInCU: 0x12EE4, offset: 0x12EE4, size: 0x8, addend: 0x0, symName: __ZNSt3__17__sort5IR5CSortP8CStudentEEjT0_S5_S5_S5_S5_T_, symObjAddr: 0x346FC, symBinAddr: 0x100036A30, symSize: 0x760 }
  - { offsetInCU: 0x12FFB, offset: 0x12FFB, size: 0x8, addend: 0x0, symName: __ZNSt3__112__to_addressB7v160006INS_11__wrap_iterIP8CStudentEEvEENS_5decayIDTclsr19__to_address_helperIT_EE6__callclsr3stdE7declvalIRKS6_EEEEE4typeES8_, symObjAddr: 0x3504C, symBinAddr: 0x100037380, symSize: 0x24 }
  - { offsetInCU: 0x1309C, offset: 0x1309C, size: 0x8, addend: 0x0, symName: __ZNSt3__122__make_exception_guardB7v160006INS_6vectorINS_4pairI8ESortKeybEENS_9allocatorIS4_EEE16__destroy_vectorEEENS_28__exception_guard_exceptionsIT_EESA_, symObjAddr: 0x35D9C, symBinAddr: 0x1000380D0, symSize: 0x278 }
  - { offsetInCU: 0x130D5, offset: 0x130D5, size: 0x8, addend: 0x0, symName: __ZNSt3__119__debug_db_insert_cB7v160006INS_6vectorINS_4pairI8ESortKeybEENS_9allocatorIS4_EEEEEEvPT_, symObjAddr: 0x36048, symBinAddr: 0x10003837C, symSize: 0x10 }
  - { offsetInCU: 0x13106, offset: 0x13106, size: 0x8, addend: 0x0, symName: __ZNSt3__119__allocate_at_leastB7v160006INS_9allocatorINS_4pairI8ESortKeybEEEEEENS_19__allocation_resultINS_16allocator_traitsIT_E7pointerEEERS8_m, symObjAddr: 0x37280, symBinAddr: 0x1000395B4, symSize: 0x28C }
  - { offsetInCU: 0x1314B, offset: 0x1314B, size: 0x8, addend: 0x0, symName: __ZNSt3__112__to_addressB7v160006INS_4pairI8ESortKeybEEEEPT_S5_, symObjAddr: 0x37888, symBinAddr: 0x100039BBC, symSize: 0x14 }
  - { offsetInCU: 0x13180, offset: 0x13180, size: 0x8, addend: 0x0, symName: __ZNSt3__130__uninitialized_allocator_copyB7v160006INS_9allocatorINS_4pairI8ESortKeybEEEEPS4_S6_S6_EET2_RT_T0_T1_S7_, symObjAddr: 0x37938, symBinAddr: 0x100039C6C, symSize: 0x520 }
  - { offsetInCU: 0x1322C, offset: 0x1322C, size: 0x8, addend: 0x0, symName: __ZNSt3__122__make_exception_guardB7v160006INS_29_AllocatorDestroyRangeReverseINS_9allocatorINS_4pairI8ESortKeybEEEEPS5_EEEENS_28__exception_guard_exceptionsIT_EESA_, symObjAddr: 0x3812C, symBinAddr: 0x10003A460, symSize: 0x1F8 }
  - { offsetInCU: 0x13288, offset: 0x13288, size: 0x8, addend: 0x0, symName: __ZNSt3__112construct_atB7v160006INS_4pairI8ESortKeybEEJRS3_EPS3_EEPT_S7_DpOT0_, symObjAddr: 0x3862C, symBinAddr: 0x10003A960, symSize: 0x40 }
  - { offsetInCU: 0x132F8, offset: 0x132F8, size: 0x8, addend: 0x0, symName: __ZNSt3__119__allocator_destroyB7v160006INS_9allocatorINS_4pairI8ESortKeybEEEENS_16reverse_iteratorIPS4_EES8_EEvRT_T0_T1_, symObjAddr: 0x38AC4, symBinAddr: 0x10003ADF8, symSize: 0x2B8 }
  - { offsetInCU: 0x13364, offset: 0x13364, size: 0x8, addend: 0x0, symName: __ZNSt3__1neB7v160006IPNS_4pairI8ESortKeybEES4_EEbRKNS_16reverse_iteratorIT_EERKNS5_IT0_EE, symObjAddr: 0x38DB0, symBinAddr: 0x10003B0E4, symSize: 0x48 }
  - { offsetInCU: 0x133B0, offset: 0x133B0, size: 0x8, addend: 0x0, symName: __ZNSt3__112__to_addressB7v160006INS_16reverse_iteratorIPNS_4pairI8ESortKeybEEEEvEENS_5decayIDTclsr19__to_address_helperIT_EE6__callclsr3stdE7declvalIRKS8_EEEEE4typeESA_, symObjAddr: 0x38E20, symBinAddr: 0x10003B154, symSize: 0x24 }
  - { offsetInCU: 0x133E6, offset: 0x133E6, size: 0x8, addend: 0x0, symName: __ZNSt3__110destroy_atB7v160006INS_4pairI8ESortKeybEELi0EEEvPT_, symObjAddr: 0x38F14, symBinAddr: 0x10003B248, symSize: 0x24 }
  - { offsetInCU: 0x1341D, offset: 0x1341D, size: 0x8, addend: 0x0, symName: __ZNSt3__112__destroy_atB7v160006INS_4pairI8ESortKeybEELi0EEEvPT_, symObjAddr: 0x38F38, symBinAddr: 0x10003B26C, symSize: 0x10 }
  - { offsetInCU: 0x1347D, offset: 0x1347D, size: 0x8, addend: 0x0, symName: __ZNSt3__14prevB7v160006IPNS_4pairI8ESortKeybEEEENS_9enable_ifIXsr25__is_cpp17_input_iteratorIT_EE5valueES6_E4typeES6_NS_15iterator_traitsIS6_E15difference_typeE, symObjAddr: 0x38FF8, symBinAddr: 0x10003B32C, symSize: 0x25C }
  - { offsetInCU: 0x134C5, offset: 0x134C5, size: 0x8, addend: 0x0, symName: __ZNSt3__19__advanceB7v160006IPNS_4pairI8ESortKeybEEEEvRT_NS_15iterator_traitsIS5_E15difference_typeENS_26random_access_iterator_tagE, symObjAddr: 0x392A4, symBinAddr: 0x10003B5D8, symSize: 0x78 }
  - { offsetInCU: 0x1350E, offset: 0x1350E, size: 0x8, addend: 0x0, symName: __ZNSt3__118__debug_db_erase_cB7v160006INS_6vectorINS_4pairI8ESortKeybEENS_9allocatorIS4_EEEEEEvPT_, symObjAddr: 0x39B00, symBinAddr: 0x10003BE34, symSize: 0x10 }
  - { offsetInCU: 0x1353F, offset: 0x1353F, size: 0x8, addend: 0x0, symName: __ZNSt3__119__debug_db_insert_cB7v160006INS_4listI8CStudentNS_9allocatorIS2_EEEEEEvPT_, symObjAddr: 0x3A318, symBinAddr: 0x10003C64C, symSize: 0x10 }
  - { offsetInCU: 0x13570, offset: 0x13570, size: 0x8, addend: 0x0, symName: __ZNSt3__1neB7v160006IP8CStudentEEbRKNS_11__wrap_iterIT_EES7_, symObjAddr: 0x3A328, symBinAddr: 0x10003C65C, symSize: 0x34 }
  - { offsetInCU: 0x135B3, offset: 0x135B3, size: 0x8, addend: 0x0, symName: __ZNSt3__1eqB7v160006IP8CStudentEEbRKNS_11__wrap_iterIT_EES7_, symObjAddr: 0x3A750, symBinAddr: 0x10003CA84, symSize: 0x48 }
  - { offsetInCU: 0x135F6, offset: 0x135F6, size: 0x8, addend: 0x0, symName: __ZNSt3__112construct_atB7v160006I8CStudentJRS1_EPS1_EEPT_S5_DpOT0_, symObjAddr: 0x3AB58, symBinAddr: 0x10003CE8C, symSize: 0x3C }
  - { offsetInCU: 0x13666, offset: 0x13666, size: 0x8, addend: 0x0, symName: __ZNSt3__118__debug_db_erase_cB7v160006INS_10__list_impI8CStudentNS_9allocatorIS2_EEEEEEvPT_, symObjAddr: 0x3AD68, symBinAddr: 0x10003D09C, symSize: 0x10 }
  - { offsetInCU: 0x13697, offset: 0x13697, size: 0x8, addend: 0x0, symName: __ZNSt3__125__debug_db_invalidate_allB7v160006INS_10__list_impI8CStudentNS_9allocatorIS2_EEEEEEvPT_, symObjAddr: 0x3AFC0, symBinAddr: 0x10003D2F4, symSize: 0x10 }
  - { offsetInCU: 0x136C8, offset: 0x136C8, size: 0x8, addend: 0x0, symName: __ZNSt3__118__debug_db_erase_cB7v160006INS_6vectorI8CStudentNS_9allocatorIS2_EEEEEEvPT_, symObjAddr: 0x3B530, symBinAddr: 0x10003D864, symSize: 0x10 }
  - { offsetInCU: 0x136F9, offset: 0x136F9, size: 0x8, addend: 0x0, symName: __ZNSt3__112construct_atB7v160006INS_4pairI8ESortKeybEEJRS2_RbEPS3_EEPT_S8_DpOT0_, symObjAddr: 0x3CEE0, symBinAddr: 0x10003F214, symSize: 0x44 }
  - { offsetInCU: 0x1377C, offset: 0x1377C, size: 0x8, addend: 0x0, symName: __ZNSt3__142__uninitialized_allocator_move_if_noexceptB7v160006INS_9allocatorINS_4pairI8ESortKeybEEEENS_16reverse_iteratorIPS4_EES8_S8_EET2_RT_T0_T1_S9_, symObjAddr: 0x3E1B0, symBinAddr: 0x1000404E4, symSize: 0x53C }
  - { offsetInCU: 0x13831, offset: 0x13831, size: 0x8, addend: 0x0, symName: __ZNSt3__14swapB7v160006IPNS_4pairI8ESortKeybEEEENS_9enable_ifIXaasr21is_move_constructibleIT_EE5valuesr18is_move_assignableIS6_EE5valueEvE4typeERS6_S9_, symObjAddr: 0x3E6EC, symBinAddr: 0x100040A20, symSize: 0x134 }
  - { offsetInCU: 0x13882, offset: 0x13882, size: 0x8, addend: 0x0, symName: __ZNSt3__125__debug_db_invalidate_allB7v160006INS_6vectorINS_4pairI8ESortKeybEENS_9allocatorIS4_EEEEEEvPT_, symObjAddr: 0x3E820, symBinAddr: 0x100040B54, symSize: 0x10 }
  - { offsetInCU: 0x138B3, offset: 0x138B3, size: 0x8, addend: 0x0, symName: __ZNSt3__122__make_exception_guardB7v160006INS_29_AllocatorDestroyRangeReverseINS_9allocatorINS_4pairI8ESortKeybEEEENS_16reverse_iteratorIPS5_EEEEEENS_28__exception_guard_exceptionsIT_EESC_, symObjAddr: 0x3E830, symBinAddr: 0x100040B64, symSize: 0x1F8 }
  - { offsetInCU: 0x138EA, offset: 0x138EA, size: 0x8, addend: 0x0, symName: __ZNSt3__112construct_atB7v160006INS_4pairI8ESortKeybEEJS3_EPS3_EEPT_S6_DpOT0_, symObjAddr: 0x3EDA4, symBinAddr: 0x1000410D8, symSize: 0x40 }
  - { offsetInCU: 0x1395A, offset: 0x1395A, size: 0x8, addend: 0x0, symName: __ZNSt3__119__allocator_destroyB7v160006INS_9allocatorINS_4pairI8ESortKeybEEEENS_16reverse_iteratorINS6_IPS4_EEEES9_EEvRT_T0_T1_, symObjAddr: 0x3F248, symBinAddr: 0x10004157C, symSize: 0x70 }
  - { offsetInCU: 0x139BF, offset: 0x139BF, size: 0x8, addend: 0x0, symName: __ZNSt3__1neB7v160006INS_16reverse_iteratorIPNS_4pairI8ESortKeybEEEES6_EEbRKNS1_IT_EERKNS1_IT0_EE, symObjAddr: 0x3F500, symBinAddr: 0x100041834, symSize: 0x2CC }
  - { offsetInCU: 0x13A0D, offset: 0x13A0D, size: 0x8, addend: 0x0, symName: __ZNSt3__112__to_addressB7v160006INS_16reverse_iteratorINS1_IPNS_4pairI8ESortKeybEEEEEEvEENS_5decayIDTclsr19__to_address_helperIT_EE6__callclsr3stdE7declvalIRKS9_EEEEE4typeESB_, symObjAddr: 0x3F7CC, symBinAddr: 0x100041B00, symSize: 0x24 }
  - { offsetInCU: 0x13A6C, offset: 0x13A6C, size: 0x8, addend: 0x0, symName: __ZNSt3__14prevB7v160006INS_16reverse_iteratorIPNS_4pairI8ESortKeybEEEEEENS_9enable_ifIXsr25__is_cpp17_input_iteratorIT_EE5valueES8_E4typeES8_NS_15iterator_traitsIS8_E15difference_typeE, symObjAddr: 0x3FD10, symBinAddr: 0x100042044, symSize: 0x2B0 }
  - { offsetInCU: 0x13AB4, offset: 0x13AB4, size: 0x8, addend: 0x0, symName: __ZNSt3__19__advanceB7v160006INS_16reverse_iteratorIPNS_4pairI8ESortKeybEEEEEEvRT_NS_15iterator_traitsIS7_E15difference_typeENS_26random_access_iterator_tagE, symObjAddr: 0x40010, symBinAddr: 0x100042344, symSize: 0x2C }
  - { offsetInCU: 0x13AFD, offset: 0x13AFD, size: 0x8, addend: 0x0, symName: __ZNSt3__1eqB7v160006ERKNS_21__tree_const_iteratorINS_12basic_stringIcNS_11char_traitsIcEENS_9allocatorIcEEEEPNS_11__tree_nodeIS6_PvEElEESD_, symObjAddr: 0x41C7C, symBinAddr: 0x100043FB0, symSize: 0xB8 }
  - { offsetInCU: 0x13B6D, offset: 0x13B6D, size: 0x8, addend: 0x0, symName: __ZNSt3__1neB7v160006IPNS_12basic_stringIcNS_11char_traitsIcEENS_9allocatorIcEEEEEEbRKNS_11__wrap_iterIT_EESC_, symObjAddr: 0x432E4, symBinAddr: 0x100045618, symSize: 0x34 }
  - { offsetInCU: 0x13BB0, offset: 0x13BB0, size: 0x8, addend: 0x0, symName: __ZNSt3__1eqB7v160006IPNS_12basic_stringIcNS_11char_traitsIcEENS_9allocatorIcEEEEEEbRKNS_11__wrap_iterIT_EESC_, symObjAddr: 0x43CC4, symBinAddr: 0x100045FF8, symSize: 0x48 }
  - { offsetInCU: 0x13BF3, offset: 0x13BF3, size: 0x8, addend: 0x0, symName: __ZNSt3__14nextB7v160006INS_21__tree_const_iteratorINS_12basic_stringIcNS_11char_traitsIcEENS_9allocatorIcEEEEPNS_11__tree_nodeIS7_PvEElEEEENS_9enable_ifIXsr25__is_cpp17_input_iteratorIT_EE5valueESE_E4typeESE_NS_15iterator_traitsISE_E15difference_typeE, symObjAddr: 0x4662C, symBinAddr: 0x100048960, symSize: 0x2A4 }
  - { offsetInCU: 0x13C3B, offset: 0x13C3B, size: 0x8, addend: 0x0, symName: __ZNSt3__116__tree_prev_iterB7v160006IPNS_16__tree_node_baseIPvEEPNS_15__tree_end_nodeIS4_EEEET_T0_, symObjAddr: 0x46C7C, symBinAddr: 0x100048FB0, symSize: 0x124 }
  - { offsetInCU: 0x13C87, offset: 0x13C87, size: 0x8, addend: 0x0, symName: __ZNSt3__110__tree_maxB7v160006IPNS_16__tree_node_baseIPvEEEET_S5_, symObjAddr: 0x46DA0, symBinAddr: 0x1000490D4, symSize: 0xCC }
  - { offsetInCU: 0x13CBC, offset: 0x13CBC, size: 0x8, addend: 0x0, symName: __ZNSt3__120__tree_is_left_childB7v160006IPNS_16__tree_node_baseIPvEEEEbT_, symObjAddr: 0x46E6C, symBinAddr: 0x1000491A0, symSize: 0xB8 }
  - { offsetInCU: 0x13CF1, offset: 0x13CF1, size: 0x8, addend: 0x0, symName: __ZNSt3__19__advanceB7v160006INS_21__tree_const_iteratorINS_12basic_stringIcNS_11char_traitsIcEENS_9allocatorIcEEEEPNS_11__tree_nodeIS7_PvEElEEEEvRT_NS_15iterator_traitsISD_E15difference_typeENS_26bidirectional_iterator_tagE, symObjAddr: 0x47068, symBinAddr: 0x10004939C, symSize: 0xA4 }
  - { offsetInCU: 0x13D3A, offset: 0x13D3A, size: 0x8, addend: 0x0, symName: __ZNSt3__116__tree_next_iterB7v160006IPNS_15__tree_end_nodeIPNS_16__tree_node_baseIPvEEEES5_EET_T0_, symObjAddr: 0x471B4, symBinAddr: 0x1000494E8, symSize: 0x134 }
  - { offsetInCU: 0x13D78, offset: 0x13D78, size: 0x8, addend: 0x0, symName: __ZNSt3__110__tree_minB7v160006IPNS_16__tree_node_baseIPvEEEET_S5_, symObjAddr: 0x472E8, symBinAddr: 0x10004961C, symSize: 0xC4 }
  - { offsetInCU: 0x13DCB, offset: 0x13DCB, size: 0x8, addend: 0x0, symName: __ZNSt3__127__tree_balance_after_insertB7v160006IPNS_16__tree_node_baseIPvEEEEvT_S5_, symObjAddr: 0x47B04, symBinAddr: 0x100049E38, symSize: 0x8A8 }
  - { offsetInCU: 0x13E3F, offset: 0x13E3F, size: 0x8, addend: 0x0, symName: __ZNSt3__118__tree_left_rotateB7v160006IPNS_16__tree_node_baseIPvEEEEvT_, symObjAddr: 0x483D4, symBinAddr: 0x10004A708, symSize: 0x3A8 }
  - { offsetInCU: 0x13E81, offset: 0x13E81, size: 0x8, addend: 0x0, symName: __ZNSt3__119__tree_right_rotateB7v160006IPNS_16__tree_node_baseIPvEEEEvT_, symObjAddr: 0x4877C, symBinAddr: 0x10004AAB0, symSize: 0x384 }
  - { offsetInCU: 0x13EC3, offset: 0x13EC3, size: 0x8, addend: 0x0, symName: __ZNSt3__1neB7v160006ERKNS_15__tree_iteratorINS_12basic_stringIcNS_11char_traitsIcEENS_9allocatorIcEEEEPNS_11__tree_nodeIS6_PvEElEESD_, symObjAddr: 0x498C8, symBinAddr: 0x10004BBFC, symSize: 0x34 }
  - { offsetInCU: 0x13F00, offset: 0x13F00, size: 0x8, addend: 0x0, symName: __ZNSt3__1eqB7v160006ERKNS_15__tree_iteratorINS_12basic_stringIcNS_11char_traitsIcEENS_9allocatorIcEEEEPNS_11__tree_nodeIS6_PvEElEESD_, symObjAddr: 0x49924, symBinAddr: 0x10004BC58, symSize: 0xB8 }
  - { offsetInCU: 0x13F3D, offset: 0x13F3D, size: 0x8, addend: 0x0, symName: __ZNSt3__14findB7v160006INS_15__list_iteratorI8CStudentPvEES2_EET_S5_S5_RKT0_, symObjAddr: 0x4A4A0, symBinAddr: 0x10004C7D4, symSize: 0x328 }
  - { offsetInCU: 0x13FA0, offset: 0x13FA0, size: 0x8, addend: 0x0, symName: __ZNSt3__1neB7v160006ERKNS_15__list_iteratorI8CStudentPvEES5_, symObjAddr: 0x4AC30, symBinAddr: 0x10004CF64, symSize: 0x34 }
  - { offsetInCU: 0x13FDD, offset: 0x13FDD, size: 0x8, addend: 0x0, symName: __ZNSt3__1eqB7v160006ERKNS_15__list_iteratorI8CStudentPvEES5_, symObjAddr: 0x4B660, symBinAddr: 0x10004D994, symSize: 0xB8 }
  - { offsetInCU: 0x1401A, offset: 0x1401A, size: 0x8, addend: 0x0, symName: __ZNSt3__15equalB7v160006INS_21__list_const_iteratorI8CStudentPvEES4_EEbT_S5_T0_, symObjAddr: 0x4BEB4, symBinAddr: 0x10004E1E8, symSize: 0x40C }
  - { offsetInCU: 0x14080, offset: 0x14080, size: 0x8, addend: 0x0, symName: __ZNSt3__15equalB7v160006INS_21__list_const_iteratorI8CStudentPvEES4_NS_10__equal_toEEEbT_S6_T0_T1_, symObjAddr: 0x4C2C0, symBinAddr: 0x10004E5F4, symSize: 0x380 }
  - { offsetInCU: 0x14102, offset: 0x14102, size: 0x8, addend: 0x0, symName: __ZNSt3__15equalB7v160006INS_21__tree_const_iteratorINS_12basic_stringIcNS_11char_traitsIcEENS_9allocatorIcEEEEPNS_11__tree_nodeIS7_PvEElEESC_EEbT_SD_T0_, symObjAddr: 0x4CE14, symBinAddr: 0x10004F148, symSize: 0x40C }
  - { offsetInCU: 0x14168, offset: 0x14168, size: 0x8, addend: 0x0, symName: __ZNSt3__15equalB7v160006INS_21__tree_const_iteratorINS_12basic_stringIcNS_11char_traitsIcEENS_9allocatorIcEEEEPNS_11__tree_nodeIS7_PvEElEESC_NS_10__equal_toEEEbT_SE_T0_T1_, symObjAddr: 0x4D4A0, symBinAddr: 0x10004F7D4, symSize: 0x380 }
  - { offsetInCU: 0x141EA, offset: 0x141EA, size: 0x8, addend: 0x0, symName: __ZNSt3__1neB7v160006ERKNS_21__tree_const_iteratorINS_12basic_stringIcNS_11char_traitsIcEENS_9allocatorIcEEEEPNS_11__tree_nodeIS6_PvEElEESD_, symObjAddr: 0x4D820, symBinAddr: 0x10004FB54, symSize: 0x34 }
  - { offsetInCU: 0x14848, offset: 0x14848, size: 0x8, addend: 0x0, symName: __ZSt28__throw_bad_array_new_lengthB7v160006v, symObjAddr: 0xD01C, symBinAddr: 0x10000F350, symSize: 0x38 }
  - { offsetInCU: 0x14ED4, offset: 0x14ED4, size: 0x8, addend: 0x0, symName: __ZNSt3__16vectorINS_12basic_stringIcNS_11char_traitsIcEENS_9allocatorIcEEEENS4_IS6_EEE26__swap_out_circular_bufferERNS_14__split_bufferIS6_RS7_EE, symObjAddr: 0x15A80, symBinAddr: 0x100017DB4, symSize: 0x574 }
  - { offsetInCU: 0x150F4, offset: 0x150F4, size: 0x8, addend: 0x0, symName: __ZNSt3__16vectorI8CStudentNS_9allocatorIS1_EEE26__swap_out_circular_bufferERNS_14__split_bufferIS1_RS3_EE, symObjAddr: 0x27314, symBinAddr: 0x100029648, symSize: 0x574 }
  - { offsetInCU: 0x1539E, offset: 0x1539E, size: 0x8, addend: 0x0, symName: __ZNSt3__16vectorINS_4pairI8ESortKeybEENS_9allocatorIS3_EEE26__swap_out_circular_bufferERNS_14__split_bufferIS3_RS5_EE, symObjAddr: 0x3D500, symBinAddr: 0x10003F834, symSize: 0x574 }
  - { offsetInCU: 0x163EF, offset: 0x163EF, size: 0x8, addend: 0x0, symName: __Z7isspacei, symObjAddr: 0x132D0, symBinAddr: 0x100015604, symSize: 0x28 }
  - { offsetInCU: 0x16449, offset: 0x16449, size: 0x8, addend: 0x0, symName: __Z7toloweri, symObjAddr: 0x13730, symBinAddr: 0x100015A64, symSize: 0x24 }
  - { offsetInCU: 0x17977, offset: 0x17977, size: 0x8, addend: 0x0, symName: _main, symObjAddr: 0x0, symBinAddr: 0x100002334, symSize: 0x8B58 }
  - { offsetInCU: 0x180F4, offset: 0x180F4, size: 0x8, addend: 0x0, symName: __ZN10CStudyDeptC1Ev, symObjAddr: 0x8B58, symBinAddr: 0x10000AE8C, symSize: 0x2C }
  - { offsetInCU: 0x18123, offset: 0x18123, size: 0x8, addend: 0x0, symName: __ZNSt3__112basic_stringIcNS_11char_traitsIcEENS_9allocatorIcEEEC1B7v160006IDnEEPKc, symObjAddr: 0x8B84, symBinAddr: 0x10000AEB8, symSize: 0x34 }
  - { offsetInCU: 0x18161, offset: 0x18161, size: 0x8, addend: 0x0, symName: __ZN5CDateC1Eiii, symObjAddr: 0x8BB8, symBinAddr: 0x10000AEEC, symSize: 0x44 }
  - { offsetInCU: 0x181B5, offset: 0x181B5, size: 0x8, addend: 0x0, symName: __ZN8CStudentC1ERKNSt3__112basic_stringIcNS0_11char_traitsIcEENS0_9allocatorIcEEEERK5CDatei, symObjAddr: 0x8BFC, symBinAddr: 0x10000AF30, symSize: 0x44 }
  - { offsetInCU: 0x18209, offset: 0x18209, size: 0x8, addend: 0x0, symName: __ZNK8CStudenteqERKS_, symObjAddr: 0x8C40, symBinAddr: 0x10000AF74, symSize: 0x160 }
  - { offsetInCU: 0x1823D, offset: 0x1823D, size: 0x8, addend: 0x0, symName: __ZN8CStudentD1Ev, symObjAddr: 0x8DA0, symBinAddr: 0x10000B0D4, symSize: 0x2C }
  - { offsetInCU: 0x18269, offset: 0x18269, size: 0x8, addend: 0x0, symName: __ZNK8CStudentneERKS_, symObjAddr: 0x8DCC, symBinAddr: 0x10000B100, symSize: 0x34 }
  - { offsetInCU: 0x1829D, offset: 0x1829D, size: 0x8, addend: 0x0, symName: __ZN10CStudyDept10addStudentERK8CStudent, symObjAddr: 0x8E00, symBinAddr: 0x10000B134, symSize: 0x34 }
  - { offsetInCU: 0x182D1, offset: 0x182D1, size: 0x8, addend: 0x0, symName: __ZNK10CStudyDept6searchERK7CFilterRK5CSort, symObjAddr: 0x922C, symBinAddr: 0x10000B560, symSize: 0xB80 }
  - { offsetInCU: 0x1837E, offset: 0x1837E, size: 0x8, addend: 0x0, symName: __ZN7CFilterC1Ev, symObjAddr: 0x9DAC, symBinAddr: 0x10000C0E0, symSize: 0x2C }
  - { offsetInCU: 0x183A8, offset: 0x183A8, size: 0x8, addend: 0x0, symName: __ZN5CSortC1Ev, symObjAddr: 0x9DD8, symBinAddr: 0x10000C10C, symSize: 0x2C }
  - { offsetInCU: 0x183D2, offset: 0x183D2, size: 0x8, addend: 0x0, symName: __ZNSt3__14listI8CStudentNS_9allocatorIS1_EEEC1ESt16initializer_listIS1_E, symObjAddr: 0x9E04, symBinAddr: 0x10000C138, symSize: 0x248 }
  - { offsetInCU: 0x18412, offset: 0x18412, size: 0x8, addend: 0x0, symName: __ZNSt3__14listI8CStudentNS_9allocatorIS1_EEED1Ev, symObjAddr: 0xA04C, symBinAddr: 0x10000C380, symSize: 0x2C }
  - { offsetInCU: 0x1843F, offset: 0x1843F, size: 0x8, addend: 0x0, symName: __ZN5CSortD1Ev, symObjAddr: 0xA078, symBinAddr: 0x10000C3AC, symSize: 0x2C }
  - { offsetInCU: 0x1846B, offset: 0x1846B, size: 0x8, addend: 0x0, symName: __ZN7CFilterD1Ev, symObjAddr: 0xA0A4, symBinAddr: 0x10000C3D8, symSize: 0x2C }
  - { offsetInCU: 0x18497, offset: 0x18497, size: 0x8, addend: 0x0, symName: __ZN5CSort6addKeyE8ESortKeyb, symObjAddr: 0xA0D0, symBinAddr: 0x10000C404, symSize: 0x2A0 }
  - { offsetInCU: 0x184E2, offset: 0x184E2, size: 0x8, addend: 0x0, symName: __ZN7CFilter4nameERKNSt3__112basic_stringIcNS0_11char_traitsIcEENS0_9allocatorIcEEEE, symObjAddr: 0xA370, symBinAddr: 0x10000C6A4, symSize: 0x34 }
  - { offsetInCU: 0x18516, offset: 0x18516, size: 0x8, addend: 0x0, symName: __ZNSt3__14listI8CStudentNS_9allocatorIS1_EEEC1B7v160006Ev, symObjAddr: 0xA3A4, symBinAddr: 0x10000C6D8, symSize: 0x2C }
  - { offsetInCU: 0x18540, offset: 0x18540, size: 0x8, addend: 0x0, symName: __ZNK10CStudyDept7suggestERKNSt3__112basic_stringIcNS0_11char_traitsIcEENS0_9allocatorIcEEEE, symObjAddr: 0xA7C8, symBinAddr: 0x10000CAFC, symSize: 0x558 }
  - { offsetInCU: 0x185F4, offset: 0x185F4, size: 0x8, addend: 0x0, symName: __ZNSt3__13setINS_12basic_stringIcNS_11char_traitsIcEENS_9allocatorIcEEEENS_4lessIS6_EENS4_IS6_EEEC1B7v160006ESt16initializer_listIS6_ERKS8_, symObjAddr: 0xAD20, symBinAddr: 0x10000D054, symSize: 0x260 }
  - { offsetInCU: 0x18642, offset: 0x18642, size: 0x8, addend: 0x0, symName: __ZNSt3__13setINS_12basic_stringIcNS_11char_traitsIcEENS_9allocatorIcEEEENS_4lessIS6_EENS4_IS6_EEED1B7v160006Ev, symObjAddr: 0xAF80, symBinAddr: 0x10000D2B4, symSize: 0x2C }
  - { offsetInCU: 0x1866C, offset: 0x1866C, size: 0x8, addend: 0x0, symName: __ZNSt3__13setINS_12basic_stringIcNS_11char_traitsIcEENS_9allocatorIcEEEENS_4lessIS6_EENS4_IS6_EEEC1B7v160006Ev, symObjAddr: 0xAFAC, symBinAddr: 0x10000D2E0, symSize: 0x2C }
  - { offsetInCU: 0x18696, offset: 0x18696, size: 0x8, addend: 0x0, symName: __ZN10CStudyDept10delStudentERK8CStudent, symObjAddr: 0xAFD8, symBinAddr: 0x10000D30C, symSize: 0x524 }
  - { offsetInCU: 0x186DE, offset: 0x186DE, size: 0x8, addend: 0x0, symName: __ZN10CStudyDeptD1Ev, symObjAddr: 0xB4FC, symBinAddr: 0x10000D830, symSize: 0x2C }
  - { offsetInCU: 0x1870A, offset: 0x1870A, size: 0x8, addend: 0x0, symName: __ZN10CStudyDeptC2Ev, symObjAddr: 0xB528, symBinAddr: 0x10000D85C, symSize: 0x2C }
  - { offsetInCU: 0x18734, offset: 0x18734, size: 0x8, addend: 0x0, symName: __ZNSt3__112basic_stringIcNS_11char_traitsIcEENS_9allocatorIcEEEC2B7v160006IDnEEPKc, symObjAddr: 0xB554, symBinAddr: 0x10000D888, symSize: 0x218 }
  - { offsetInCU: 0x1877A, offset: 0x1877A, size: 0x8, addend: 0x0, symName: __ZNSt3__117__compressed_pairINS_12basic_stringIcNS_11char_traitsIcEENS_9allocatorIcEEE5__repES5_EC1B7v160006INS_18__default_init_tagESA_EEOT_OT0_, symObjAddr: 0xB76C, symBinAddr: 0x10000DAA0, symSize: 0x3C }
  - { offsetInCU: 0x187D2, offset: 0x187D2, size: 0x8, addend: 0x0, symName: __ZNSt3__111char_traitsIcE6lengthEPKc, symObjAddr: 0xB7A8, symBinAddr: 0x10000DADC, symSize: 0x40 }
  - { offsetInCU: 0x187F5, offset: 0x187F5, size: 0x8, addend: 0x0, symName: __ZNSt3__117__compressed_pairINS_12basic_stringIcNS_11char_traitsIcEENS_9allocatorIcEEE5__repES5_EC2B7v160006INS_18__default_init_tagESA_EEOT_OT0_, symObjAddr: 0xB7F8, symBinAddr: 0x10000DB2C, symSize: 0x3C }
  - { offsetInCU: 0x1884D, offset: 0x1884D, size: 0x8, addend: 0x0, symName: __ZNSt3__122__compressed_pair_elemINS_12basic_stringIcNS_11char_traitsIcEENS_9allocatorIcEEE5__repELi0ELb0EEC2B7v160006ENS_18__default_init_tagE, symObjAddr: 0xB834, symBinAddr: 0x10000DB68, symSize: 0x14 }
  - { offsetInCU: 0x18881, offset: 0x18881, size: 0x8, addend: 0x0, symName: __ZNSt3__122__compressed_pair_elemINS_9allocatorIcEELi1ELb1EEC2B7v160006ENS_18__default_init_tagE, symObjAddr: 0xB848, symBinAddr: 0x10000DB7C, symSize: 0x2C }
  - { offsetInCU: 0x188B5, offset: 0x188B5, size: 0x8, addend: 0x0, symName: __ZNSt3__19allocatorIcEC2B7v160006Ev, symObjAddr: 0xB874, symBinAddr: 0x10000DBA8, symSize: 0x2C }
  - { offsetInCU: 0x188DF, offset: 0x188DF, size: 0x8, addend: 0x0, symName: __ZNSt3__116__non_trivial_ifILb1ENS_9allocatorIcEEEC2B7v160006Ev, symObjAddr: 0xB8A0, symBinAddr: 0x10000DBD4, symSize: 0x14 }
  - { offsetInCU: 0x18909, offset: 0x18909, size: 0x8, addend: 0x0, symName: __ZN5CDateC2Eiii, symObjAddr: 0xB8E4, symBinAddr: 0x10000DC18, symSize: 0x17C }
  - { offsetInCU: 0x1895D, offset: 0x1895D, size: 0x8, addend: 0x0, symName: __ZN8CStudentC2ERKNSt3__112basic_stringIcNS0_11char_traitsIcEENS0_9allocatorIcEEEERK5CDatei, symObjAddr: 0xBA60, symBinAddr: 0x10000DD94, symSize: 0xCC }
  - { offsetInCU: 0x189B1, offset: 0x189B1, size: 0x8, addend: 0x0, symName: __ZNK5CDateeqERKS_, symObjAddr: 0xBD60, symBinAddr: 0x10000E094, symSize: 0x2F8 }
  - { offsetInCU: 0x189E6, offset: 0x189E6, size: 0x8, addend: 0x0, symName: __ZNKSt3__112basic_stringIcNS_11char_traitsIcEENS_9allocatorIcEEE4sizeB7v160006Ev, symObjAddr: 0xC058, symBinAddr: 0x10000E38C, symSize: 0x54 }
  - { offsetInCU: 0x18A0C, offset: 0x18A0C, size: 0x8, addend: 0x0, symName: __ZNKSt3__112basic_stringIcNS_11char_traitsIcEENS_9allocatorIcEEE4dataB7v160006Ev, symObjAddr: 0xC0AC, symBinAddr: 0x10000E3E0, symSize: 0x28 }
  - { offsetInCU: 0x18A32, offset: 0x18A32, size: 0x8, addend: 0x0, symName: __ZNKSt3__112basic_stringIcNS_11char_traitsIcEENS_9allocatorIcEEE9__is_longB7v160006Ev, symObjAddr: 0xC0D4, symBinAddr: 0x10000E408, symSize: 0xA4 }
  - { offsetInCU: 0x18A58, offset: 0x18A58, size: 0x8, addend: 0x0, symName: __ZNSt3__111char_traitsIcE7compareEPKcS3_m, symObjAddr: 0xC178, symBinAddr: 0x10000E4AC, symSize: 0x78 }
  - { offsetInCU: 0x18A97, offset: 0x18A97, size: 0x8, addend: 0x0, symName: __ZNKSt3__112basic_stringIcNS_11char_traitsIcEENS_9allocatorIcEEE15__get_long_sizeB7v160006Ev, symObjAddr: 0xC1F0, symBinAddr: 0x10000E524, symSize: 0x70 }
  - { offsetInCU: 0x18ABD, offset: 0x18ABD, size: 0x8, addend: 0x0, symName: __ZNKSt3__112basic_stringIcNS_11char_traitsIcEENS_9allocatorIcEEE16__get_short_sizeB7v160006Ev, symObjAddr: 0xC260, symBinAddr: 0x10000E594, symSize: 0xA0 }
  - { offsetInCU: 0x18AE3, offset: 0x18AE3, size: 0x8, addend: 0x0, symName: __ZNKSt3__117__compressed_pairINS_12basic_stringIcNS_11char_traitsIcEENS_9allocatorIcEEE5__repES5_E5firstB7v160006Ev, symObjAddr: 0xC300, symBinAddr: 0x10000E634, symSize: 0x24 }
  - { offsetInCU: 0x18B09, offset: 0x18B09, size: 0x8, addend: 0x0, symName: __ZNKSt3__122__compressed_pair_elemINS_12basic_stringIcNS_11char_traitsIcEENS_9allocatorIcEEE5__repELi0ELb0EE5__getB7v160006Ev, symObjAddr: 0xC324, symBinAddr: 0x10000E658, symSize: 0x14 }
  - { offsetInCU: 0x18B2F, offset: 0x18B2F, size: 0x8, addend: 0x0, symName: __ZNKSt3__112basic_stringIcNS_11char_traitsIcEENS_9allocatorIcEEE13__get_pointerB7v160006Ev, symObjAddr: 0xC34C, symBinAddr: 0x10000E680, symSize: 0x54 }
  - { offsetInCU: 0x18B55, offset: 0x18B55, size: 0x8, addend: 0x0, symName: __ZNKSt3__112basic_stringIcNS_11char_traitsIcEENS_9allocatorIcEEE18__get_long_pointerB7v160006Ev, symObjAddr: 0xC3A0, symBinAddr: 0x10000E6D4, symSize: 0x6C }
  - { offsetInCU: 0x18B7B, offset: 0x18B7B, size: 0x8, addend: 0x0, symName: __ZNKSt3__112basic_stringIcNS_11char_traitsIcEENS_9allocatorIcEEE19__get_short_pointerB7v160006Ev, symObjAddr: 0xC40C, symBinAddr: 0x10000E740, symSize: 0x28 }
  - { offsetInCU: 0x18BA1, offset: 0x18BA1, size: 0x8, addend: 0x0, symName: __ZNSt3__114pointer_traitsIPKcE10pointer_toB7v160006ERS1_, symObjAddr: 0xC434, symBinAddr: 0x10000E768, symSize: 0x14 }
  - { offsetInCU: 0x18BC4, offset: 0x18BC4, size: 0x8, addend: 0x0, symName: __ZN8CStudentD2Ev, symObjAddr: 0xC47C, symBinAddr: 0x10000E7B0, symSize: 0x2C }
  - { offsetInCU: 0x18BF0, offset: 0x18BF0, size: 0x8, addend: 0x0, symName: __ZNSt3__14listI8CStudentNS_9allocatorIS1_EEE9push_backERKS1_, symObjAddr: 0xC4A8, symBinAddr: 0x10000E7DC, symSize: 0x398 }
  - { offsetInCU: 0x18C4C, offset: 0x18C4C, size: 0x8, addend: 0x0, symName: __ZNSt3__110__list_impI8CStudentNS_9allocatorIS1_EEE12__node_allocB7v160006Ev, symObjAddr: 0xC840, symBinAddr: 0x10000EB74, symSize: 0x28 }
  - { offsetInCU: 0x18C72, offset: 0x18C72, size: 0x8, addend: 0x0, symName: __ZNSt3__14listI8CStudentNS_9allocatorIS1_EEE15__allocate_nodeB7v160006ERNS2_INS_11__list_nodeIS1_PvEEEE, symObjAddr: 0xC868, symBinAddr: 0x10000EB9C, symSize: 0x24C }
  - { offsetInCU: 0x18CB9, offset: 0x18CB9, size: 0x8, addend: 0x0, symName: __ZNSt3__116allocator_traitsINS_9allocatorINS_11__list_nodeI8CStudentPvEEEEE9constructB7v160006IS3_JRKS3_EvvEEvRS6_PT_DpOT0_, symObjAddr: 0xCAB4, symBinAddr: 0x10000EDE8, symSize: 0x30 }
  - { offsetInCU: 0x18D0D, offset: 0x18D0D, size: 0x8, addend: 0x0, symName: __ZNKSt3__110unique_ptrINS_11__list_nodeI8CStudentPvEENS_22__allocator_destructorINS_9allocatorIS4_EEEEEptB7v160006Ev, symObjAddr: 0xCAE4, symBinAddr: 0x10000EE18, symSize: 0x6C }
  - { offsetInCU: 0x18D33, offset: 0x18D33, size: 0x8, addend: 0x0, symName: __ZNSt3__14listI8CStudentNS_9allocatorIS1_EEE20__link_nodes_at_backEPNS_16__list_node_baseIS1_PvEES8_, symObjAddr: 0xCB50, symBinAddr: 0x10000EE84, symSize: 0x1CC }
  - { offsetInCU: 0x18D79, offset: 0x18D79, size: 0x8, addend: 0x0, symName: __ZNKSt3__110unique_ptrINS_11__list_nodeI8CStudentPvEENS_22__allocator_destructorINS_9allocatorIS4_EEEEE3getB7v160006Ev, symObjAddr: 0xCD1C, symBinAddr: 0x10000F050, symSize: 0x6C }
  - { offsetInCU: 0x18D9F, offset: 0x18D9F, size: 0x8, addend: 0x0, symName: __ZNSt3__111__list_nodeI8CStudentPvE9__as_linkB7v160006Ev, symObjAddr: 0xCD88, symBinAddr: 0x10000F0BC, symSize: 0x24 }
  - { offsetInCU: 0x18DC5, offset: 0x18DC5, size: 0x8, addend: 0x0, symName: __ZNSt3__110__list_impI8CStudentNS_9allocatorIS1_EEE4__szB7v160006Ev, symObjAddr: 0xCDAC, symBinAddr: 0x10000F0E0, symSize: 0x28 }
  - { offsetInCU: 0x18DEB, offset: 0x18DEB, size: 0x8, addend: 0x0, symName: __ZNSt3__110unique_ptrINS_11__list_nodeI8CStudentPvEENS_22__allocator_destructorINS_9allocatorIS4_EEEEE7releaseB7v160006Ev, symObjAddr: 0xCDD4, symBinAddr: 0x10000F108, symSize: 0xB8 }
  - { offsetInCU: 0x18E20, offset: 0x18E20, size: 0x8, addend: 0x0, symName: __ZNSt3__110unique_ptrINS_11__list_nodeI8CStudentPvEENS_22__allocator_destructorINS_9allocatorIS4_EEEEED1B7v160006Ev, symObjAddr: 0xCE8C, symBinAddr: 0x10000F1C0, symSize: 0x2C }
  - { offsetInCU: 0x18E4A, offset: 0x18E4A, size: 0x8, addend: 0x0, symName: __ZNSt3__117__compressed_pairImNS_9allocatorINS_11__list_nodeI8CStudentPvEEEEE6secondB7v160006Ev, symObjAddr: 0xCEB8, symBinAddr: 0x10000F1EC, symSize: 0x24 }
  - { offsetInCU: 0x18E70, offset: 0x18E70, size: 0x8, addend: 0x0, symName: __ZNSt3__122__compressed_pair_elemINS_9allocatorINS_11__list_nodeI8CStudentPvEEEELi1ELb1EE5__getB7v160006Ev, symObjAddr: 0xCEDC, symBinAddr: 0x10000F210, symSize: 0x14 }
  - { offsetInCU: 0x18E96, offset: 0x18E96, size: 0x8, addend: 0x0, symName: __ZNSt3__116allocator_traitsINS_9allocatorINS_11__list_nodeI8CStudentPvEEEEE8allocateB7v160006ERS6_m, symObjAddr: 0xCEF0, symBinAddr: 0x10000F224, symSize: 0x2C }
  - { offsetInCU: 0x18EC9, offset: 0x18EC9, size: 0x8, addend: 0x0, symName: __ZNSt3__122__allocator_destructorINS_9allocatorINS_11__list_nodeI8CStudentPvEEEEEC1B7v160006ERS6_m, symObjAddr: 0xCF1C, symBinAddr: 0x10000F250, symSize: 0x3C }
  - { offsetInCU: 0x18F15, offset: 0x18F15, size: 0x8, addend: 0x0, symName: __ZNSt3__110unique_ptrINS_11__list_nodeI8CStudentPvEENS_22__allocator_destructorINS_9allocatorIS4_EEEEEC1B7v160006ILb1EvEEPS4_NS_16__dependent_typeINS_27__unique_ptr_deleter_sfinaeIS8_EEXT_EE20__good_rval_ref_typeE, symObjAddr: 0xCF58, symBinAddr: 0x10000F28C, symSize: 0x3C }
  - { offsetInCU: 0x18F66, offset: 0x18F66, size: 0x8, addend: 0x0, symName: __ZNSt3__19allocatorINS_11__list_nodeI8CStudentPvEEE8allocateB7v160006Em, symObjAddr: 0xCF94, symBinAddr: 0x10000F2C8, symSize: 0x60 }
  - { offsetInCU: 0x18FA4, offset: 0x18FA4, size: 0x8, addend: 0x0, symName: __ZNSt3__116allocator_traitsINS_9allocatorINS_11__list_nodeI8CStudentPvEEEEE8max_sizeB7v160006IS6_vvEEmRKS6_, symObjAddr: 0xCFF4, symBinAddr: 0x10000F328, symSize: 0x28 }
  - { offsetInCU: 0x18FCF, offset: 0x18FCF, size: 0x8, addend: 0x0, symName: __ZNSt3__114numeric_limitsImE3maxB7v160006Ev, symObjAddr: 0xD0B4, symBinAddr: 0x10000F3E8, symSize: 0x14 }
  - { offsetInCU: 0x18FE3, offset: 0x18FE3, size: 0x8, addend: 0x0, symName: __ZNSt3__123__libcpp_numeric_limitsImLb1EE3maxB7v160006Ev, symObjAddr: 0xD0C8, symBinAddr: 0x10000F3FC, symSize: 0x8 }
  - { offsetInCU: 0x18FF7, offset: 0x18FF7, size: 0x8, addend: 0x0, symName: __ZNSt3__122__allocator_destructorINS_9allocatorINS_11__list_nodeI8CStudentPvEEEEEC2B7v160006ERS6_m, symObjAddr: 0xD140, symBinAddr: 0x10000F474, symSize: 0xBC }
  - { offsetInCU: 0x1903D, offset: 0x1903D, size: 0x8, addend: 0x0, symName: __ZNSt3__110unique_ptrINS_11__list_nodeI8CStudentPvEENS_22__allocator_destructorINS_9allocatorIS4_EEEEEC2B7v160006ILb1EvEEPS4_NS_16__dependent_typeINS_27__unique_ptr_deleter_sfinaeIS8_EEXT_EE20__good_rval_ref_typeE, symObjAddr: 0xD1FC, symBinAddr: 0x10000F530, symSize: 0x21C }
  - { offsetInCU: 0x19094, offset: 0x19094, size: 0x8, addend: 0x0, symName: __ZNSt3__117__compressed_pairIPNS_11__list_nodeI8CStudentPvEENS_22__allocator_destructorINS_9allocatorIS4_EEEEEC1B7v160006IRS5_S9_EEOT_OT0_, symObjAddr: 0xD418, symBinAddr: 0x10000F74C, symSize: 0x3C }
  - { offsetInCU: 0x190EC, offset: 0x190EC, size: 0x8, addend: 0x0, symName: __ZNSt3__117__compressed_pairIPNS_11__list_nodeI8CStudentPvEENS_22__allocator_destructorINS_9allocatorIS4_EEEEEC2B7v160006IRS5_S9_EEOT_OT0_, symObjAddr: 0xD454, symBinAddr: 0x10000F788, symSize: 0x48 }
  - { offsetInCU: 0x19144, offset: 0x19144, size: 0x8, addend: 0x0, symName: __ZNSt3__122__compressed_pair_elemIPNS_11__list_nodeI8CStudentPvEELi0ELb0EEC2B7v160006IRS5_vEEOT_, symObjAddr: 0xD49C, symBinAddr: 0x10000F7D0, symSize: 0xB0 }
  - { offsetInCU: 0x19186, offset: 0x19186, size: 0x8, addend: 0x0, symName: __ZNSt3__122__compressed_pair_elemINS_22__allocator_destructorINS_9allocatorINS_11__list_nodeI8CStudentPvEEEEEELi1ELb0EEC2B7v160006IS8_vEEOT_, symObjAddr: 0xD54C, symBinAddr: 0x10000F880, symSize: 0x38 }
  - { offsetInCU: 0x191C8, offset: 0x191C8, size: 0x8, addend: 0x0, symName: __ZN8CStudentC1ERKS_, symObjAddr: 0xD5C0, symBinAddr: 0x10000F8F4, symSize: 0x34 }
  - { offsetInCU: 0x191FD, offset: 0x191FD, size: 0x8, addend: 0x0, symName: __ZN8CStudentC2ERKS_, symObjAddr: 0xD5F4, symBinAddr: 0x10000F928, symSize: 0x4C }
  - { offsetInCU: 0x19232, offset: 0x19232, size: 0x8, addend: 0x0, symName: __ZNKSt3__117__compressed_pairIPNS_11__list_nodeI8CStudentPvEENS_22__allocator_destructorINS_9allocatorIS4_EEEEE5firstB7v160006Ev, symObjAddr: 0xD640, symBinAddr: 0x10000F974, symSize: 0x24 }
  - { offsetInCU: 0x19258, offset: 0x19258, size: 0x8, addend: 0x0, symName: __ZNKSt3__122__compressed_pair_elemIPNS_11__list_nodeI8CStudentPvEELi0ELb0EE5__getB7v160006Ev, symObjAddr: 0xD664, symBinAddr: 0x10000F998, symSize: 0x14 }
  - { offsetInCU: 0x1927E, offset: 0x1927E, size: 0x8, addend: 0x0, symName: __ZNKSt3__110__list_impI8CStudentNS_9allocatorIS1_EEE13__end_as_linkB7v160006Ev, symObjAddr: 0xD678, symBinAddr: 0x10000F9AC, symSize: 0x50 }
  - { offsetInCU: 0x192A4, offset: 0x192A4, size: 0x8, addend: 0x0, symName: __ZNSt3__126__list_node_pointer_traitsI8CStudentPvE26__unsafe_link_pointer_castB7v160006EPNS_16__list_node_baseIS1_S2_EE, symObjAddr: 0xD6C8, symBinAddr: 0x10000F9FC, symSize: 0x14 }
  - { offsetInCU: 0x192C8, offset: 0x192C8, size: 0x8, addend: 0x0, symName: __ZNSt3__116__list_node_baseI8CStudentPvE6__selfB7v160006Ev, symObjAddr: 0xD6DC, symBinAddr: 0x10000FA10, symSize: 0x24 }
  - { offsetInCU: 0x192F3, offset: 0x192F3, size: 0x8, addend: 0x0, symName: __ZNSt3__114pointer_traitsIPNS_16__list_node_baseI8CStudentPvEEE10pointer_toB7v160006ERS4_, symObjAddr: 0xD700, symBinAddr: 0x10000FA34, symSize: 0x14 }
  - { offsetInCU: 0x19316, offset: 0x19316, size: 0x8, addend: 0x0, symName: __ZNSt3__117__compressed_pairImNS_9allocatorINS_11__list_nodeI8CStudentPvEEEEE5firstB7v160006Ev, symObjAddr: 0xD714, symBinAddr: 0x10000FA48, symSize: 0x24 }
  - { offsetInCU: 0x1933C, offset: 0x1933C, size: 0x8, addend: 0x0, symName: __ZNSt3__122__compressed_pair_elemImLi0ELb0EE5__getB7v160006Ev, symObjAddr: 0xD738, symBinAddr: 0x10000FA6C, symSize: 0x14 }
  - { offsetInCU: 0x19362, offset: 0x19362, size: 0x8, addend: 0x0, symName: __ZNSt3__117__compressed_pairIPNS_11__list_nodeI8CStudentPvEENS_22__allocator_destructorINS_9allocatorIS4_EEEEE5firstB7v160006Ev, symObjAddr: 0xD74C, symBinAddr: 0x10000FA80, symSize: 0x24 }
  - { offsetInCU: 0x19388, offset: 0x19388, size: 0x8, addend: 0x0, symName: __ZNSt3__122__compressed_pair_elemIPNS_11__list_nodeI8CStudentPvEELi0ELb0EE5__getB7v160006Ev, symObjAddr: 0xD770, symBinAddr: 0x10000FAA4, symSize: 0x14 }
  - { offsetInCU: 0x193AE, offset: 0x193AE, size: 0x8, addend: 0x0, symName: __ZNSt3__110unique_ptrINS_11__list_nodeI8CStudentPvEENS_22__allocator_destructorINS_9allocatorIS4_EEEEED2B7v160006Ev, symObjAddr: 0xD784, symBinAddr: 0x10000FAB8, symSize: 0x30 }
  - { offsetInCU: 0x193D8, offset: 0x193D8, size: 0x8, addend: 0x0, symName: __ZNSt3__110unique_ptrINS_11__list_nodeI8CStudentPvEENS_22__allocator_destructorINS_9allocatorIS4_EEEEE5resetB7v160006EPS4_, symObjAddr: 0xD7B4, symBinAddr: 0x10000FAE8, symSize: 0xEC }
  - { offsetInCU: 0x1941C, offset: 0x1941C, size: 0x8, addend: 0x0, symName: __ZNSt3__117__compressed_pairIPNS_11__list_nodeI8CStudentPvEENS_22__allocator_destructorINS_9allocatorIS4_EEEEE6secondB7v160006Ev, symObjAddr: 0xD8A0, symBinAddr: 0x10000FBD4, symSize: 0x28 }
  - { offsetInCU: 0x19442, offset: 0x19442, size: 0x8, addend: 0x0, symName: __ZNSt3__122__allocator_destructorINS_9allocatorINS_11__list_nodeI8CStudentPvEEEEEclB7v160006EPS5_, symObjAddr: 0xD8C8, symBinAddr: 0x10000FBFC, symSize: 0xB8 }
  - { offsetInCU: 0x19476, offset: 0x19476, size: 0x8, addend: 0x0, symName: __ZNSt3__122__compressed_pair_elemINS_22__allocator_destructorINS_9allocatorINS_11__list_nodeI8CStudentPvEEEEEELi1ELb0EE5__getB7v160006Ev, symObjAddr: 0xD980, symBinAddr: 0x10000FCB4, symSize: 0x14 }
  - { offsetInCU: 0x1949C, offset: 0x1949C, size: 0x8, addend: 0x0, symName: __ZNSt3__116allocator_traitsINS_9allocatorINS_11__list_nodeI8CStudentPvEEEEE10deallocateB7v160006ERS6_PS5_m, symObjAddr: 0xD994, symBinAddr: 0x10000FCC8, symSize: 0x34 }
  - { offsetInCU: 0x194DE, offset: 0x194DE, size: 0x8, addend: 0x0, symName: __ZNSt3__19allocatorINS_11__list_nodeI8CStudentPvEEE10deallocateB7v160006EPS4_m, symObjAddr: 0xD9C8, symBinAddr: 0x10000FCFC, symSize: 0x50 }
  - { offsetInCU: 0x19520, offset: 0x19520, size: 0x8, addend: 0x0, symName: __ZNSt3__16vectorI8CStudentNS_9allocatorIS1_EEEC1B7v160006Ev, symObjAddr: 0xDB20, symBinAddr: 0x10000FE54, symSize: 0x2C }
  - { offsetInCU: 0x1954A, offset: 0x1954A, size: 0x8, addend: 0x0, symName: __ZNK5CSort7isEmptyEv, symObjAddr: 0xDB4C, symBinAddr: 0x10000FE80, symSize: 0x28 }
  - { offsetInCU: 0x19570, offset: 0x19570, size: 0x8, addend: 0x0, symName: __ZNKSt3__14listI8CStudentNS_9allocatorIS1_EEE5beginB7v160006Ev, symObjAddr: 0xDF7C, symBinAddr: 0x1000102B0, symSize: 0x234 }
  - { offsetInCU: 0x19597, offset: 0x19597, size: 0x8, addend: 0x0, symName: __ZNKSt3__14listI8CStudentNS_9allocatorIS1_EEE3endB7v160006Ev, symObjAddr: 0xE1B0, symBinAddr: 0x1000104E4, symSize: 0x234 }
  - { offsetInCU: 0x195BE, offset: 0x195BE, size: 0x8, addend: 0x0, symName: __ZNSt3__16vectorI8CStudentNS_9allocatorIS1_EEE5beginB7v160006Ev, symObjAddr: 0xED3C, symBinAddr: 0x100011070, symSize: 0x268 }
  - { offsetInCU: 0x195E7, offset: 0x195E7, size: 0x8, addend: 0x0, symName: __ZNSt3__16vectorI8CStudentNS_9allocatorIS1_EEE3endB7v160006Ev, symObjAddr: 0xEFA4, symBinAddr: 0x1000112D8, symSize: 0x26C }
  - { offsetInCU: 0x19610, offset: 0x19610, size: 0x8, addend: 0x0, symName: __ZN5CSortC1ERKS_, symObjAddr: 0xF210, symBinAddr: 0x100011544, symSize: 0x34 }
  - { offsetInCU: 0x1964A, offset: 0x1964A, size: 0x8, addend: 0x0, symName: __ZNSt3__14listI8CStudentNS_9allocatorIS1_EEEC1INS_11__wrap_iterIPS1_EEEET_S9_PNS_9enable_ifIXsr25__is_cpp17_input_iteratorIS9_EE5valueEvE4typeE, symObjAddr: 0xF244, symBinAddr: 0x100011578, symSize: 0x314 }
  - { offsetInCU: 0x196B2, offset: 0x196B2, size: 0x8, addend: 0x0, symName: __ZNSt3__16vectorI8CStudentNS_9allocatorIS1_EEED1B7v160006Ev, symObjAddr: 0xF558, symBinAddr: 0x10001188C, symSize: 0x2C }
  - { offsetInCU: 0x196DC, offset: 0x196DC, size: 0x8, addend: 0x0, symName: __ZNSt3__16vectorI8CStudentNS_9allocatorIS1_EEEC2B7v160006Ev, symObjAddr: 0xF584, symBinAddr: 0x1000118B8, symSize: 0x2F4 }
  - { offsetInCU: 0x1970D, offset: 0x1970D, size: 0x8, addend: 0x0, symName: __ZNSt3__117__compressed_pairIP8CStudentNS_9allocatorIS1_EEEC1B7v160006IDnNS_18__default_init_tagEEEOT_OT0_, symObjAddr: 0xF878, symBinAddr: 0x100011BAC, symSize: 0x3C }
  - { offsetInCU: 0x19765, offset: 0x19765, size: 0x8, addend: 0x0, symName: __ZNSt3__117__compressed_pairIP8CStudentNS_9allocatorIS1_EEEC2B7v160006IDnNS_18__default_init_tagEEEOT_OT0_, symObjAddr: 0xF8C4, symBinAddr: 0x100011BF8, symSize: 0x40 }
  - { offsetInCU: 0x197BD, offset: 0x197BD, size: 0x8, addend: 0x0, symName: __ZNSt3__122__compressed_pair_elemIP8CStudentLi0ELb0EEC2B7v160006IDnvEEOT_, symObjAddr: 0xF904, symBinAddr: 0x100011C38, symSize: 0x64 }
  - { offsetInCU: 0x197FF, offset: 0x197FF, size: 0x8, addend: 0x0, symName: __ZNSt3__122__compressed_pair_elemINS_9allocatorI8CStudentEELi1ELb1EEC2B7v160006ENS_18__default_init_tagE, symObjAddr: 0xF968, symBinAddr: 0x100011C9C, symSize: 0x2C }
  - { offsetInCU: 0x19833, offset: 0x19833, size: 0x8, addend: 0x0, symName: __ZNSt3__19allocatorI8CStudentEC2B7v160006Ev, symObjAddr: 0xF994, symBinAddr: 0x100011CC8, symSize: 0x2C }
  - { offsetInCU: 0x1985D, offset: 0x1985D, size: 0x8, addend: 0x0, symName: __ZNSt3__116__non_trivial_ifILb1ENS_9allocatorI8CStudentEEEC2B7v160006Ev, symObjAddr: 0xF9C0, symBinAddr: 0x100011CF4, symSize: 0x14 }
  - { offsetInCU: 0x19887, offset: 0x19887, size: 0x8, addend: 0x0, symName: __ZNKSt3__16vectorINS_4pairI8ESortKeybEENS_9allocatorIS3_EEE5emptyB7v160006Ev, symObjAddr: 0xF9D4, symBinAddr: 0x100011D08, symSize: 0xB0 }
  - { offsetInCU: 0x198B7, offset: 0x198B7, size: 0x8, addend: 0x0, symName: __ZZNK10CStudyDept6searchERK7CFilterRK5CSortENKUlRK8CStudentE_clES8_, symObjAddr: 0xFAB8, symBinAddr: 0x100011DEC, symSize: 0x70 }
  - { offsetInCU: 0x198EF, offset: 0x198EF, size: 0x8, addend: 0x0, symName: __ZNKSt3__121__list_const_iteratorI8CStudentPvEdeB7v160006Ev, symObjAddr: 0xFB28, symBinAddr: 0x100011E5C, symSize: 0x68 }
  - { offsetInCU: 0x19915, offset: 0x19915, size: 0x8, addend: 0x0, symName: __ZNSt3__120back_insert_iteratorINS_6vectorI8CStudentNS_9allocatorIS2_EEEEEdeB7v160006Ev, symObjAddr: 0xFB90, symBinAddr: 0x100011EC4, symSize: 0x14 }
  - { offsetInCU: 0x1993B, offset: 0x1993B, size: 0x8, addend: 0x0, symName: __ZNSt3__120back_insert_iteratorINS_6vectorI8CStudentNS_9allocatorIS2_EEEEEaSB7v160006ERKS2_, symObjAddr: 0xFBA4, symBinAddr: 0x100011ED8, symSize: 0x70 }
  - { offsetInCU: 0x1996F, offset: 0x1996F, size: 0x8, addend: 0x0, symName: __ZNSt3__120back_insert_iteratorINS_6vectorI8CStudentNS_9allocatorIS2_EEEEEppB7v160006Ev, symObjAddr: 0xFC14, symBinAddr: 0x100011F48, symSize: 0x14 }
  - { offsetInCU: 0x19995, offset: 0x19995, size: 0x8, addend: 0x0, symName: __ZNSt3__121__list_const_iteratorI8CStudentPvEppB7v160006Ev, symObjAddr: 0xFC28, symBinAddr: 0x100011F5C, symSize: 0xE0 }
  - { offsetInCU: 0x199BB, offset: 0x199BB, size: 0x8, addend: 0x0, symName: __ZNK7CFilter7matchesERK8CStudent, symObjAddr: 0xFDC0, symBinAddr: 0x1000120F4, symSize: 0x628 }
  - { offsetInCU: 0x199F1, offset: 0x199F1, size: 0x8, addend: 0x0, symName: __ZNKSt3__18optionalINS_12basic_stringIcNS_11char_traitsIcEENS_9allocatorIcEEEEEcvbB7v160006Ev, symObjAddr: 0x103E8, symBinAddr: 0x10001271C, symSize: 0x28 }
  - { offsetInCU: 0x19A17, offset: 0x19A17, size: 0x8, addend: 0x0, symName: __ZN7CFilter11nameMatchesERKNSt3__112basic_stringIcNS0_11char_traitsIcEENS0_9allocatorIcEEEES8_, symObjAddr: 0x10410, symBinAddr: 0x100012744, symSize: 0x62C }
  - { offsetInCU: 0x19A6E, offset: 0x19A6E, size: 0x8, addend: 0x0, symName: __ZNK8CStudent7getNameEv, symObjAddr: 0x10A3C, symBinAddr: 0x100012D70, symSize: 0x14 }
  - { offsetInCU: 0x19A94, offset: 0x19A94, size: 0x8, addend: 0x0, symName: __ZNKRSt3__18optionalINS_12basic_stringIcNS_11char_traitsIcEENS_9allocatorIcEEEEE5valueB7v160006Ev, symObjAddr: 0x10A50, symBinAddr: 0x100012D84, symSize: 0x40 }
  - { offsetInCU: 0x19ABA, offset: 0x19ABA, size: 0x8, addend: 0x0, symName: __ZNKSt3__18optionalI5CDateEcvbB7v160006Ev, symObjAddr: 0x10A90, symBinAddr: 0x100012DC4, symSize: 0x28 }
  - { offsetInCU: 0x19AE0, offset: 0x19AE0, size: 0x8, addend: 0x0, symName: __ZNK8CStudent14getDateOfBirthEv, symObjAddr: 0x10D2C, symBinAddr: 0x100013060, symSize: 0x18 }
  - { offsetInCU: 0x19B06, offset: 0x19B06, size: 0x8, addend: 0x0, symName: __ZNK5CDatessERKS_, symObjAddr: 0x10D44, symBinAddr: 0x100013078, symSize: 0x9A8 }
  - { offsetInCU: 0x19B9D, offset: 0x19B9D, size: 0x8, addend: 0x0, symName: __ZNKRSt3__18optionalI5CDateE5valueB7v160006Ev, symObjAddr: 0x116EC, symBinAddr: 0x100013A20, symSize: 0x40 }
  - { offsetInCU: 0x19BD2, offset: 0x19BD2, size: 0x8, addend: 0x0, symName: __ZNSt3__120_CmpUnspecifiedParamC1B7v160006EMS0_i, symObjAddr: 0x1172C, symBinAddr: 0x100013A60, symSize: 0x34 }
  - { offsetInCU: 0x19C06, offset: 0x19C06, size: 0x8, addend: 0x0, symName: __ZNKSt3__18optionalIiEcvbB7v160006Ev, symObjAddr: 0x119D4, symBinAddr: 0x100013D08, symSize: 0x28 }
  - { offsetInCU: 0x19C2C, offset: 0x19C2C, size: 0x8, addend: 0x0, symName: __ZNK8CStudent15getEnrolledYearEv, symObjAddr: 0x119FC, symBinAddr: 0x100013D30, symSize: 0x8C }
  - { offsetInCU: 0x19C52, offset: 0x19C52, size: 0x8, addend: 0x0, symName: __ZNKRSt3__18optionalIiE5valueB7v160006Ev, symObjAddr: 0x11A88, symBinAddr: 0x100013DBC, symSize: 0x40 }
  - { offsetInCU: 0x19C78, offset: 0x19C78, size: 0x8, addend: 0x0, symName: __ZNKSt3__123__optional_storage_baseINS_12basic_stringIcNS_11char_traitsIcEENS_9allocatorIcEEEELb0EE9has_valueB7v160006Ev, symObjAddr: 0x11AC8, symBinAddr: 0x100013DFC, symSize: 0x8C }
  - { offsetInCU: 0x19C9E, offset: 0x19C9E, size: 0x8, addend: 0x0, symName: __ZN7CFilter12splitToLowerERKNSt3__112basic_stringIcNS0_11char_traitsIcEENS0_9allocatorIcEEEE, symObjAddr: 0x11B54, symBinAddr: 0x100013E88, symSize: 0x598 }
  - { offsetInCU: 0x19D38, offset: 0x19D38, size: 0x8, addend: 0x0, symName: __ZNSt3__16vectorINS_12basic_stringIcNS_11char_traitsIcEENS_9allocatorIcEEEENS4_IS6_EEE5beginB7v160006Ev, symObjAddr: 0x12434, symBinAddr: 0x100014768, symSize: 0x268 }
  - { offsetInCU: 0x19D61, offset: 0x19D61, size: 0x8, addend: 0x0, symName: __ZNSt3__16vectorINS_12basic_stringIcNS_11char_traitsIcEENS_9allocatorIcEEEENS4_IS6_EEE3endB7v160006Ev, symObjAddr: 0x1269C, symBinAddr: 0x1000149D0, symSize: 0x26C }
  - { offsetInCU: 0x19D8A, offset: 0x19D8A, size: 0x8, addend: 0x0, symName: __ZNSt3__16vectorINS_12basic_stringIcNS_11char_traitsIcEENS_9allocatorIcEEEENS4_IS6_EEED1B7v160006Ev, symObjAddr: 0x12D04, symBinAddr: 0x100015038, symSize: 0x2C }
  - { offsetInCU: 0x19DB4, offset: 0x19DB4, size: 0x8, addend: 0x0, symName: __ZNSt3__16vectorINS_12basic_stringIcNS_11char_traitsIcEENS_9allocatorIcEEEENS4_IS6_EEEC1B7v160006Ev, symObjAddr: 0x12D30, symBinAddr: 0x100015064, symSize: 0x2C }
  - { offsetInCU: 0x19DDE, offset: 0x19DDE, size: 0x8, addend: 0x0, symName: __ZNSt3__112basic_stringIcNS_11char_traitsIcEENS_9allocatorIcEEEC1B7v160006Ev, symObjAddr: 0x12D5C, symBinAddr: 0x100015090, symSize: 0x2C }
  - { offsetInCU: 0x19E08, offset: 0x19E08, size: 0x8, addend: 0x0, symName: __ZNKSt3__112basic_stringIcNS_11char_traitsIcEENS_9allocatorIcEEE5beginB7v160006Ev, symObjAddr: 0x12D88, symBinAddr: 0x1000150BC, symSize: 0x258 }
  - { offsetInCU: 0x19E2F, offset: 0x19E2F, size: 0x8, addend: 0x0, symName: __ZNKSt3__112basic_stringIcNS_11char_traitsIcEENS_9allocatorIcEEE3endB7v160006Ev, symObjAddr: 0x12FE0, symBinAddr: 0x100015314, symSize: 0x25C }
  - { offsetInCU: 0x19E56, offset: 0x19E56, size: 0x8, addend: 0x0, symName: __ZNKSt3__111__wrap_iterIPKcEdeB7v160006Ev, symObjAddr: 0x13270, symBinAddr: 0x1000155A4, symSize: 0x60 }
  - { offsetInCU: 0x19E7C, offset: 0x19E7C, size: 0x8, addend: 0x0, symName: __ZNKSt3__112basic_stringIcNS_11char_traitsIcEENS_9allocatorIcEEE5emptyB7v160006Ev, symObjAddr: 0x132F8, symBinAddr: 0x10001562C, symSize: 0x30 }
  - { offsetInCU: 0x19EA2, offset: 0x19EA2, size: 0x8, addend: 0x0, symName: __ZNSt3__16vectorINS_12basic_stringIcNS_11char_traitsIcEENS_9allocatorIcEEEENS4_IS6_EEE9push_backB7v160006ERKS6_, symObjAddr: 0x13328, symBinAddr: 0x10001565C, symSize: 0xE0 }
  - { offsetInCU: 0x19ED9, offset: 0x19ED9, size: 0x8, addend: 0x0, symName: __ZNSt3__112basic_stringIcNS_11char_traitsIcEENS_9allocatorIcEEE5clearB7v160006Ev, symObjAddr: 0x13408, symBinAddr: 0x10001573C, symSize: 0x328 }
  - { offsetInCU: 0x19F02, offset: 0x19F02, size: 0x8, addend: 0x0, symName: __ZNSt3__112basic_stringIcNS_11char_traitsIcEENS_9allocatorIcEEEpLB7v160006Ec, symObjAddr: 0x13754, symBinAddr: 0x100015A88, symSize: 0x34 }
  - { offsetInCU: 0x19F37, offset: 0x19F37, size: 0x8, addend: 0x0, symName: __ZNSt3__111__wrap_iterIPKcEppB7v160006Ev, symObjAddr: 0x13788, symBinAddr: 0x100015ABC, symSize: 0x68 }
  - { offsetInCU: 0x19F5D, offset: 0x19F5D, size: 0x8, addend: 0x0, symName: __ZNSt3__16vectorINS_12basic_stringIcNS_11char_traitsIcEENS_9allocatorIcEEEENS4_IS6_EEEC2B7v160006Ev, symObjAddr: 0x137F0, symBinAddr: 0x100015B24, symSize: 0x2F4 }
  - { offsetInCU: 0x19F88, offset: 0x19F88, size: 0x8, addend: 0x0, symName: __ZNSt3__117__compressed_pairIPNS_12basic_stringIcNS_11char_traitsIcEENS_9allocatorIcEEEENS4_IS6_EEEC1B7v160006IDnNS_18__default_init_tagEEEOT_OT0_, symObjAddr: 0x13AE4, symBinAddr: 0x100015E18, symSize: 0x3C }
  - { offsetInCU: 0x19FE0, offset: 0x19FE0, size: 0x8, addend: 0x0, symName: __ZNSt3__117__compressed_pairIPNS_12basic_stringIcNS_11char_traitsIcEENS_9allocatorIcEEEENS4_IS6_EEEC2B7v160006IDnNS_18__default_init_tagEEEOT_OT0_, symObjAddr: 0x13B30, symBinAddr: 0x100015E64, symSize: 0x40 }
  - { offsetInCU: 0x1A038, offset: 0x1A038, size: 0x8, addend: 0x0, symName: __ZNSt3__122__compressed_pair_elemIPNS_12basic_stringIcNS_11char_traitsIcEENS_9allocatorIcEEEELi0ELb0EEC2B7v160006IDnvEEOT_, symObjAddr: 0x13B70, symBinAddr: 0x100015EA4, symSize: 0x64 }
  - { offsetInCU: 0x1A07A, offset: 0x1A07A, size: 0x8, addend: 0x0, symName: __ZNSt3__122__compressed_pair_elemINS_9allocatorINS_12basic_stringIcNS_11char_traitsIcEENS1_IcEEEEEELi1ELb1EEC2B7v160006ENS_18__default_init_tagE, symObjAddr: 0x13BD4, symBinAddr: 0x100015F08, symSize: 0x2C }
  - { offsetInCU: 0x1A0AE, offset: 0x1A0AE, size: 0x8, addend: 0x0, symName: __ZNSt3__19allocatorINS_12basic_stringIcNS_11char_traitsIcEENS0_IcEEEEEC2B7v160006Ev, symObjAddr: 0x13C00, symBinAddr: 0x100015F34, symSize: 0x2C }
  - { offsetInCU: 0x1A0D8, offset: 0x1A0D8, size: 0x8, addend: 0x0, symName: __ZNSt3__116__non_trivial_ifILb1ENS_9allocatorINS_12basic_stringIcNS_11char_traitsIcEENS1_IcEEEEEEEC2B7v160006Ev, symObjAddr: 0x13C2C, symBinAddr: 0x100015F60, symSize: 0x14 }
  - { offsetInCU: 0x1A102, offset: 0x1A102, size: 0x8, addend: 0x0, symName: __ZNSt3__112basic_stringIcNS_11char_traitsIcEENS_9allocatorIcEEEC2B7v160006Ev, symObjAddr: 0x13C40, symBinAddr: 0x100015F74, symSize: 0x214 }
  - { offsetInCU: 0x1A12D, offset: 0x1A12D, size: 0x8, addend: 0x0, symName: __ZNSt3__112basic_stringIcNS_11char_traitsIcEENS_9allocatorIcEEE14__default_initB7v160006Ev, symObjAddr: 0x13E54, symBinAddr: 0x100016188, symSize: 0x22C }
  - { offsetInCU: 0x1A154, offset: 0x1A154, size: 0x8, addend: 0x0, symName: __ZNSt3__117__compressed_pairINS_12basic_stringIcNS_11char_traitsIcEENS_9allocatorIcEEE5__repES5_E5firstB7v160006Ev, symObjAddr: 0x14080, symBinAddr: 0x1000163B4, symSize: 0x24 }
  - { offsetInCU: 0x1A17A, offset: 0x1A17A, size: 0x8, addend: 0x0, symName: __ZNSt3__122__compressed_pair_elemINS_12basic_stringIcNS_11char_traitsIcEENS_9allocatorIcEEE5__repELi0ELb0EE5__getB7v160006Ev, symObjAddr: 0x140A4, symBinAddr: 0x1000163D8, symSize: 0x14 }
  - { offsetInCU: 0x1A1A0, offset: 0x1A1A0, size: 0x8, addend: 0x0, symName: __ZNKSt3__112basic_stringIcNS_11char_traitsIcEENS_9allocatorIcEEE21__make_const_iteratorB7v160006EPKc, symObjAddr: 0x140B8, symBinAddr: 0x1000163EC, symSize: 0x200 }
  - { offsetInCU: 0x1A1D7, offset: 0x1A1D7, size: 0x8, addend: 0x0, symName: __ZNSt3__111__wrap_iterIPKcEC1B7v160006EPKvS2_, symObjAddr: 0x142B8, symBinAddr: 0x1000165EC, symSize: 0x3C }
  - { offsetInCU: 0x1A21D, offset: 0x1A21D, size: 0x8, addend: 0x0, symName: __ZNSt3__111__wrap_iterIPKcEC2B7v160006EPKvS2_, symObjAddr: 0x142F4, symBinAddr: 0x100016628, symSize: 0x74 }
  - { offsetInCU: 0x1A263, offset: 0x1A263, size: 0x8, addend: 0x0, symName: __ZNKSt3__111__wrap_iterIPKcE4baseB7v160006Ev, symObjAddr: 0x143B0, symBinAddr: 0x1000166E4, symSize: 0x60 }
  - { offsetInCU: 0x1A288, offset: 0x1A288, size: 0x8, addend: 0x0, symName: __Z8__istypeim, symObjAddr: 0x14410, symBinAddr: 0x100016744, symSize: 0xFC }
  - { offsetInCU: 0x1A2C2, offset: 0x1A2C2, size: 0x8, addend: 0x0, symName: __Z7isasciii, symObjAddr: 0x1450C, symBinAddr: 0x100016840, symSize: 0x24 }
  - { offsetInCU: 0x1A2EF, offset: 0x1A2EF, size: 0x8, addend: 0x0, symName: __ZNSt3__16vectorINS_12basic_stringIcNS_11char_traitsIcEENS_9allocatorIcEEEENS4_IS6_EEE9__end_capB7v160006Ev, symObjAddr: 0x14530, symBinAddr: 0x100016864, symSize: 0x28 }
  - { offsetInCU: 0x1A315, offset: 0x1A315, size: 0x8, addend: 0x0, symName: __ZNSt3__16vectorINS_12basic_stringIcNS_11char_traitsIcEENS_9allocatorIcEEEENS4_IS6_EEE22__construct_one_at_endB7v160006IJRKS6_EEEvDpOT_, symObjAddr: 0x14558, symBinAddr: 0x10001688C, symSize: 0x36C }
  - { offsetInCU: 0x1A36A, offset: 0x1A36A, size: 0x8, addend: 0x0, symName: __ZNSt3__16vectorINS_12basic_stringIcNS_11char_traitsIcEENS_9allocatorIcEEEENS4_IS6_EEE21__push_back_slow_pathIRKS6_EEvOT_, symObjAddr: 0x148C4, symBinAddr: 0x100016BF8, symSize: 0x3C0 }
  - { offsetInCU: 0x1A3CF, offset: 0x1A3CF, size: 0x8, addend: 0x0, symName: __ZNSt3__117__compressed_pairIPNS_12basic_stringIcNS_11char_traitsIcEENS_9allocatorIcEEEENS4_IS6_EEE5firstB7v160006Ev, symObjAddr: 0x14C84, symBinAddr: 0x100016FB8, symSize: 0x24 }
  - { offsetInCU: 0x1A3F5, offset: 0x1A3F5, size: 0x8, addend: 0x0, symName: __ZNSt3__122__compressed_pair_elemIPNS_12basic_stringIcNS_11char_traitsIcEENS_9allocatorIcEEEELi0ELb0EE5__getB7v160006Ev, symObjAddr: 0x14CA8, symBinAddr: 0x100016FDC, symSize: 0x14 }
  - { offsetInCU: 0x1A434, offset: 0x1A434, size: 0x8, addend: 0x0, symName: __ZNSt3__16vectorINS_12basic_stringIcNS_11char_traitsIcEENS_9allocatorIcEEEENS4_IS6_EEE21_ConstructTransactionC1B7v160006ERS8_m, symObjAddr: 0x14CBC, symBinAddr: 0x100016FF0, symSize: 0x3C }
  - { offsetInCU: 0x1A47C, offset: 0x1A47C, size: 0x8, addend: 0x0, symName: __ZNSt3__116allocator_traitsINS_9allocatorINS_12basic_stringIcNS_11char_traitsIcEENS1_IcEEEEEEE9constructB7v160006IS6_JRKS6_EvvEEvRS7_PT_DpOT0_, symObjAddr: 0x14CF8, symBinAddr: 0x10001702C, symSize: 0x30 }
  - { offsetInCU: 0x1A4D0, offset: 0x1A4D0, size: 0x8, addend: 0x0, symName: __ZNSt3__16vectorINS_12basic_stringIcNS_11char_traitsIcEENS_9allocatorIcEEEENS4_IS6_EEE7__allocB7v160006Ev, symObjAddr: 0x14D28, symBinAddr: 0x10001705C, symSize: 0x28 }
  - { offsetInCU: 0x1A4F6, offset: 0x1A4F6, size: 0x8, addend: 0x0, symName: __ZNSt3__16vectorINS_12basic_stringIcNS_11char_traitsIcEENS_9allocatorIcEEEENS4_IS6_EEE21_ConstructTransactionD1B7v160006Ev, symObjAddr: 0x14D64, symBinAddr: 0x100017098, symSize: 0x2C }
  - { offsetInCU: 0x1A520, offset: 0x1A520, size: 0x8, addend: 0x0, symName: __ZNSt3__16vectorINS_12basic_stringIcNS_11char_traitsIcEENS_9allocatorIcEEEENS4_IS6_EEE21_ConstructTransactionC2B7v160006ERS8_m, symObjAddr: 0x14D90, symBinAddr: 0x1000170C4, symSize: 0x1D8 }
  - { offsetInCU: 0x1A568, offset: 0x1A568, size: 0x8, addend: 0x0, symName: __ZNKSt3__16vectorINS_12basic_stringIcNS_11char_traitsIcEENS_9allocatorIcEEEENS4_IS6_EEE19__annotate_increaseB7v160006Em, symObjAddr: 0x14F68, symBinAddr: 0x10001729C, symSize: 0xF8 }
  - { offsetInCU: 0x1A59D, offset: 0x1A59D, size: 0x8, addend: 0x0, symName: __ZNKSt3__16vectorINS_12basic_stringIcNS_11char_traitsIcEENS_9allocatorIcEEEENS4_IS6_EEE31__annotate_contiguous_containerEPKvSA_SA_SA_, symObjAddr: 0x15060, symBinAddr: 0x100017394, symSize: 0x58 }
  - { offsetInCU: 0x1A5FF, offset: 0x1A5FF, size: 0x8, addend: 0x0, symName: __ZNKSt3__16vectorINS_12basic_stringIcNS_11char_traitsIcEENS_9allocatorIcEEEENS4_IS6_EEE4dataB7v160006Ev, symObjAddr: 0x150B8, symBinAddr: 0x1000173EC, symSize: 0x64 }
  - { offsetInCU: 0x1A625, offset: 0x1A625, size: 0x8, addend: 0x0, symName: __ZNKSt3__16vectorINS_12basic_stringIcNS_11char_traitsIcEENS_9allocatorIcEEEENS4_IS6_EEE8capacityB7v160006Ev, symObjAddr: 0x1511C, symBinAddr: 0x100017450, symSize: 0xBC }
  - { offsetInCU: 0x1A64B, offset: 0x1A64B, size: 0x8, addend: 0x0, symName: __ZNKSt3__16vectorINS_12basic_stringIcNS_11char_traitsIcEENS_9allocatorIcEEEENS4_IS6_EEE4sizeB7v160006Ev, symObjAddr: 0x151D8, symBinAddr: 0x10001750C, symSize: 0xB0 }
  - { offsetInCU: 0x1A671, offset: 0x1A671, size: 0x8, addend: 0x0, symName: __ZNKSt3__16vectorINS_12basic_stringIcNS_11char_traitsIcEENS_9allocatorIcEEEENS4_IS6_EEE9__end_capB7v160006Ev, symObjAddr: 0x15288, symBinAddr: 0x1000175BC, symSize: 0x28 }
  - { offsetInCU: 0x1A697, offset: 0x1A697, size: 0x8, addend: 0x0, symName: __ZNKSt3__117__compressed_pairIPNS_12basic_stringIcNS_11char_traitsIcEENS_9allocatorIcEEEENS4_IS6_EEE5firstB7v160006Ev, symObjAddr: 0x152B0, symBinAddr: 0x1000175E4, symSize: 0x24 }
  - { offsetInCU: 0x1A6BD, offset: 0x1A6BD, size: 0x8, addend: 0x0, symName: __ZNKSt3__122__compressed_pair_elemIPNS_12basic_stringIcNS_11char_traitsIcEENS_9allocatorIcEEEELi0ELb0EE5__getB7v160006Ev, symObjAddr: 0x152D4, symBinAddr: 0x100017608, symSize: 0x14 }
  - { offsetInCU: 0x1A6E3, offset: 0x1A6E3, size: 0x8, addend: 0x0, symName: __ZNSt3__117__compressed_pairIPNS_12basic_stringIcNS_11char_traitsIcEENS_9allocatorIcEEEENS4_IS6_EEE6secondB7v160006Ev, symObjAddr: 0x15324, symBinAddr: 0x100017658, symSize: 0x24 }
  - { offsetInCU: 0x1A709, offset: 0x1A709, size: 0x8, addend: 0x0, symName: __ZNSt3__122__compressed_pair_elemINS_9allocatorINS_12basic_stringIcNS_11char_traitsIcEENS1_IcEEEEEELi1ELb1EE5__getB7v160006Ev, symObjAddr: 0x15348, symBinAddr: 0x10001767C, symSize: 0x14 }
  - { offsetInCU: 0x1A72F, offset: 0x1A72F, size: 0x8, addend: 0x0, symName: __ZNSt3__16vectorINS_12basic_stringIcNS_11char_traitsIcEENS_9allocatorIcEEEENS4_IS6_EEE21_ConstructTransactionD2B7v160006Ev, symObjAddr: 0x1535C, symBinAddr: 0x100017690, symSize: 0x278 }
  - { offsetInCU: 0x1A759, offset: 0x1A759, size: 0x8, addend: 0x0, symName: __ZNKSt3__16vectorINS_12basic_stringIcNS_11char_traitsIcEENS_9allocatorIcEEEENS4_IS6_EEE17__annotate_shrinkB7v160006Em, symObjAddr: 0x155D4, symBinAddr: 0x100017908, symSize: 0xE4 }
  - { offsetInCU: 0x1A78E, offset: 0x1A78E, size: 0x8, addend: 0x0, symName: __ZNKSt3__16vectorINS_12basic_stringIcNS_11char_traitsIcEENS_9allocatorIcEEEENS4_IS6_EEE11__recommendB7v160006Em, symObjAddr: 0x156B8, symBinAddr: 0x1000179EC, symSize: 0x384 }
  - { offsetInCU: 0x1A7EA, offset: 0x1A7EA, size: 0x8, addend: 0x0, symName: __ZNSt3__114__split_bufferINS_12basic_stringIcNS_11char_traitsIcEENS_9allocatorIcEEEERNS4_IS6_EEEC1EmmS8_, symObjAddr: 0x15A3C, symBinAddr: 0x100017D70, symSize: 0x44 }
  - { offsetInCU: 0x1A840, offset: 0x1A840, size: 0x8, addend: 0x0, symName: __ZNSt3__114__split_bufferINS_12basic_stringIcNS_11char_traitsIcEENS_9allocatorIcEEEERNS4_IS6_EEED1Ev, symObjAddr: 0x15FF4, symBinAddr: 0x100018328, symSize: 0x2C }
  - { offsetInCU: 0x1A86C, offset: 0x1A86C, size: 0x8, addend: 0x0, symName: __ZNKSt3__16vectorINS_12basic_stringIcNS_11char_traitsIcEENS_9allocatorIcEEEENS4_IS6_EEE8max_sizeEv, symObjAddr: 0x16020, symBinAddr: 0x100018354, symSize: 0x2FC }
  - { offsetInCU: 0x1A895, offset: 0x1A895, size: 0x8, addend: 0x0, symName: __ZNKSt3__16vectorINS_12basic_stringIcNS_11char_traitsIcEENS_9allocatorIcEEEENS4_IS6_EEE20__throw_length_errorB7v160006Ev, symObjAddr: 0x1631C, symBinAddr: 0x100018650, symSize: 0x20 }
  - { offsetInCU: 0x1A8C5, offset: 0x1A8C5, size: 0x8, addend: 0x0, symName: __ZNSt3__116allocator_traitsINS_9allocatorINS_12basic_stringIcNS_11char_traitsIcEENS1_IcEEEEEEE8max_sizeB7v160006IS7_vvEEmRKS7_, symObjAddr: 0x16394, symBinAddr: 0x1000186C8, symSize: 0x28 }
  - { offsetInCU: 0x1A8F0, offset: 0x1A8F0, size: 0x8, addend: 0x0, symName: __ZNKSt3__16vectorINS_12basic_stringIcNS_11char_traitsIcEENS_9allocatorIcEEEENS4_IS6_EEE7__allocB7v160006Ev, symObjAddr: 0x163BC, symBinAddr: 0x1000186F0, symSize: 0x28 }
  - { offsetInCU: 0x1A916, offset: 0x1A916, size: 0x8, addend: 0x0, symName: __ZNSt3__114numeric_limitsIlE3maxB7v160006Ev, symObjAddr: 0x163E4, symBinAddr: 0x100018718, symSize: 0x14 }
  - { offsetInCU: 0x1A934, offset: 0x1A934, size: 0x8, addend: 0x0, symName: __ZNKSt3__16__lessImmEclB7v160006ERKmS3_, symObjAddr: 0x165E0, symBinAddr: 0x100018914, symSize: 0xBC }
  - { offsetInCU: 0x1A976, offset: 0x1A976, size: 0x8, addend: 0x0, symName: __ZNKSt3__117__compressed_pairIPNS_12basic_stringIcNS_11char_traitsIcEENS_9allocatorIcEEEENS4_IS6_EEE6secondB7v160006Ev, symObjAddr: 0x1669C, symBinAddr: 0x1000189D0, symSize: 0x24 }
  - { offsetInCU: 0x1A99C, offset: 0x1A99C, size: 0x8, addend: 0x0, symName: __ZNKSt3__122__compressed_pair_elemINS_9allocatorINS_12basic_stringIcNS_11char_traitsIcEENS1_IcEEEEEELi1ELb1EE5__getB7v160006Ev, symObjAddr: 0x166C0, symBinAddr: 0x1000189F4, symSize: 0x14 }
  - { offsetInCU: 0x1A9C2, offset: 0x1A9C2, size: 0x8, addend: 0x0, symName: __ZNSt3__123__libcpp_numeric_limitsIlLb1EE3maxB7v160006Ev, symObjAddr: 0x166D4, symBinAddr: 0x100018A08, symSize: 0x8 }
  - { offsetInCU: 0x1A9D6, offset: 0x1A9D6, size: 0x8, addend: 0x0, symName: __ZNSt12length_errorC1B7v160006EPKc, symObjAddr: 0x16744, symBinAddr: 0x100018A78, symSize: 0x34 }
  - { offsetInCU: 0x1AA0E, offset: 0x1AA0E, size: 0x8, addend: 0x0, symName: __ZNSt12length_errorC2B7v160006EPKc, symObjAddr: 0x16778, symBinAddr: 0x100018AAC, symSize: 0x8C }
  - { offsetInCU: 0x1AA46, offset: 0x1AA46, size: 0x8, addend: 0x0, symName: __ZNSt3__114__split_bufferINS_12basic_stringIcNS_11char_traitsIcEENS_9allocatorIcEEEERNS4_IS6_EEEC2EmmS8_, symObjAddr: 0x169EC, symBinAddr: 0x100018D20, symSize: 0x530 }
  - { offsetInCU: 0x1AAC1, offset: 0x1AAC1, size: 0x8, addend: 0x0, symName: __ZNSt3__117__compressed_pairIPNS_12basic_stringIcNS_11char_traitsIcEENS_9allocatorIcEEEERNS4_IS6_EEEC1B7v160006IDnS9_EEOT_OT0_, symObjAddr: 0x16F1C, symBinAddr: 0x100019250, symSize: 0x3C }
  - { offsetInCU: 0x1AB19, offset: 0x1AB19, size: 0x8, addend: 0x0, symName: __ZNSt3__114__split_bufferINS_12basic_stringIcNS_11char_traitsIcEENS_9allocatorIcEEEERNS4_IS6_EEE7__allocB7v160006Ev, symObjAddr: 0x171E4, symBinAddr: 0x100019518, symSize: 0x28 }
  - { offsetInCU: 0x1AB3F, offset: 0x1AB3F, size: 0x8, addend: 0x0, symName: __ZNSt3__114__split_bufferINS_12basic_stringIcNS_11char_traitsIcEENS_9allocatorIcEEEERNS4_IS6_EEE9__end_capB7v160006Ev, symObjAddr: 0x1720C, symBinAddr: 0x100019540, symSize: 0x28 }
  - { offsetInCU: 0x1AB65, offset: 0x1AB65, size: 0x8, addend: 0x0, symName: __ZNSt3__117__compressed_pairIPNS_12basic_stringIcNS_11char_traitsIcEENS_9allocatorIcEEEERNS4_IS6_EEEC2B7v160006IDnS9_EEOT_OT0_, symObjAddr: 0x17234, symBinAddr: 0x100019568, symSize: 0x48 }
  - { offsetInCU: 0x1ABBD, offset: 0x1ABBD, size: 0x8, addend: 0x0, symName: __ZNSt3__122__compressed_pair_elemIRNS_9allocatorINS_12basic_stringIcNS_11char_traitsIcEENS1_IcEEEEEELi1ELb0EEC2B7v160006IS8_vEEOT_, symObjAddr: 0x1727C, symBinAddr: 0x1000195B0, symSize: 0x70 }
  - { offsetInCU: 0x1ABFF, offset: 0x1ABFF, size: 0x8, addend: 0x0, symName: __ZNSt3__19allocatorINS_12basic_stringIcNS_11char_traitsIcEENS0_IcEEEEE8allocateB7v160006Em, symObjAddr: 0x172EC, symBinAddr: 0x100019620, symSize: 0x60 }
  - { offsetInCU: 0x1AC33, offset: 0x1AC33, size: 0x8, addend: 0x0, symName: __ZNSt3__117__compressed_pairIPNS_12basic_stringIcNS_11char_traitsIcEENS_9allocatorIcEEEERNS4_IS6_EEE6secondB7v160006Ev, symObjAddr: 0x1734C, symBinAddr: 0x100019680, symSize: 0x28 }
  - { offsetInCU: 0x1AC59, offset: 0x1AC59, size: 0x8, addend: 0x0, symName: __ZNSt3__122__compressed_pair_elemIRNS_9allocatorINS_12basic_stringIcNS_11char_traitsIcEENS1_IcEEEEEELi1ELb0EE5__getB7v160006Ev, symObjAddr: 0x17374, symBinAddr: 0x1000196A8, symSize: 0x60 }
  - { offsetInCU: 0x1AC7F, offset: 0x1AC7F, size: 0x8, addend: 0x0, symName: __ZNSt3__117__compressed_pairIPNS_12basic_stringIcNS_11char_traitsIcEENS_9allocatorIcEEEERNS4_IS6_EEE5firstB7v160006Ev, symObjAddr: 0x173D4, symBinAddr: 0x100019708, symSize: 0x24 }
  - { offsetInCU: 0x1ACA5, offset: 0x1ACA5, size: 0x8, addend: 0x0, symName: __ZNKSt3__16vectorINS_12basic_stringIcNS_11char_traitsIcEENS_9allocatorIcEEEENS4_IS6_EEE17__annotate_deleteB7v160006Ev, symObjAddr: 0x173F8, symBinAddr: 0x10001972C, symSize: 0xE8 }
  - { offsetInCU: 0x1ACCB, offset: 0x1ACCB, size: 0x8, addend: 0x0, symName: __ZNSt3__116reverse_iteratorIPNS_12basic_stringIcNS_11char_traitsIcEENS_9allocatorIcEEEEEC1B7v160006ES7_, symObjAddr: 0x17A24, symBinAddr: 0x100019D58, symSize: 0x34 }
  - { offsetInCU: 0x1AD03, offset: 0x1AD03, size: 0x8, addend: 0x0, symName: __ZNKSt3__116reverse_iteratorIPNS_12basic_stringIcNS_11char_traitsIcEENS_9allocatorIcEEEEE4baseB7v160006Ev, symObjAddr: 0x17A58, symBinAddr: 0x100019D8C, symSize: 0x64 }
  - { offsetInCU: 0x1AD29, offset: 0x1AD29, size: 0x8, addend: 0x0, symName: __ZNKSt3__16vectorINS_12basic_stringIcNS_11char_traitsIcEENS_9allocatorIcEEEENS4_IS6_EEE14__annotate_newB7v160006Em, symObjAddr: 0x17BF0, symBinAddr: 0x100019F24, symSize: 0xDC }
  - { offsetInCU: 0x1AD5E, offset: 0x1AD5E, size: 0x8, addend: 0x0, symName: __ZNSt3__129_AllocatorDestroyRangeReverseINS_9allocatorINS_12basic_stringIcNS_11char_traitsIcEENS1_IcEEEEEENS_16reverse_iteratorIPS6_EEEC1B7v160006ERS7_RSA_SD_, symObjAddr: 0x17ED4, symBinAddr: 0x10001A208, symSize: 0x44 }
  - { offsetInCU: 0x1ADBB, offset: 0x1ADBB, size: 0x8, addend: 0x0, symName: __ZNSt3__116allocator_traitsINS_9allocatorINS_12basic_stringIcNS_11char_traitsIcEENS1_IcEEEEEEE9constructB7v160006IS6_JS6_EvvEEvRS7_PT_DpOT0_, symObjAddr: 0x17F60, symBinAddr: 0x10001A294, symSize: 0x30 }
  - { offsetInCU: 0x1AE0F, offset: 0x1AE0F, size: 0x8, addend: 0x0, symName: __ZNKSt3__116reverse_iteratorIPNS_12basic_stringIcNS_11char_traitsIcEENS_9allocatorIcEEEEEdeB7v160006Ev, symObjAddr: 0x17FB4, symBinAddr: 0x10001A2E8, symSize: 0x74 }
  - { offsetInCU: 0x1AE43, offset: 0x1AE43, size: 0x8, addend: 0x0, symName: __ZNSt3__116reverse_iteratorIPNS_12basic_stringIcNS_11char_traitsIcEENS_9allocatorIcEEEEEppB7v160006Ev, symObjAddr: 0x18028, symBinAddr: 0x10001A35C, symSize: 0x6C }
  - { offsetInCU: 0x1AE69, offset: 0x1AE69, size: 0x8, addend: 0x0, symName: __ZNSt3__128__exception_guard_exceptionsINS_29_AllocatorDestroyRangeReverseINS_9allocatorINS_12basic_stringIcNS_11char_traitsIcEENS2_IcEEEEEENS_16reverse_iteratorIPS7_EEEEE10__completeB7v160006Ev, symObjAddr: 0x18094, symBinAddr: 0x10001A3C8, symSize: 0x8C }
  - { offsetInCU: 0x1AE8F, offset: 0x1AE8F, size: 0x8, addend: 0x0, symName: __ZNSt3__128__exception_guard_exceptionsINS_29_AllocatorDestroyRangeReverseINS_9allocatorINS_12basic_stringIcNS_11char_traitsIcEENS2_IcEEEEEENS_16reverse_iteratorIPS7_EEEEED1B7v160006Ev, symObjAddr: 0x18120, symBinAddr: 0x10001A454, symSize: 0x2C }
  - { offsetInCU: 0x1AEB9, offset: 0x1AEB9, size: 0x8, addend: 0x0, symName: __ZNSt3__128__exception_guard_exceptionsINS_29_AllocatorDestroyRangeReverseINS_9allocatorINS_12basic_stringIcNS_11char_traitsIcEENS2_IcEEEEEENS_16reverse_iteratorIPS7_EEEEEC1B7v160006ESC_, symObjAddr: 0x1814C, symBinAddr: 0x10001A480, symSize: 0x34 }
  - { offsetInCU: 0x1AEF2, offset: 0x1AEF2, size: 0x8, addend: 0x0, symName: __ZNSt3__128__exception_guard_exceptionsINS_29_AllocatorDestroyRangeReverseINS_9allocatorINS_12basic_stringIcNS_11char_traitsIcEENS2_IcEEEEEENS_16reverse_iteratorIPS7_EEEEEC2B7v160006ESC_, symObjAddr: 0x18180, symBinAddr: 0x10001A4B4, symSize: 0xA4 }
  - { offsetInCU: 0x1AF2B, offset: 0x1AF2B, size: 0x8, addend: 0x0, symName: __ZNSt3__129_AllocatorDestroyRangeReverseINS_9allocatorINS_12basic_stringIcNS_11char_traitsIcEENS1_IcEEEEEENS_16reverse_iteratorIPS6_EEEC2B7v160006ERS7_RSA_SD_, symObjAddr: 0x18224, symBinAddr: 0x10001A558, symSize: 0x104 }
  - { offsetInCU: 0x1AF82, offset: 0x1AF82, size: 0x8, addend: 0x0, symName: __ZNSt3__112basic_stringIcNS_11char_traitsIcEENS_9allocatorIcEEEC1B7v160006EOS5_, symObjAddr: 0x18364, symBinAddr: 0x10001A698, symSize: 0x34 }
  - { offsetInCU: 0x1AFBB, offset: 0x1AFBB, size: 0x8, addend: 0x0, symName: __ZNSt3__112basic_stringIcNS_11char_traitsIcEENS_9allocatorIcEEEC2B7v160006EOS5_, symObjAddr: 0x18398, symBinAddr: 0x10001A6CC, symSize: 0x80 }
  - { offsetInCU: 0x1AFF9, offset: 0x1AFF9, size: 0x8, addend: 0x0, symName: __ZNSt3__119__to_address_helperINS_16reverse_iteratorIPNS_12basic_stringIcNS_11char_traitsIcEENS_9allocatorIcEEEEEEvE6__callB7v160006ERKS9_, symObjAddr: 0x1842C, symBinAddr: 0x10001A760, symSize: 0x44 }
  - { offsetInCU: 0x1B01C, offset: 0x1B01C, size: 0x8, addend: 0x0, symName: __ZNKSt3__116reverse_iteratorIPNS_12basic_stringIcNS_11char_traitsIcEENS_9allocatorIcEEEEEptB7v160006Ev, symObjAddr: 0x18470, symBinAddr: 0x10001A7A4, symSize: 0x6C }
  - { offsetInCU: 0x1B042, offset: 0x1B042, size: 0x8, addend: 0x0, symName: __ZNSt3__128__exception_guard_exceptionsINS_29_AllocatorDestroyRangeReverseINS_9allocatorINS_12basic_stringIcNS_11char_traitsIcEENS2_IcEEEEEENS_16reverse_iteratorIPS7_EEEEED2B7v160006Ev, symObjAddr: 0x1881C, symBinAddr: 0x10001AB50, symSize: 0xBC }
  - { offsetInCU: 0x1B06C, offset: 0x1B06C, size: 0x8, addend: 0x0, symName: __ZNKSt3__129_AllocatorDestroyRangeReverseINS_9allocatorINS_12basic_stringIcNS_11char_traitsIcEENS1_IcEEEEEENS_16reverse_iteratorIPS6_EEEclB7v160006Ev, symObjAddr: 0x188D8, symBinAddr: 0x10001AC0C, symSize: 0x3A8 }
  - { offsetInCU: 0x1B093, offset: 0x1B093, size: 0x8, addend: 0x0, symName: __ZNSt3__116reverse_iteratorINS0_IPNS_12basic_stringIcNS_11char_traitsIcEENS_9allocatorIcEEEEEEEC1B7v160006ES8_, symObjAddr: 0x18CF0, symBinAddr: 0x10001B024, symSize: 0x248 }
  - { offsetInCU: 0x1B0D0, offset: 0x1B0D0, size: 0x8, addend: 0x0, symName: __ZNSt3__116allocator_traitsINS_9allocatorINS_12basic_stringIcNS_11char_traitsIcEENS1_IcEEEEEEE7destroyB7v160006IS6_vvEEvRS7_PT_, symObjAddr: 0x19204, symBinAddr: 0x10001B538, symSize: 0x28 }
  - { offsetInCU: 0x1B10A, offset: 0x1B10A, size: 0x8, addend: 0x0, symName: __ZNSt3__116reverse_iteratorINS0_IPNS_12basic_stringIcNS_11char_traitsIcEENS_9allocatorIcEEEEEEEppB7v160006Ev, symObjAddr: 0x19250, symBinAddr: 0x10001B584, symSize: 0x30 }
  - { offsetInCU: 0x1B130, offset: 0x1B130, size: 0x8, addend: 0x0, symName: __ZNKSt3__116reverse_iteratorINS0_IPNS_12basic_stringIcNS_11char_traitsIcEENS_9allocatorIcEEEEEEE4baseB7v160006Ev, symObjAddr: 0x19280, symBinAddr: 0x10001B5B4, symSize: 0x20C }
  - { offsetInCU: 0x1B15C, offset: 0x1B15C, size: 0x8, addend: 0x0, symName: __ZNSt3__119__to_address_helperINS_16reverse_iteratorINS1_IPNS_12basic_stringIcNS_11char_traitsIcEENS_9allocatorIcEEEEEEEEvE6__callB7v160006ERKSA_, symObjAddr: 0x194D4, symBinAddr: 0x10001B808, symSize: 0x44 }
  - { offsetInCU: 0x1B17F, offset: 0x1B17F, size: 0x8, addend: 0x0, symName: __ZNKSt3__116reverse_iteratorINS0_IPNS_12basic_stringIcNS_11char_traitsIcEENS_9allocatorIcEEEEEEEptB7v160006Ev, symObjAddr: 0x19518, symBinAddr: 0x10001B84C, symSize: 0x2A0 }
  - { offsetInCU: 0x1B1A6, offset: 0x1B1A6, size: 0x8, addend: 0x0, symName: __ZNSt3__116reverse_iteratorIPNS_12basic_stringIcNS_11char_traitsIcEENS_9allocatorIcEEEEEpLB7v160006El, symObjAddr: 0x19AE4, symBinAddr: 0x10001BE18, symSize: 0x84 }
  - { offsetInCU: 0x1B1DA, offset: 0x1B1DA, size: 0x8, addend: 0x0, symName: __ZNSt3__116reverse_iteratorIPNS_12basic_stringIcNS_11char_traitsIcEENS_9allocatorIcEEEEEmmB7v160006Ev, symObjAddr: 0x19B68, symBinAddr: 0x10001BE9C, symSize: 0x6C }
  - { offsetInCU: 0x1B200, offset: 0x1B200, size: 0x8, addend: 0x0, symName: __ZNSt3__116reverse_iteratorINS0_IPNS_12basic_stringIcNS_11char_traitsIcEENS_9allocatorIcEEEEEEEC2B7v160006ES8_, symObjAddr: 0x19BD4, symBinAddr: 0x10001BF08, symSize: 0x22C }
  - { offsetInCU: 0x1B23D, offset: 0x1B23D, size: 0x8, addend: 0x0, symName: __ZNSt3__116reverse_iteratorIPNS_12basic_stringIcNS_11char_traitsIcEENS_9allocatorIcEEEEEC2B7v160006ES7_, symObjAddr: 0x19E00, symBinAddr: 0x10001C134, symSize: 0xB8 }
  - { offsetInCU: 0x1B275, offset: 0x1B275, size: 0x8, addend: 0x0, symName: __ZNSt3__114__split_bufferINS_12basic_stringIcNS_11char_traitsIcEENS_9allocatorIcEEEERNS4_IS6_EEED2Ev, symObjAddr: 0x19EB8, symBinAddr: 0x10001C1EC, symSize: 0x104 }
  - { offsetInCU: 0x1B2A1, offset: 0x1B2A1, size: 0x8, addend: 0x0, symName: __ZNSt3__114__split_bufferINS_12basic_stringIcNS_11char_traitsIcEENS_9allocatorIcEEEERNS4_IS6_EEE5clearB7v160006Ev, symObjAddr: 0x19FBC, symBinAddr: 0x10001C2F0, symSize: 0x68 }
  - { offsetInCU: 0x1B2C7, offset: 0x1B2C7, size: 0x8, addend: 0x0, symName: __ZNSt3__116allocator_traitsINS_9allocatorINS_12basic_stringIcNS_11char_traitsIcEENS1_IcEEEEEEE10deallocateB7v160006ERS7_PS6_m, symObjAddr: 0x1A024, symBinAddr: 0x10001C358, symSize: 0x34 }
  - { offsetInCU: 0x1B309, offset: 0x1B309, size: 0x8, addend: 0x0, symName: __ZNKSt3__114__split_bufferINS_12basic_stringIcNS_11char_traitsIcEENS_9allocatorIcEEEERNS4_IS6_EEE8capacityB7v160006Ev, symObjAddr: 0x1A058, symBinAddr: 0x10001C38C, symSize: 0xBC }
  - { offsetInCU: 0x1B32F, offset: 0x1B32F, size: 0x8, addend: 0x0, symName: __ZNSt3__114__split_bufferINS_12basic_stringIcNS_11char_traitsIcEENS_9allocatorIcEEEERNS4_IS6_EEE17__destruct_at_endB7v160006EPS6_, symObjAddr: 0x1A114, symBinAddr: 0x10001C448, symSize: 0x2C }
  - { offsetInCU: 0x1B363, offset: 0x1B363, size: 0x8, addend: 0x0, symName: __ZNSt3__114__split_bufferINS_12basic_stringIcNS_11char_traitsIcEENS_9allocatorIcEEEERNS4_IS6_EEE17__destruct_at_endB7v160006EPS6_NS_17integral_constantIbLb0EEE, symObjAddr: 0x1A140, symBinAddr: 0x10001C474, symSize: 0x10C }
  - { offsetInCU: 0x1B3A3, offset: 0x1B3A3, size: 0x8, addend: 0x0, symName: __ZNSt3__19allocatorINS_12basic_stringIcNS_11char_traitsIcEENS0_IcEEEEE10deallocateB7v160006EPS5_m, symObjAddr: 0x1A24C, symBinAddr: 0x10001C580, symSize: 0x50 }
  - { offsetInCU: 0x1B3E5, offset: 0x1B3E5, size: 0x8, addend: 0x0, symName: __ZNKSt3__114__split_bufferINS_12basic_stringIcNS_11char_traitsIcEENS_9allocatorIcEEEERNS4_IS6_EEE9__end_capB7v160006Ev, symObjAddr: 0x1A29C, symBinAddr: 0x10001C5D0, symSize: 0x28 }
  - { offsetInCU: 0x1B40B, offset: 0x1B40B, size: 0x8, addend: 0x0, symName: __ZNKSt3__117__compressed_pairIPNS_12basic_stringIcNS_11char_traitsIcEENS_9allocatorIcEEEERNS4_IS6_EEE5firstB7v160006Ev, symObjAddr: 0x1A2C4, symBinAddr: 0x10001C5F8, symSize: 0x24 }
  - { offsetInCU: 0x1B431, offset: 0x1B431, size: 0x8, addend: 0x0, symName: __ZNSt3__111char_traitsIcE6assignERcRKc, symObjAddr: 0x1A2F8, symBinAddr: 0x10001C62C, symSize: 0xF4 }
  - { offsetInCU: 0x1B462, offset: 0x1B462, size: 0x8, addend: 0x0, symName: __ZNSt3__112basic_stringIcNS_11char_traitsIcEENS_9allocatorIcEEE18__get_long_pointerB7v160006Ev, symObjAddr: 0x1A3EC, symBinAddr: 0x10001C720, symSize: 0x6C }
  - { offsetInCU: 0x1B488, offset: 0x1B488, size: 0x8, addend: 0x0, symName: __ZNSt3__112basic_stringIcNS_11char_traitsIcEENS_9allocatorIcEEE15__set_long_sizeB7v160006Em, symObjAddr: 0x1A458, symBinAddr: 0x10001C78C, symSize: 0x80 }
  - { offsetInCU: 0x1B4BD, offset: 0x1B4BD, size: 0x8, addend: 0x0, symName: __ZNSt3__112basic_stringIcNS_11char_traitsIcEENS_9allocatorIcEEE19__get_short_pointerB7v160006Ev, symObjAddr: 0x1A4D8, symBinAddr: 0x10001C80C, symSize: 0x28 }
  - { offsetInCU: 0x1B4E3, offset: 0x1B4E3, size: 0x8, addend: 0x0, symName: __ZNSt3__112basic_stringIcNS_11char_traitsIcEENS_9allocatorIcEEE16__set_short_sizeB7v160006Em, symObjAddr: 0x1A500, symBinAddr: 0x10001C834, symSize: 0x130 }
  - { offsetInCU: 0x1B518, offset: 0x1B518, size: 0x8, addend: 0x0, symName: __ZNSt3__114pointer_traitsIPcE10pointer_toB7v160006ERc, symObjAddr: 0x1A630, symBinAddr: 0x10001C964, symSize: 0x14 }
  - { offsetInCU: 0x1B54A, offset: 0x1B54A, size: 0x8, addend: 0x0, symName: __ZNSt3__116_UnwrapAlgPolicyIRNS_6__lessINS_12basic_stringIcNS_11char_traitsIcEENS_9allocatorIcEEEES7_EEE10__get_compB7v160006ES9_, symObjAddr: 0x1B380, symBinAddr: 0x10001D6B4, symSize: 0x14 }
  - { offsetInCU: 0x1B56D, offset: 0x1B56D, size: 0x8, addend: 0x0, symName: __ZNKSt3__16__lessINS_12basic_stringIcNS_11char_traitsIcEENS_9allocatorIcEEEES6_EclB7v160006ERKS6_S9_, symObjAddr: 0x1D268, symBinAddr: 0x10001F59C, symSize: 0x2AC }
  - { offsetInCU: 0x1B5B7, offset: 0x1B5B7, size: 0x8, addend: 0x0, symName: __ZNSt3__18_IterOpsINS_17_ClassicAlgPolicyEE9iter_swapB7v160006IRPNS_12basic_stringIcNS_11char_traitsIcEENS_9allocatorIcEEEESB_EEvOT_OT0_, symObjAddr: 0x1D514, symBinAddr: 0x10001F848, symSize: 0xB0 }
  - { offsetInCU: 0x1B5FA, offset: 0x1B5FA, size: 0x8, addend: 0x0, symName: __ZNKSt3__112basic_stringIcNS_11char_traitsIcEENS_9allocatorIcEEEcvNS_17basic_string_viewIcS2_EEB7v160006Ev, symObjAddr: 0x1F960, symBinAddr: 0x100021C94, symSize: 0x228 }
  - { offsetInCU: 0x1B621, offset: 0x1B621, size: 0x8, addend: 0x0, symName: __ZNKSt3__117basic_string_viewIcNS_11char_traitsIcEEE7compareES3_, symObjAddr: 0x1FB88, symBinAddr: 0x100021EBC, symSize: 0x434 }
  - { offsetInCU: 0x1B67B, offset: 0x1B67B, size: 0x8, addend: 0x0, symName: __ZNKSt3__117basic_string_viewIcNS_11char_traitsIcEEE4sizeB7v160006Ev, symObjAddr: 0x1FFBC, symBinAddr: 0x1000222F0, symSize: 0x64 }
  - { offsetInCU: 0x1B6A1, offset: 0x1B6A1, size: 0x8, addend: 0x0, symName: __ZNKSt3__117basic_string_viewIcNS_11char_traitsIcEEE4dataB7v160006Ev, symObjAddr: 0x20020, symBinAddr: 0x100022354, symSize: 0x60 }
  - { offsetInCU: 0x1B6C7, offset: 0x1B6C7, size: 0x8, addend: 0x0, symName: __ZNSt3__117basic_string_viewIcNS_11char_traitsIcEEEC1B7v160006EPKcm, symObjAddr: 0x20080, symBinAddr: 0x1000223B4, symSize: 0x3C }
  - { offsetInCU: 0x1B70F, offset: 0x1B70F, size: 0x8, addend: 0x0, symName: __ZNSt3__117basic_string_viewIcNS_11char_traitsIcEEEC2B7v160006EPKcm, symObjAddr: 0x200BC, symBinAddr: 0x1000223F0, symSize: 0xE0 }
  - { offsetInCU: 0x1B757, offset: 0x1B757, size: 0x8, addend: 0x0, symName: __ZNSt3__112basic_stringIcNS_11char_traitsIcEENS_9allocatorIcEEE4swapB7v160006ERS5_, symObjAddr: 0x201F4, symBinAddr: 0x100022528, symSize: 0xA8 }
  - { offsetInCU: 0x1B78E, offset: 0x1B78E, size: 0x8, addend: 0x0, symName: __ZNSt3__112basic_stringIcNS_11char_traitsIcEENS_9allocatorIcEEE7__allocB7v160006Ev, symObjAddr: 0x204FC, symBinAddr: 0x100022830, symSize: 0x24 }
  - { offsetInCU: 0x1B7B4, offset: 0x1B7B4, size: 0x8, addend: 0x0, symName: __ZNSt3__117__compressed_pairINS_12basic_stringIcNS_11char_traitsIcEENS_9allocatorIcEEE5__repES5_E6secondB7v160006Ev, symObjAddr: 0x20534, symBinAddr: 0x100022868, symSize: 0x24 }
  - { offsetInCU: 0x1B7DA, offset: 0x1B7DA, size: 0x8, addend: 0x0, symName: __ZNSt3__122__compressed_pair_elemINS_9allocatorIcEELi1ELb1EE5__getB7v160006Ev, symObjAddr: 0x20558, symBinAddr: 0x10002288C, symSize: 0x14 }
  - { offsetInCU: 0x1B800, offset: 0x1B800, size: 0x8, addend: 0x0, symName: __ZNSt3__18_IterOpsINS_17_ClassicAlgPolicyEE11__iter_moveB7v160006IRPNS_12basic_stringIcNS_11char_traitsIcEENS_9allocatorIcEEEEEENS_9enable_ifIXsr12is_referenceIDTdeclsr3stdE7declvalIRT_EEEEE5valueEDTclsr3stdE4movedeclsr3stdE7declvalISE_EEEEE4typeEOSD_, symObjAddr: 0x20B74, symBinAddr: 0x100022EA8, symSize: 0x6C }
  - { offsetInCU: 0x1B82C, offset: 0x1B82C, size: 0x8, addend: 0x0, symName: __ZNSt3__112basic_stringIcNS_11char_traitsIcEENS_9allocatorIcEEEaSB7v160006EOS5_, symObjAddr: 0x20BE0, symBinAddr: 0x100022F14, symSize: 0x34 }
  - { offsetInCU: 0x1B861, offset: 0x1B861, size: 0x8, addend: 0x0, symName: __ZNSt3__18_IterOpsINS_17_ClassicAlgPolicyEE25__validate_iter_referenceB7v160006IRPNS_12basic_stringIcNS_11char_traitsIcEENS_9allocatorIcEEEEEEvv, symObjAddr: 0x20C14, symBinAddr: 0x100022F48, symSize: 0x4 }
  - { offsetInCU: 0x1B87F, offset: 0x1B87F, size: 0x8, addend: 0x0, symName: __ZNSt3__112basic_stringIcNS_11char_traitsIcEENS_9allocatorIcEEE13__move_assignB7v160006ERS5_NS_17integral_constantIbLb1EEE, symObjAddr: 0x20C18, symBinAddr: 0x100022F4C, symSize: 0x2D0 }
  - { offsetInCU: 0x1B8C4, offset: 0x1B8C4, size: 0x8, addend: 0x0, symName: __ZNSt3__116allocator_traitsINS_9allocatorIcEEE10deallocateB7v160006ERS2_Pcm, symObjAddr: 0x20EE8, symBinAddr: 0x10002321C, symSize: 0x34 }
  - { offsetInCU: 0x1B906, offset: 0x1B906, size: 0x8, addend: 0x0, symName: __ZNKSt3__112basic_stringIcNS_11char_traitsIcEENS_9allocatorIcEEE14__get_long_capB7v160006Ev, symObjAddr: 0x20F1C, symBinAddr: 0x100023250, symSize: 0x78 }
  - { offsetInCU: 0x1B92C, offset: 0x1B92C, size: 0x8, addend: 0x0, symName: __ZNSt3__112basic_stringIcNS_11char_traitsIcEENS_9allocatorIcEEE19__move_assign_allocB7v160006ERS5_, symObjAddr: 0x20F94, symBinAddr: 0x1000232C8, symSize: 0x2C }
  - { offsetInCU: 0x1B961, offset: 0x1B961, size: 0x8, addend: 0x0, symName: __ZNSt3__19allocatorIcE10deallocateB7v160006EPcm, symObjAddr: 0x20FC0, symBinAddr: 0x1000232F4, symSize: 0x4C }
  - { offsetInCU: 0x1B9A3, offset: 0x1B9A3, size: 0x8, addend: 0x0, symName: __ZNSt3__112basic_stringIcNS_11char_traitsIcEENS_9allocatorIcEEE19__move_assign_allocB7v160006ERS5_NS_17integral_constantIbLb1EEE, symObjAddr: 0x2100C, symBinAddr: 0x100023340, symSize: 0x38 }
  - { offsetInCU: 0x1B9E3, offset: 0x1B9E3, size: 0x8, addend: 0x0, symName: __ZNSt3__18_IterOpsINS_17_ClassicAlgPolicyEE4nextB7v160006IPNS_12basic_stringIcNS_11char_traitsIcEENS_9allocatorIcEEEEEET_SB_SB_, symObjAddr: 0x21044, symBinAddr: 0x100023378, symSize: 0x18 }
  - { offsetInCU: 0x1BA19, offset: 0x1BA19, size: 0x8, addend: 0x0, symName: __ZNSt3__118__unwrap_iter_implINS_11__wrap_iterIPNS_12basic_stringIcNS_11char_traitsIcEENS_9allocatorIcEEEEEELb1EE8__unwrapB7v160006ES9_, symObjAddr: 0x23724, symBinAddr: 0x100025A58, symSize: 0x1F0 }
  - { offsetInCU: 0x1BA4A, offset: 0x1BA4A, size: 0x8, addend: 0x0, symName: __ZNSt3__119__to_address_helperINS_11__wrap_iterIPNS_12basic_stringIcNS_11char_traitsIcEENS_9allocatorIcEEEEEEvE6__callB7v160006ERKS9_, symObjAddr: 0x23938, symBinAddr: 0x100025C6C, symSize: 0x200 }
  - { offsetInCU: 0x1BA6E, offset: 0x1BA6E, size: 0x8, addend: 0x0, symName: __ZNSt3__114pointer_traitsINS_11__wrap_iterIPNS_12basic_stringIcNS_11char_traitsIcEENS_9allocatorIcEEEEEEE10to_addressB7v160006ES9_, symObjAddr: 0x23B38, symBinAddr: 0x100025E6C, symSize: 0x1F4 }
  - { offsetInCU: 0x1BA96, offset: 0x1BA96, size: 0x8, addend: 0x0, symName: __ZNKSt3__111__wrap_iterIPNS_12basic_stringIcNS_11char_traitsIcEENS_9allocatorIcEEEEE4baseB7v160006Ev, symObjAddr: 0x23D2C, symBinAddr: 0x100026060, symSize: 0x60 }
  - { offsetInCU: 0x1BABC, offset: 0x1BABC, size: 0x8, addend: 0x0, symName: __ZNSt3__16vectorINS_12basic_stringIcNS_11char_traitsIcEENS_9allocatorIcEEEENS4_IS6_EEE11__make_iterB7v160006EPS6_, symObjAddr: 0x23D8C, symBinAddr: 0x1000260C0, symSize: 0x200 }
  - { offsetInCU: 0x1BAF3, offset: 0x1BAF3, size: 0x8, addend: 0x0, symName: __ZNSt3__111__wrap_iterIPNS_12basic_stringIcNS_11char_traitsIcEENS_9allocatorIcEEEEEC1B7v160006EPKvS7_, symObjAddr: 0x23F8C, symBinAddr: 0x1000262C0, symSize: 0x3C }
  - { offsetInCU: 0x1BB39, offset: 0x1BB39, size: 0x8, addend: 0x0, symName: __ZNSt3__111__wrap_iterIPNS_12basic_stringIcNS_11char_traitsIcEENS_9allocatorIcEEEEEC2B7v160006EPKvS7_, symObjAddr: 0x23FC8, symBinAddr: 0x1000262FC, symSize: 0x74 }
  - { offsetInCU: 0x1BB7F, offset: 0x1BB7F, size: 0x8, addend: 0x0, symName: __ZNKSt3__16vectorINS_12basic_stringIcNS_11char_traitsIcEENS_9allocatorIcEEEENS4_IS6_EEE5beginB7v160006Ev, symObjAddr: 0x24448, symBinAddr: 0x10002677C, symSize: 0x268 }
  - { offsetInCU: 0x1BBA8, offset: 0x1BBA8, size: 0x8, addend: 0x0, symName: __ZNKSt3__16vectorINS_12basic_stringIcNS_11char_traitsIcEENS_9allocatorIcEEEENS4_IS6_EEE3endB7v160006Ev, symObjAddr: 0x246B0, symBinAddr: 0x1000269E4, symSize: 0x26C }
  - { offsetInCU: 0x1BBDB, offset: 0x1BBDB, size: 0x8, addend: 0x0, symName: __ZNKSt3__110__equal_toclB7v160006INS_12basic_stringIcNS_11char_traitsIcEENS_9allocatorIcEEEES7_EEbRKT_RKT0_, symObjAddr: 0x24CD0, symBinAddr: 0x100027004, symSize: 0x34 }
  - { offsetInCU: 0x1BC2F, offset: 0x1BC2F, size: 0x8, addend: 0x0, symName: __ZNKSt3__111__wrap_iterIPKNS_12basic_stringIcNS_11char_traitsIcEENS_9allocatorIcEEEEEdeB7v160006Ev, symObjAddr: 0x24D04, symBinAddr: 0x100027038, symSize: 0x60 }
  - { offsetInCU: 0x1BC55, offset: 0x1BC55, size: 0x8, addend: 0x0, symName: __ZNSt3__111__wrap_iterIPKNS_12basic_stringIcNS_11char_traitsIcEENS_9allocatorIcEEEEEppB7v160006Ev, symObjAddr: 0x24D64, symBinAddr: 0x100027098, symSize: 0x68 }
  - { offsetInCU: 0x1BC7B, offset: 0x1BC7B, size: 0x8, addend: 0x0, symName: __ZNKSt3__111__wrap_iterIPKNS_12basic_stringIcNS_11char_traitsIcEENS_9allocatorIcEEEEE4baseB7v160006Ev, symObjAddr: 0x24E14, symBinAddr: 0x100027148, symSize: 0x60 }
  - { offsetInCU: 0x1BCA1, offset: 0x1BCA1, size: 0x8, addend: 0x0, symName: __ZNKSt3__16vectorINS_12basic_stringIcNS_11char_traitsIcEENS_9allocatorIcEEEENS4_IS6_EEE11__make_iterB7v160006EPKS6_, symObjAddr: 0x24E74, symBinAddr: 0x1000271A8, symSize: 0x200 }
  - { offsetInCU: 0x1BCD8, offset: 0x1BCD8, size: 0x8, addend: 0x0, symName: __ZNSt3__111__wrap_iterIPKNS_12basic_stringIcNS_11char_traitsIcEENS_9allocatorIcEEEEEC1B7v160006EPKvS8_, symObjAddr: 0x25074, symBinAddr: 0x1000273A8, symSize: 0x3C }
  - { offsetInCU: 0x1BD1E, offset: 0x1BD1E, size: 0x8, addend: 0x0, symName: __ZNSt3__111__wrap_iterIPKNS_12basic_stringIcNS_11char_traitsIcEENS_9allocatorIcEEEEEC2B7v160006EPKvS8_, symObjAddr: 0x250B0, symBinAddr: 0x1000273E4, symSize: 0x74 }
  - { offsetInCU: 0x1BD64, offset: 0x1BD64, size: 0x8, addend: 0x0, symName: __ZNSt3__16vectorINS_12basic_stringIcNS_11char_traitsIcEENS_9allocatorIcEEEENS4_IS6_EEED2B7v160006Ev, symObjAddr: 0x25124, symBinAddr: 0x100027458, symSize: 0x1F8 }
  - { offsetInCU: 0x1BD8F, offset: 0x1BD8F, size: 0x8, addend: 0x0, symName: __ZNSt3__16vectorINS_12basic_stringIcNS_11char_traitsIcEENS_9allocatorIcEEEENS4_IS6_EEE16__destroy_vectorC1ERS8_, symObjAddr: 0x2531C, symBinAddr: 0x100027650, symSize: 0x34 }
  - { offsetInCU: 0x1BDC8, offset: 0x1BDC8, size: 0x8, addend: 0x0, symName: __ZNSt3__16vectorINS_12basic_stringIcNS_11char_traitsIcEENS_9allocatorIcEEEENS4_IS6_EEE16__destroy_vectorclB7v160006Ev, symObjAddr: 0x25350, symBinAddr: 0x100027684, symSize: 0x264 }
  - { offsetInCU: 0x1BDEE, offset: 0x1BDEE, size: 0x8, addend: 0x0, symName: __ZNSt3__16vectorINS_12basic_stringIcNS_11char_traitsIcEENS_9allocatorIcEEEENS4_IS6_EEE16__destroy_vectorC2ERS8_, symObjAddr: 0x255B4, symBinAddr: 0x1000278E8, symSize: 0x70 }
  - { offsetInCU: 0x1BE27, offset: 0x1BE27, size: 0x8, addend: 0x0, symName: __ZNSt3__16vectorINS_12basic_stringIcNS_11char_traitsIcEENS_9allocatorIcEEEENS4_IS6_EEE7__clearB7v160006Ev, symObjAddr: 0x25634, symBinAddr: 0x100027968, symSize: 0x64 }
  - { offsetInCU: 0x1BE4D, offset: 0x1BE4D, size: 0x8, addend: 0x0, symName: __ZNSt3__16vectorINS_12basic_stringIcNS_11char_traitsIcEENS_9allocatorIcEEEENS4_IS6_EEE22__base_destruct_at_endB7v160006EPS6_, symObjAddr: 0x25698, symBinAddr: 0x1000279CC, symSize: 0x114 }
  - { offsetInCU: 0x1BE91, offset: 0x1BE91, size: 0x8, addend: 0x0, symName: __ZNKRSt3__123__optional_storage_baseINS_12basic_stringIcNS_11char_traitsIcEENS_9allocatorIcEEEELb0EE5__getB7v160006Ev, symObjAddr: 0x257F8, symBinAddr: 0x100027B2C, symSize: 0x14 }
  - { offsetInCU: 0x1BEC6, offset: 0x1BEC6, size: 0x8, addend: 0x0, symName: __ZNSt19bad_optional_accessC1Ev, symObjAddr: 0x2580C, symBinAddr: 0x100027B40, symSize: 0x2C }
  - { offsetInCU: 0x1BEF2, offset: 0x1BEF2, size: 0x8, addend: 0x0, symName: __ZNSt19bad_optional_accessC2Ev, symObjAddr: 0x25838, symBinAddr: 0x100027B6C, symSize: 0x84 }
  - { offsetInCU: 0x1BF1E, offset: 0x1BF1E, size: 0x8, addend: 0x0, symName: __ZNSt9exceptionC2B7v160006Ev, symObjAddr: 0x258BC, symBinAddr: 0x100027BF0, symSize: 0x74 }
  - { offsetInCU: 0x1BF48, offset: 0x1BF48, size: 0x8, addend: 0x0, symName: __ZNKSt3__123__optional_storage_baseI5CDateLb0EE9has_valueB7v160006Ev, symObjAddr: 0x25930, symBinAddr: 0x100027C64, symSize: 0x8C }
  - { offsetInCU: 0x1BF6E, offset: 0x1BF6E, size: 0x8, addend: 0x0, symName: __ZNKRSt3__123__optional_storage_baseI5CDateLb0EE5__getB7v160006Ev, symObjAddr: 0x25C30, symBinAddr: 0x100027F64, symSize: 0x14 }
  - { offsetInCU: 0x1BF94, offset: 0x1BF94, size: 0x8, addend: 0x0, symName: __ZNSt3__120_CmpUnspecifiedParamC2B7v160006EMS0_i, symObjAddr: 0x25C44, symBinAddr: 0x100027F78, symSize: 0x18 }
  - { offsetInCU: 0x1BFC8, offset: 0x1BFC8, size: 0x8, addend: 0x0, symName: __ZNKSt3__123__optional_storage_baseIiLb0EE9has_valueB7v160006Ev, symObjAddr: 0x25C5C, symBinAddr: 0x100027F90, symSize: 0x8C }
  - { offsetInCU: 0x1BFEE, offset: 0x1BFEE, size: 0x8, addend: 0x0, symName: __ZNKRSt3__123__optional_storage_baseIiLb0EE5__getB7v160006Ev, symObjAddr: 0x25CE8, symBinAddr: 0x10002801C, symSize: 0x14 }
  - { offsetInCU: 0x1C014, offset: 0x1C014, size: 0x8, addend: 0x0, symName: __ZNSt3__116__list_node_baseI8CStudentPvE9__as_nodeB7v160006Ev, symObjAddr: 0x25CFC, symBinAddr: 0x100028030, symSize: 0x24 }
  - { offsetInCU: 0x1C03A, offset: 0x1C03A, size: 0x8, addend: 0x0, symName: __ZNSt3__16vectorI8CStudentNS_9allocatorIS1_EEE9push_backB7v160006ERKS1_, symObjAddr: 0x25D20, symBinAddr: 0x100028054, symSize: 0xE0 }
  - { offsetInCU: 0x1C071, offset: 0x1C071, size: 0x8, addend: 0x0, symName: __ZNSt3__16vectorI8CStudentNS_9allocatorIS1_EEE9__end_capB7v160006Ev, symObjAddr: 0x25E00, symBinAddr: 0x100028134, symSize: 0x28 }
  - { offsetInCU: 0x1C097, offset: 0x1C097, size: 0x8, addend: 0x0, symName: __ZNSt3__16vectorI8CStudentNS_9allocatorIS1_EEE22__construct_one_at_endB7v160006IJRKS1_EEEvDpOT_, symObjAddr: 0x25E28, symBinAddr: 0x10002815C, symSize: 0x36C }
  - { offsetInCU: 0x1C0EC, offset: 0x1C0EC, size: 0x8, addend: 0x0, symName: __ZNSt3__16vectorI8CStudentNS_9allocatorIS1_EEE21__push_back_slow_pathIRKS1_EEvOT_, symObjAddr: 0x26194, symBinAddr: 0x1000284C8, symSize: 0x3C0 }
  - { offsetInCU: 0x1C151, offset: 0x1C151, size: 0x8, addend: 0x0, symName: __ZNSt3__117__compressed_pairIP8CStudentNS_9allocatorIS1_EEE5firstB7v160006Ev, symObjAddr: 0x26554, symBinAddr: 0x100028888, symSize: 0x24 }
  - { offsetInCU: 0x1C177, offset: 0x1C177, size: 0x8, addend: 0x0, symName: __ZNSt3__122__compressed_pair_elemIP8CStudentLi0ELb0EE5__getB7v160006Ev, symObjAddr: 0x26578, symBinAddr: 0x1000288AC, symSize: 0x14 }
  - { offsetInCU: 0x1C1B6, offset: 0x1C1B6, size: 0x8, addend: 0x0, symName: __ZNSt3__16vectorI8CStudentNS_9allocatorIS1_EEE21_ConstructTransactionC1B7v160006ERS4_m, symObjAddr: 0x2658C, symBinAddr: 0x1000288C0, symSize: 0x3C }
  - { offsetInCU: 0x1C1FE, offset: 0x1C1FE, size: 0x8, addend: 0x0, symName: __ZNSt3__116allocator_traitsINS_9allocatorI8CStudentEEE9constructB7v160006IS2_JRKS2_EvvEEvRS3_PT_DpOT0_, symObjAddr: 0x265C8, symBinAddr: 0x1000288FC, symSize: 0x30 }
  - { offsetInCU: 0x1C252, offset: 0x1C252, size: 0x8, addend: 0x0, symName: __ZNSt3__16vectorI8CStudentNS_9allocatorIS1_EEE7__allocB7v160006Ev, symObjAddr: 0x265F8, symBinAddr: 0x10002892C, symSize: 0x28 }
  - { offsetInCU: 0x1C278, offset: 0x1C278, size: 0x8, addend: 0x0, symName: __ZNSt3__16vectorI8CStudentNS_9allocatorIS1_EEE21_ConstructTransactionD1B7v160006Ev, symObjAddr: 0x26634, symBinAddr: 0x100028968, symSize: 0x2C }
  - { offsetInCU: 0x1C2A2, offset: 0x1C2A2, size: 0x8, addend: 0x0, symName: __ZNSt3__16vectorI8CStudentNS_9allocatorIS1_EEE21_ConstructTransactionC2B7v160006ERS4_m, symObjAddr: 0x26660, symBinAddr: 0x100028994, symSize: 0x1D8 }
  - { offsetInCU: 0x1C2EA, offset: 0x1C2EA, size: 0x8, addend: 0x0, symName: __ZNKSt3__16vectorI8CStudentNS_9allocatorIS1_EEE19__annotate_increaseB7v160006Em, symObjAddr: 0x26838, symBinAddr: 0x100028B6C, symSize: 0xF8 }
  - { offsetInCU: 0x1C31F, offset: 0x1C31F, size: 0x8, addend: 0x0, symName: __ZNKSt3__16vectorI8CStudentNS_9allocatorIS1_EEE31__annotate_contiguous_containerEPKvS6_S6_S6_, symObjAddr: 0x26930, symBinAddr: 0x100028C64, symSize: 0x58 }
  - { offsetInCU: 0x1C381, offset: 0x1C381, size: 0x8, addend: 0x0, symName: __ZNKSt3__16vectorI8CStudentNS_9allocatorIS1_EEE4dataB7v160006Ev, symObjAddr: 0x26988, symBinAddr: 0x100028CBC, symSize: 0x64 }
  - { offsetInCU: 0x1C3A7, offset: 0x1C3A7, size: 0x8, addend: 0x0, symName: __ZNKSt3__16vectorI8CStudentNS_9allocatorIS1_EEE8capacityB7v160006Ev, symObjAddr: 0x269EC, symBinAddr: 0x100028D20, symSize: 0xBC }
  - { offsetInCU: 0x1C3CD, offset: 0x1C3CD, size: 0x8, addend: 0x0, symName: __ZNKSt3__16vectorI8CStudentNS_9allocatorIS1_EEE4sizeB7v160006Ev, symObjAddr: 0x26AA8, symBinAddr: 0x100028DDC, symSize: 0xB0 }
  - { offsetInCU: 0x1C3F3, offset: 0x1C3F3, size: 0x8, addend: 0x0, symName: __ZNKSt3__16vectorI8CStudentNS_9allocatorIS1_EEE9__end_capB7v160006Ev, symObjAddr: 0x26B58, symBinAddr: 0x100028E8C, symSize: 0x28 }
  - { offsetInCU: 0x1C419, offset: 0x1C419, size: 0x8, addend: 0x0, symName: __ZNKSt3__117__compressed_pairIP8CStudentNS_9allocatorIS1_EEE5firstB7v160006Ev, symObjAddr: 0x26B80, symBinAddr: 0x100028EB4, symSize: 0x24 }
  - { offsetInCU: 0x1C43F, offset: 0x1C43F, size: 0x8, addend: 0x0, symName: __ZNKSt3__122__compressed_pair_elemIP8CStudentLi0ELb0EE5__getB7v160006Ev, symObjAddr: 0x26BA4, symBinAddr: 0x100028ED8, symSize: 0x14 }
  - { offsetInCU: 0x1C465, offset: 0x1C465, size: 0x8, addend: 0x0, symName: __ZNSt3__117__compressed_pairIP8CStudentNS_9allocatorIS1_EEE6secondB7v160006Ev, symObjAddr: 0x26BB8, symBinAddr: 0x100028EEC, symSize: 0x24 }
  - { offsetInCU: 0x1C48B, offset: 0x1C48B, size: 0x8, addend: 0x0, symName: __ZNSt3__122__compressed_pair_elemINS_9allocatorI8CStudentEELi1ELb1EE5__getB7v160006Ev, symObjAddr: 0x26BDC, symBinAddr: 0x100028F10, symSize: 0x14 }
  - { offsetInCU: 0x1C4B1, offset: 0x1C4B1, size: 0x8, addend: 0x0, symName: __ZNSt3__16vectorI8CStudentNS_9allocatorIS1_EEE21_ConstructTransactionD2B7v160006Ev, symObjAddr: 0x26BF0, symBinAddr: 0x100028F24, symSize: 0x278 }
  - { offsetInCU: 0x1C4DB, offset: 0x1C4DB, size: 0x8, addend: 0x0, symName: __ZNKSt3__16vectorI8CStudentNS_9allocatorIS1_EEE17__annotate_shrinkB7v160006Em, symObjAddr: 0x26E68, symBinAddr: 0x10002919C, symSize: 0xE4 }
  - { offsetInCU: 0x1C510, offset: 0x1C510, size: 0x8, addend: 0x0, symName: __ZNKSt3__16vectorI8CStudentNS_9allocatorIS1_EEE11__recommendB7v160006Em, symObjAddr: 0x26F4C, symBinAddr: 0x100029280, symSize: 0x384 }
  - { offsetInCU: 0x1C56C, offset: 0x1C56C, size: 0x8, addend: 0x0, symName: __ZNSt3__114__split_bufferI8CStudentRNS_9allocatorIS1_EEEC1EmmS4_, symObjAddr: 0x272D0, symBinAddr: 0x100029604, symSize: 0x44 }
  - { offsetInCU: 0x1C5C2, offset: 0x1C5C2, size: 0x8, addend: 0x0, symName: __ZNSt3__114__split_bufferI8CStudentRNS_9allocatorIS1_EEED1Ev, symObjAddr: 0x27888, symBinAddr: 0x100029BBC, symSize: 0x2C }
  - { offsetInCU: 0x1C5EE, offset: 0x1C5EE, size: 0x8, addend: 0x0, symName: __ZNKSt3__16vectorI8CStudentNS_9allocatorIS1_EEE8max_sizeEv, symObjAddr: 0x278B4, symBinAddr: 0x100029BE8, symSize: 0x2FC }
  - { offsetInCU: 0x1C617, offset: 0x1C617, size: 0x8, addend: 0x0, symName: __ZNKSt3__16vectorI8CStudentNS_9allocatorIS1_EEE20__throw_length_errorB7v160006Ev, symObjAddr: 0x27BB0, symBinAddr: 0x100029EE4, symSize: 0x20 }
  - { offsetInCU: 0x1C647, offset: 0x1C647, size: 0x8, addend: 0x0, symName: __ZNSt3__116allocator_traitsINS_9allocatorI8CStudentEEE8max_sizeB7v160006IS3_vvEEmRKS3_, symObjAddr: 0x27BD0, symBinAddr: 0x100029F04, symSize: 0x28 }
  - { offsetInCU: 0x1C672, offset: 0x1C672, size: 0x8, addend: 0x0, symName: __ZNKSt3__16vectorI8CStudentNS_9allocatorIS1_EEE7__allocB7v160006Ev, symObjAddr: 0x27BF8, symBinAddr: 0x100029F2C, symSize: 0x28 }
  - { offsetInCU: 0x1C698, offset: 0x1C698, size: 0x8, addend: 0x0, symName: __ZNKSt3__117__compressed_pairIP8CStudentNS_9allocatorIS1_EEE6secondB7v160006Ev, symObjAddr: 0x27C20, symBinAddr: 0x100029F54, symSize: 0x24 }
  - { offsetInCU: 0x1C6BE, offset: 0x1C6BE, size: 0x8, addend: 0x0, symName: __ZNKSt3__122__compressed_pair_elemINS_9allocatorI8CStudentEELi1ELb1EE5__getB7v160006Ev, symObjAddr: 0x27C44, symBinAddr: 0x100029F78, symSize: 0x14 }
  - { offsetInCU: 0x1C6E4, offset: 0x1C6E4, size: 0x8, addend: 0x0, symName: __ZNSt3__114__split_bufferI8CStudentRNS_9allocatorIS1_EEEC2EmmS4_, symObjAddr: 0x27C58, symBinAddr: 0x100029F8C, symSize: 0x530 }
  - { offsetInCU: 0x1C75F, offset: 0x1C75F, size: 0x8, addend: 0x0, symName: __ZNSt3__117__compressed_pairIP8CStudentRNS_9allocatorIS1_EEEC1B7v160006IDnS5_EEOT_OT0_, symObjAddr: 0x28188, symBinAddr: 0x10002A4BC, symSize: 0x3C }
  - { offsetInCU: 0x1C7B7, offset: 0x1C7B7, size: 0x8, addend: 0x0, symName: __ZNSt3__114__split_bufferI8CStudentRNS_9allocatorIS1_EEE7__allocB7v160006Ev, symObjAddr: 0x28450, symBinAddr: 0x10002A784, symSize: 0x28 }
  - { offsetInCU: 0x1C7DD, offset: 0x1C7DD, size: 0x8, addend: 0x0, symName: __ZNSt3__114__split_bufferI8CStudentRNS_9allocatorIS1_EEE9__end_capB7v160006Ev, symObjAddr: 0x28478, symBinAddr: 0x10002A7AC, symSize: 0x28 }
  - { offsetInCU: 0x1C803, offset: 0x1C803, size: 0x8, addend: 0x0, symName: __ZNSt3__117__compressed_pairIP8CStudentRNS_9allocatorIS1_EEEC2B7v160006IDnS5_EEOT_OT0_, symObjAddr: 0x284A0, symBinAddr: 0x10002A7D4, symSize: 0x48 }
  - { offsetInCU: 0x1C85B, offset: 0x1C85B, size: 0x8, addend: 0x0, symName: __ZNSt3__122__compressed_pair_elemIRNS_9allocatorI8CStudentEELi1ELb0EEC2B7v160006IS4_vEEOT_, symObjAddr: 0x284E8, symBinAddr: 0x10002A81C, symSize: 0x70 }
  - { offsetInCU: 0x1C89D, offset: 0x1C89D, size: 0x8, addend: 0x0, symName: __ZNSt3__19allocatorI8CStudentE8allocateB7v160006Em, symObjAddr: 0x28558, symBinAddr: 0x10002A88C, symSize: 0x60 }
  - { offsetInCU: 0x1C8D1, offset: 0x1C8D1, size: 0x8, addend: 0x0, symName: __ZNSt3__117__compressed_pairIP8CStudentRNS_9allocatorIS1_EEE6secondB7v160006Ev, symObjAddr: 0x285B8, symBinAddr: 0x10002A8EC, symSize: 0x28 }
  - { offsetInCU: 0x1C8F7, offset: 0x1C8F7, size: 0x8, addend: 0x0, symName: __ZNSt3__122__compressed_pair_elemIRNS_9allocatorI8CStudentEELi1ELb0EE5__getB7v160006Ev, symObjAddr: 0x285E0, symBinAddr: 0x10002A914, symSize: 0x60 }
  - { offsetInCU: 0x1C91D, offset: 0x1C91D, size: 0x8, addend: 0x0, symName: __ZNSt3__117__compressed_pairIP8CStudentRNS_9allocatorIS1_EEE5firstB7v160006Ev, symObjAddr: 0x28640, symBinAddr: 0x10002A974, symSize: 0x24 }
  - { offsetInCU: 0x1C943, offset: 0x1C943, size: 0x8, addend: 0x0, symName: __ZNKSt3__16vectorI8CStudentNS_9allocatorIS1_EEE17__annotate_deleteB7v160006Ev, symObjAddr: 0x28664, symBinAddr: 0x10002A998, symSize: 0xE8 }
  - { offsetInCU: 0x1C969, offset: 0x1C969, size: 0x8, addend: 0x0, symName: __ZNSt3__116reverse_iteratorIP8CStudentEC1B7v160006ES2_, symObjAddr: 0x28C90, symBinAddr: 0x10002AFC4, symSize: 0x34 }
  - { offsetInCU: 0x1C9A1, offset: 0x1C9A1, size: 0x8, addend: 0x0, symName: __ZNKSt3__116reverse_iteratorIP8CStudentE4baseB7v160006Ev, symObjAddr: 0x28CC4, symBinAddr: 0x10002AFF8, symSize: 0x64 }
  - { offsetInCU: 0x1C9C7, offset: 0x1C9C7, size: 0x8, addend: 0x0, symName: __ZNKSt3__16vectorI8CStudentNS_9allocatorIS1_EEE14__annotate_newB7v160006Em, symObjAddr: 0x28E5C, symBinAddr: 0x10002B190, symSize: 0xDC }
  - { offsetInCU: 0x1C9FC, offset: 0x1C9FC, size: 0x8, addend: 0x0, symName: __ZNSt3__129_AllocatorDestroyRangeReverseINS_9allocatorI8CStudentEENS_16reverse_iteratorIPS2_EEEC1B7v160006ERS3_RS6_S9_, symObjAddr: 0x29140, symBinAddr: 0x10002B474, symSize: 0x44 }
  - { offsetInCU: 0x1CA59, offset: 0x1CA59, size: 0x8, addend: 0x0, symName: __ZNSt3__116allocator_traitsINS_9allocatorI8CStudentEEE9constructB7v160006IS2_JS2_EvvEEvRS3_PT_DpOT0_, symObjAddr: 0x291CC, symBinAddr: 0x10002B500, symSize: 0x30 }
  - { offsetInCU: 0x1CAAD, offset: 0x1CAAD, size: 0x8, addend: 0x0, symName: __ZNKSt3__116reverse_iteratorIP8CStudentEdeB7v160006Ev, symObjAddr: 0x29220, symBinAddr: 0x10002B554, symSize: 0x74 }
  - { offsetInCU: 0x1CAE1, offset: 0x1CAE1, size: 0x8, addend: 0x0, symName: __ZNSt3__116reverse_iteratorIP8CStudentEppB7v160006Ev, symObjAddr: 0x29294, symBinAddr: 0x10002B5C8, symSize: 0x6C }
  - { offsetInCU: 0x1CB07, offset: 0x1CB07, size: 0x8, addend: 0x0, symName: __ZNSt3__128__exception_guard_exceptionsINS_29_AllocatorDestroyRangeReverseINS_9allocatorI8CStudentEENS_16reverse_iteratorIPS3_EEEEE10__completeB7v160006Ev, symObjAddr: 0x29300, symBinAddr: 0x10002B634, symSize: 0x8C }
  - { offsetInCU: 0x1CB2D, offset: 0x1CB2D, size: 0x8, addend: 0x0, symName: __ZNSt3__128__exception_guard_exceptionsINS_29_AllocatorDestroyRangeReverseINS_9allocatorI8CStudentEENS_16reverse_iteratorIPS3_EEEEED1B7v160006Ev, symObjAddr: 0x2938C, symBinAddr: 0x10002B6C0, symSize: 0x2C }
  - { offsetInCU: 0x1CB57, offset: 0x1CB57, size: 0x8, addend: 0x0, symName: __ZNSt3__128__exception_guard_exceptionsINS_29_AllocatorDestroyRangeReverseINS_9allocatorI8CStudentEENS_16reverse_iteratorIPS3_EEEEEC1B7v160006ES8_, symObjAddr: 0x293B8, symBinAddr: 0x10002B6EC, symSize: 0x34 }
  - { offsetInCU: 0x1CB90, offset: 0x1CB90, size: 0x8, addend: 0x0, symName: __ZNSt3__128__exception_guard_exceptionsINS_29_AllocatorDestroyRangeReverseINS_9allocatorI8CStudentEENS_16reverse_iteratorIPS3_EEEEEC2B7v160006ES8_, symObjAddr: 0x293EC, symBinAddr: 0x10002B720, symSize: 0xA4 }
  - { offsetInCU: 0x1CBC9, offset: 0x1CBC9, size: 0x8, addend: 0x0, symName: __ZNSt3__129_AllocatorDestroyRangeReverseINS_9allocatorI8CStudentEENS_16reverse_iteratorIPS2_EEEC2B7v160006ERS3_RS6_S9_, symObjAddr: 0x29490, symBinAddr: 0x10002B7C4, symSize: 0x104 }
  - { offsetInCU: 0x1CC20, offset: 0x1CC20, size: 0x8, addend: 0x0, symName: __ZN8CStudentC1EOS_, symObjAddr: 0x295D0, symBinAddr: 0x10002B904, symSize: 0x34 }
  - { offsetInCU: 0x1CC55, offset: 0x1CC55, size: 0x8, addend: 0x0, symName: __ZN8CStudentC2EOS_, symObjAddr: 0x29604, symBinAddr: 0x10002B938, symSize: 0x4C }
  - { offsetInCU: 0x1CC8F, offset: 0x1CC8F, size: 0x8, addend: 0x0, symName: __ZNSt3__119__to_address_helperINS_16reverse_iteratorIP8CStudentEEvE6__callB7v160006ERKS4_, symObjAddr: 0x29650, symBinAddr: 0x10002B984, symSize: 0x44 }
  - { offsetInCU: 0x1CCB2, offset: 0x1CCB2, size: 0x8, addend: 0x0, symName: __ZNKSt3__116reverse_iteratorIP8CStudentEptB7v160006Ev, symObjAddr: 0x29694, symBinAddr: 0x10002B9C8, symSize: 0x6C }
  - { offsetInCU: 0x1CCD8, offset: 0x1CCD8, size: 0x8, addend: 0x0, symName: __ZNSt3__128__exception_guard_exceptionsINS_29_AllocatorDestroyRangeReverseINS_9allocatorI8CStudentEENS_16reverse_iteratorIPS3_EEEEED2B7v160006Ev, symObjAddr: 0x29A2C, symBinAddr: 0x10002BD60, symSize: 0xBC }
  - { offsetInCU: 0x1CD02, offset: 0x1CD02, size: 0x8, addend: 0x0, symName: __ZNKSt3__129_AllocatorDestroyRangeReverseINS_9allocatorI8CStudentEENS_16reverse_iteratorIPS2_EEEclB7v160006Ev, symObjAddr: 0x29AE8, symBinAddr: 0x10002BE1C, symSize: 0x3A8 }
  - { offsetInCU: 0x1CD29, offset: 0x1CD29, size: 0x8, addend: 0x0, symName: __ZNSt3__116reverse_iteratorINS0_IP8CStudentEEEC1B7v160006ES3_, symObjAddr: 0x29F00, symBinAddr: 0x10002C234, symSize: 0x248 }
  - { offsetInCU: 0x1CD66, offset: 0x1CD66, size: 0x8, addend: 0x0, symName: __ZNSt3__116allocator_traitsINS_9allocatorI8CStudentEEE7destroyB7v160006IS2_vvEEvRS3_PT_, symObjAddr: 0x2A414, symBinAddr: 0x10002C748, symSize: 0x28 }
  - { offsetInCU: 0x1CDA0, offset: 0x1CDA0, size: 0x8, addend: 0x0, symName: __ZNSt3__116reverse_iteratorINS0_IP8CStudentEEEppB7v160006Ev, symObjAddr: 0x2A460, symBinAddr: 0x10002C794, symSize: 0x30 }
  - { offsetInCU: 0x1CDC6, offset: 0x1CDC6, size: 0x8, addend: 0x0, symName: __ZNKSt3__116reverse_iteratorINS0_IP8CStudentEEE4baseB7v160006Ev, symObjAddr: 0x2A490, symBinAddr: 0x10002C7C4, symSize: 0x20C }
  - { offsetInCU: 0x1CDF2, offset: 0x1CDF2, size: 0x8, addend: 0x0, symName: __ZNSt3__119__to_address_helperINS_16reverse_iteratorINS1_IP8CStudentEEEEvE6__callB7v160006ERKS5_, symObjAddr: 0x2A6E4, symBinAddr: 0x10002CA18, symSize: 0x44 }
  - { offsetInCU: 0x1CE15, offset: 0x1CE15, size: 0x8, addend: 0x0, symName: __ZNKSt3__116reverse_iteratorINS0_IP8CStudentEEEptB7v160006Ev, symObjAddr: 0x2A728, symBinAddr: 0x10002CA5C, symSize: 0x2A0 }
  - { offsetInCU: 0x1CE3C, offset: 0x1CE3C, size: 0x8, addend: 0x0, symName: __ZNSt3__116reverse_iteratorIP8CStudentEpLB7v160006El, symObjAddr: 0x2ACF4, symBinAddr: 0x10002D028, symSize: 0x84 }
  - { offsetInCU: 0x1CE70, offset: 0x1CE70, size: 0x8, addend: 0x0, symName: __ZNSt3__116reverse_iteratorIP8CStudentEmmB7v160006Ev, symObjAddr: 0x2AD78, symBinAddr: 0x10002D0AC, symSize: 0x6C }
  - { offsetInCU: 0x1CE96, offset: 0x1CE96, size: 0x8, addend: 0x0, symName: __ZNSt3__116reverse_iteratorINS0_IP8CStudentEEEC2B7v160006ES3_, symObjAddr: 0x2ADE4, symBinAddr: 0x10002D118, symSize: 0x22C }
  - { offsetInCU: 0x1CED3, offset: 0x1CED3, size: 0x8, addend: 0x0, symName: __ZNSt3__116reverse_iteratorIP8CStudentEC2B7v160006ES2_, symObjAddr: 0x2B010, symBinAddr: 0x10002D344, symSize: 0xB8 }
  - { offsetInCU: 0x1CF0B, offset: 0x1CF0B, size: 0x8, addend: 0x0, symName: __ZNSt3__114__split_bufferI8CStudentRNS_9allocatorIS1_EEED2Ev, symObjAddr: 0x2B0C8, symBinAddr: 0x10002D3FC, symSize: 0x104 }
  - { offsetInCU: 0x1CF37, offset: 0x1CF37, size: 0x8, addend: 0x0, symName: __ZNSt3__114__split_bufferI8CStudentRNS_9allocatorIS1_EEE5clearB7v160006Ev, symObjAddr: 0x2B1CC, symBinAddr: 0x10002D500, symSize: 0x68 }
  - { offsetInCU: 0x1CF5D, offset: 0x1CF5D, size: 0x8, addend: 0x0, symName: __ZNSt3__116allocator_traitsINS_9allocatorI8CStudentEEE10deallocateB7v160006ERS3_PS2_m, symObjAddr: 0x2B234, symBinAddr: 0x10002D568, symSize: 0x34 }
  - { offsetInCU: 0x1CF9F, offset: 0x1CF9F, size: 0x8, addend: 0x0, symName: __ZNKSt3__114__split_bufferI8CStudentRNS_9allocatorIS1_EEE8capacityB7v160006Ev, symObjAddr: 0x2B268, symBinAddr: 0x10002D59C, symSize: 0xBC }
  - { offsetInCU: 0x1CFC5, offset: 0x1CFC5, size: 0x8, addend: 0x0, symName: __ZNSt3__114__split_bufferI8CStudentRNS_9allocatorIS1_EEE17__destruct_at_endB7v160006EPS1_, symObjAddr: 0x2B324, symBinAddr: 0x10002D658, symSize: 0x2C }
  - { offsetInCU: 0x1CFF9, offset: 0x1CFF9, size: 0x8, addend: 0x0, symName: __ZNSt3__114__split_bufferI8CStudentRNS_9allocatorIS1_EEE17__destruct_at_endB7v160006EPS1_NS_17integral_constantIbLb0EEE, symObjAddr: 0x2B350, symBinAddr: 0x10002D684, symSize: 0x10C }
  - { offsetInCU: 0x1D039, offset: 0x1D039, size: 0x8, addend: 0x0, symName: __ZNSt3__19allocatorI8CStudentE10deallocateB7v160006EPS1_m, symObjAddr: 0x2B45C, symBinAddr: 0x10002D790, symSize: 0x50 }
  - { offsetInCU: 0x1D07B, offset: 0x1D07B, size: 0x8, addend: 0x0, symName: __ZNKSt3__114__split_bufferI8CStudentRNS_9allocatorIS1_EEE9__end_capB7v160006Ev, symObjAddr: 0x2B4AC, symBinAddr: 0x10002D7E0, symSize: 0x28 }
  - { offsetInCU: 0x1D0A1, offset: 0x1D0A1, size: 0x8, addend: 0x0, symName: __ZNKSt3__117__compressed_pairIP8CStudentRNS_9allocatorIS1_EEE5firstB7v160006Ev, symObjAddr: 0x2B4D4, symBinAddr: 0x10002D808, symSize: 0x24 }
  - { offsetInCU: 0x1D0C7, offset: 0x1D0C7, size: 0x8, addend: 0x0, symName: __ZNKSt3__110__list_impI8CStudentNS_9allocatorIS1_EEE5beginB7v160006Ev, symObjAddr: 0x2B4F8, symBinAddr: 0x10002D82C, symSize: 0x234 }
  - { offsetInCU: 0x1D0EE, offset: 0x1D0EE, size: 0x8, addend: 0x0, symName: __ZNSt3__121__list_const_iteratorI8CStudentPvEC1B7v160006EPNS_16__list_node_baseIS1_S2_EEPKv, symObjAddr: 0x2B72C, symBinAddr: 0x10002DA60, symSize: 0x3C }
  - { offsetInCU: 0x1D136, offset: 0x1D136, size: 0x8, addend: 0x0, symName: __ZNSt3__121__list_const_iteratorI8CStudentPvEC2B7v160006EPNS_16__list_node_baseIS1_S2_EEPKv, symObjAddr: 0x2B768, symBinAddr: 0x10002DA9C, symSize: 0x74 }
  - { offsetInCU: 0x1D17E, offset: 0x1D17E, size: 0x8, addend: 0x0, symName: __ZNKSt3__110__list_impI8CStudentNS_9allocatorIS1_EEE3endB7v160006Ev, symObjAddr: 0x2B7DC, symBinAddr: 0x10002DB10, symSize: 0x20C }
  - { offsetInCU: 0x1D1A5, offset: 0x1D1A5, size: 0x8, addend: 0x0, symName: __ZNSt3__120back_insert_iteratorINS_6vectorI8CStudentNS_9allocatorIS2_EEEEEC1B7v160006ERS5_, symObjAddr: 0x2B9E8, symBinAddr: 0x10002DD1C, symSize: 0x34 }
  - { offsetInCU: 0x1D1DD, offset: 0x1D1DD, size: 0x8, addend: 0x0, symName: __ZNSt3__120back_insert_iteratorINS_6vectorI8CStudentNS_9allocatorIS2_EEEEEC2B7v160006ERS5_, symObjAddr: 0x2BA1C, symBinAddr: 0x10002DD50, symSize: 0x70 }
  - { offsetInCU: 0x1D21F, offset: 0x1D21F, size: 0x8, addend: 0x0, symName: __ZZNK10CStudyDept6searchERK7CFilterRK5CSortENKUlRK8CStudentE0_clES8_, symObjAddr: 0x2BA8C, symBinAddr: 0x10002DDC0, symSize: 0x70 }
  - { offsetInCU: 0x1D257, offset: 0x1D257, size: 0x8, addend: 0x0, symName: __ZNSt3__116_UnwrapAlgPolicyIR5CSortE10__get_compB7v160006ES2_, symObjAddr: 0x2C478, symBinAddr: 0x10002E7AC, symSize: 0x14 }
  - { offsetInCU: 0x1D27A, offset: 0x1D27A, size: 0x8, addend: 0x0, symName: __ZNK5CSortclERK8CStudentS2_, symObjAddr: 0x2E344, symBinAddr: 0x100030678, symSize: 0xA2C }
  - { offsetInCU: 0x1D38D, offset: 0x1D38D, size: 0x8, addend: 0x0, symName: __ZNSt3__18_IterOpsINS_17_ClassicAlgPolicyEE9iter_swapB7v160006IRP8CStudentS6_EEvOT_OT0_, symObjAddr: 0x2ED70, symBinAddr: 0x1000310A4, symSize: 0xB0 }
  - { offsetInCU: 0x1D3D0, offset: 0x1D3D0, size: 0x8, addend: 0x0, symName: __ZNKSt3__16vectorINS_4pairI8ESortKeybEENS_9allocatorIS3_EEE5beginB7v160006Ev, symObjAddr: 0x30A44, symBinAddr: 0x100032D78, symSize: 0x268 }
  - { offsetInCU: 0x1D3F9, offset: 0x1D3F9, size: 0x8, addend: 0x0, symName: __ZNKSt3__16vectorINS_4pairI8ESortKeybEENS_9allocatorIS3_EEE3endB7v160006Ev, symObjAddr: 0x30CAC, symBinAddr: 0x100032FE0, symSize: 0x26C }
  - { offsetInCU: 0x1D422, offset: 0x1D422, size: 0x8, addend: 0x0, symName: __ZNKSt3__111__wrap_iterIPKNS_4pairI8ESortKeybEEEdeB7v160006Ev, symObjAddr: 0x30F4C, symBinAddr: 0x100033280, symSize: 0x60 }
  - { offsetInCU: 0x1D448, offset: 0x1D448, size: 0x8, addend: 0x0, symName: __ZNKSt3__112basic_stringIcNS_11char_traitsIcEENS_9allocatorIcEEE7compareB7v160006ERKS5_, symObjAddr: 0x30FF4, symBinAddr: 0x100033328, symSize: 0x238 }
  - { offsetInCU: 0x1D481, offset: 0x1D481, size: 0x8, addend: 0x0, symName: __ZNSt3__111__wrap_iterIPKNS_4pairI8ESortKeybEEEppB7v160006Ev, symObjAddr: 0x31574, symBinAddr: 0x1000338A8, symSize: 0x68 }
  - { offsetInCU: 0x1D4A7, offset: 0x1D4A7, size: 0x8, addend: 0x0, symName: __ZNKSt3__16vectorINS_4pairI8ESortKeybEENS_9allocatorIS3_EEE11__make_iterB7v160006EPKS3_, symObjAddr: 0x315DC, symBinAddr: 0x100033910, symSize: 0x200 }
  - { offsetInCU: 0x1D4DE, offset: 0x1D4DE, size: 0x8, addend: 0x0, symName: __ZNSt3__111__wrap_iterIPKNS_4pairI8ESortKeybEEEC1B7v160006EPKvS5_, symObjAddr: 0x317DC, symBinAddr: 0x100033B10, symSize: 0x3C }
  - { offsetInCU: 0x1D524, offset: 0x1D524, size: 0x8, addend: 0x0, symName: __ZNSt3__111__wrap_iterIPKNS_4pairI8ESortKeybEEEC2B7v160006EPKvS5_, symObjAddr: 0x31818, symBinAddr: 0x100033B4C, symSize: 0x74 }
  - { offsetInCU: 0x1D56A, offset: 0x1D56A, size: 0x8, addend: 0x0, symName: __ZNKSt3__111__wrap_iterIPKNS_4pairI8ESortKeybEEE4baseB7v160006Ev, symObjAddr: 0x318D4, symBinAddr: 0x100033C08, symSize: 0x60 }
  - { offsetInCU: 0x1D59A, offset: 0x1D59A, size: 0x8, addend: 0x0, symName: __ZNSt3__110__get_pairILm0EE3getB7v160006I8ESortKeybEERKT_RKNS_4pairIS4_T0_EE, symObjAddr: 0x31934, symBinAddr: 0x100033C68, symSize: 0x14 }
  - { offsetInCU: 0x1D5D5, offset: 0x1D5D5, size: 0x8, addend: 0x0, symName: __ZNSt3__110__get_pairILm1EE3getB7v160006I8ESortKeybEERKT0_RKNS_4pairIT_S4_EE, symObjAddr: 0x31948, symBinAddr: 0x100033C7C, symSize: 0x18 }
  - { offsetInCU: 0x1D60B, offset: 0x1D60B, size: 0x8, addend: 0x0, symName: __ZNKSt3__112basic_stringIcNS_11char_traitsIcEENS_9allocatorIcEEE7compareINS_17basic_string_viewIcS2_EEEENS_9enable_ifIXsr33__can_be_converted_to_string_viewIcS2_T_EE5valueEiE4typeERKSA_, symObjAddr: 0x31960, symBinAddr: 0x100033C94, symSize: 0x4E4 }
  - { offsetInCU: 0x1D696, offset: 0x1D696, size: 0x8, addend: 0x0, symName: __ZN8CStudentaSEOS_, symObjAddr: 0x320A0, symBinAddr: 0x1000343D4, symSize: 0x4C }
  - { offsetInCU: 0x1D6C7, offset: 0x1D6C7, size: 0x8, addend: 0x0, symName: __ZNSt3__18_IterOpsINS_17_ClassicAlgPolicyEE11__iter_moveB7v160006IRP8CStudentEENS_9enable_ifIXsr12is_referenceIDTdeclsr3stdE7declvalIRT_EEEEE5valueEDTclsr3stdE4movedeclsr3stdE7declvalIS9_EEEEE4typeEOS8_, symObjAddr: 0x326F4, symBinAddr: 0x100034A28, symSize: 0x6C }
  - { offsetInCU: 0x1D6F3, offset: 0x1D6F3, size: 0x8, addend: 0x0, symName: __ZNSt3__18_IterOpsINS_17_ClassicAlgPolicyEE25__validate_iter_referenceB7v160006IRP8CStudentEEvv, symObjAddr: 0x32760, symBinAddr: 0x100034A94, symSize: 0x4 }
  - { offsetInCU: 0x1D711, offset: 0x1D711, size: 0x8, addend: 0x0, symName: __ZNSt3__18_IterOpsINS_17_ClassicAlgPolicyEE4nextB7v160006IP8CStudentEET_S6_S6_, symObjAddr: 0x32764, symBinAddr: 0x100034A98, symSize: 0x18 }
  - { offsetInCU: 0x1D747, offset: 0x1D747, size: 0x8, addend: 0x0, symName: __ZNSt3__118__unwrap_iter_implINS_11__wrap_iterIP8CStudentEELb1EE8__unwrapB7v160006ES4_, symObjAddr: 0x34E5C, symBinAddr: 0x100037190, symSize: 0x1F0 }
  - { offsetInCU: 0x1D778, offset: 0x1D778, size: 0x8, addend: 0x0, symName: __ZNSt3__119__to_address_helperINS_11__wrap_iterIP8CStudentEEvE6__callB7v160006ERKS4_, symObjAddr: 0x35070, symBinAddr: 0x1000373A4, symSize: 0x200 }
  - { offsetInCU: 0x1D79C, offset: 0x1D79C, size: 0x8, addend: 0x0, symName: __ZNSt3__114pointer_traitsINS_11__wrap_iterIP8CStudentEEE10to_addressB7v160006ES4_, symObjAddr: 0x35270, symBinAddr: 0x1000375A4, symSize: 0x1F4 }
  - { offsetInCU: 0x1D7C4, offset: 0x1D7C4, size: 0x8, addend: 0x0, symName: __ZNKSt3__111__wrap_iterIP8CStudentE4baseB7v160006Ev, symObjAddr: 0x35464, symBinAddr: 0x100037798, symSize: 0x60 }
  - { offsetInCU: 0x1D7EA, offset: 0x1D7EA, size: 0x8, addend: 0x0, symName: __ZNSt3__16vectorI8CStudentNS_9allocatorIS1_EEE11__make_iterB7v160006EPS1_, symObjAddr: 0x354C4, symBinAddr: 0x1000377F8, symSize: 0x200 }
  - { offsetInCU: 0x1D821, offset: 0x1D821, size: 0x8, addend: 0x0, symName: __ZNSt3__111__wrap_iterIP8CStudentEC1B7v160006EPKvS2_, symObjAddr: 0x356C4, symBinAddr: 0x1000379F8, symSize: 0x3C }
  - { offsetInCU: 0x1D867, offset: 0x1D867, size: 0x8, addend: 0x0, symName: __ZNSt3__111__wrap_iterIP8CStudentEC2B7v160006EPKvS2_, symObjAddr: 0x35700, symBinAddr: 0x100037A34, symSize: 0x74 }
  - { offsetInCU: 0x1D8AD, offset: 0x1D8AD, size: 0x8, addend: 0x0, symName: __ZN5CSortC2ERKS_, symObjAddr: 0x35774, symBinAddr: 0x100037AA8, symSize: 0x34 }
  - { offsetInCU: 0x1D8E2, offset: 0x1D8E2, size: 0x8, addend: 0x0, symName: __ZNSt3__16vectorINS_4pairI8ESortKeybEENS_9allocatorIS3_EEEC1ERKS6_, symObjAddr: 0x357A8, symBinAddr: 0x100037ADC, symSize: 0x34 }
  - { offsetInCU: 0x1D91D, offset: 0x1D91D, size: 0x8, addend: 0x0, symName: __ZNSt3__16vectorINS_4pairI8ESortKeybEENS_9allocatorIS3_EEEC2ERKS6_, symObjAddr: 0x357DC, symBinAddr: 0x100037B10, symSize: 0x54C }
  - { offsetInCU: 0x1D98D, offset: 0x1D98D, size: 0x8, addend: 0x0, symName: __ZNSt3__116allocator_traitsINS_9allocatorINS_4pairI8ESortKeybEEEEE37select_on_container_copy_constructionB7v160006IS5_vvEES5_RKS5_, symObjAddr: 0x35D28, symBinAddr: 0x10003805C, symSize: 0x10 }
  - { offsetInCU: 0x1D9BC, offset: 0x1D9BC, size: 0x8, addend: 0x0, symName: __ZNKSt3__16vectorINS_4pairI8ESortKeybEENS_9allocatorIS3_EEE7__allocB7v160006Ev, symObjAddr: 0x35D38, symBinAddr: 0x10003806C, symSize: 0x28 }
  - { offsetInCU: 0x1D9E8, offset: 0x1D9E8, size: 0x8, addend: 0x0, symName: __ZNSt3__117__compressed_pairIPNS_4pairI8ESortKeybEENS_9allocatorIS3_EEEC1B7v160006IDnS6_EEOT_OT0_, symObjAddr: 0x35D60, symBinAddr: 0x100038094, symSize: 0x3C }
  - { offsetInCU: 0x1DA40, offset: 0x1DA40, size: 0x8, addend: 0x0, symName: __ZNSt3__16vectorINS_4pairI8ESortKeybEENS_9allocatorIS3_EEE16__destroy_vectorC1ERS6_, symObjAddr: 0x36014, symBinAddr: 0x100038348, symSize: 0x34 }
  - { offsetInCU: 0x1DA79, offset: 0x1DA79, size: 0x8, addend: 0x0, symName: __ZNKSt3__16vectorINS_4pairI8ESortKeybEENS_9allocatorIS3_EEE4sizeB7v160006Ev, symObjAddr: 0x36058, symBinAddr: 0x10003838C, symSize: 0xB0 }
  - { offsetInCU: 0x1DA9F, offset: 0x1DA9F, size: 0x8, addend: 0x0, symName: __ZNSt3__16vectorINS_4pairI8ESortKeybEENS_9allocatorIS3_EEE11__vallocateB7v160006Em, symObjAddr: 0x36108, symBinAddr: 0x10003843C, symSize: 0x420 }
  - { offsetInCU: 0x1DAE9, offset: 0x1DAE9, size: 0x8, addend: 0x0, symName: __ZNSt3__16vectorINS_4pairI8ESortKeybEENS_9allocatorIS3_EEE18__construct_at_endIPS3_Li0EEEvT_S9_m, symObjAddr: 0x36528, symBinAddr: 0x10003885C, symSize: 0x380 }
  - { offsetInCU: 0x1DB64, offset: 0x1DB64, size: 0x8, addend: 0x0, symName: __ZNSt3__128__exception_guard_exceptionsINS_6vectorINS_4pairI8ESortKeybEENS_9allocatorIS4_EEE16__destroy_vectorEE10__completeB7v160006Ev, symObjAddr: 0x368A8, symBinAddr: 0x100038BDC, symSize: 0x8C }
  - { offsetInCU: 0x1DB8A, offset: 0x1DB8A, size: 0x8, addend: 0x0, symName: __ZNSt3__128__exception_guard_exceptionsINS_6vectorINS_4pairI8ESortKeybEENS_9allocatorIS4_EEE16__destroy_vectorEED1B7v160006Ev, symObjAddr: 0x36934, symBinAddr: 0x100038C68, symSize: 0x2C }
  - { offsetInCU: 0x1DBB4, offset: 0x1DBB4, size: 0x8, addend: 0x0, symName: __ZNKSt3__117__compressed_pairIPNS_4pairI8ESortKeybEENS_9allocatorIS3_EEE6secondB7v160006Ev, symObjAddr: 0x36960, symBinAddr: 0x100038C94, symSize: 0x24 }
  - { offsetInCU: 0x1DBDA, offset: 0x1DBDA, size: 0x8, addend: 0x0, symName: __ZNKSt3__122__compressed_pair_elemINS_9allocatorINS_4pairI8ESortKeybEEEELi1ELb1EE5__getB7v160006Ev, symObjAddr: 0x36984, symBinAddr: 0x100038CB8, symSize: 0x14 }
  - { offsetInCU: 0x1DC00, offset: 0x1DC00, size: 0x8, addend: 0x0, symName: __ZNSt3__117__compressed_pairIPNS_4pairI8ESortKeybEENS_9allocatorIS3_EEEC2B7v160006IDnS6_EEOT_OT0_, symObjAddr: 0x36998, symBinAddr: 0x100038CCC, symSize: 0x44 }
  - { offsetInCU: 0x1DC58, offset: 0x1DC58, size: 0x8, addend: 0x0, symName: __ZNSt3__122__compressed_pair_elemIPNS_4pairI8ESortKeybEELi0ELb0EEC2B7v160006IDnvEEOT_, symObjAddr: 0x369DC, symBinAddr: 0x100038D10, symSize: 0x64 }
  - { offsetInCU: 0x1DC9A, offset: 0x1DC9A, size: 0x8, addend: 0x0, symName: __ZNSt3__122__compressed_pair_elemINS_9allocatorINS_4pairI8ESortKeybEEEELi1ELb1EEC2B7v160006IS5_vEEOT_, symObjAddr: 0x36A40, symBinAddr: 0x100038D74, symSize: 0x18 }
  - { offsetInCU: 0x1DCDC, offset: 0x1DCDC, size: 0x8, addend: 0x0, symName: __ZNSt3__128__exception_guard_exceptionsINS_6vectorINS_4pairI8ESortKeybEENS_9allocatorIS4_EEE16__destroy_vectorEEC1B7v160006ES8_, symObjAddr: 0x36A58, symBinAddr: 0x100038D8C, symSize: 0x238 }
  - { offsetInCU: 0x1DD19, offset: 0x1DD19, size: 0x8, addend: 0x0, symName: __ZNSt3__128__exception_guard_exceptionsINS_6vectorINS_4pairI8ESortKeybEENS_9allocatorIS4_EEE16__destroy_vectorEEC2B7v160006ES8_, symObjAddr: 0x36C90, symBinAddr: 0x100038FC4, symSize: 0x264 }
  - { offsetInCU: 0x1DD56, offset: 0x1DD56, size: 0x8, addend: 0x0, symName: __ZNSt3__16vectorINS_4pairI8ESortKeybEENS_9allocatorIS3_EEE16__destroy_vectorC2ERS6_, symObjAddr: 0x36EF4, symBinAddr: 0x100039228, symSize: 0x70 }
  - { offsetInCU: 0x1DD8F, offset: 0x1DD8F, size: 0x8, addend: 0x0, symName: __ZNKSt3__16vectorINS_4pairI8ESortKeybEENS_9allocatorIS3_EEE8max_sizeEv, symObjAddr: 0x36F64, symBinAddr: 0x100039298, symSize: 0x2FC }
  - { offsetInCU: 0x1DDB8, offset: 0x1DDB8, size: 0x8, addend: 0x0, symName: __ZNKSt3__16vectorINS_4pairI8ESortKeybEENS_9allocatorIS3_EEE20__throw_length_errorB7v160006Ev, symObjAddr: 0x37260, symBinAddr: 0x100039594, symSize: 0x20 }
  - { offsetInCU: 0x1DDDE, offset: 0x1DDDE, size: 0x8, addend: 0x0, symName: __ZNSt3__16vectorINS_4pairI8ESortKeybEENS_9allocatorIS3_EEE7__allocB7v160006Ev, symObjAddr: 0x3750C, symBinAddr: 0x100039840, symSize: 0x28 }
  - { offsetInCU: 0x1DE04, offset: 0x1DE04, size: 0x8, addend: 0x0, symName: __ZNSt3__16vectorINS_4pairI8ESortKeybEENS_9allocatorIS3_EEE9__end_capB7v160006Ev, symObjAddr: 0x37534, symBinAddr: 0x100039868, symSize: 0x28 }
  - { offsetInCU: 0x1DE2A, offset: 0x1DE2A, size: 0x8, addend: 0x0, symName: __ZNKSt3__16vectorINS_4pairI8ESortKeybEENS_9allocatorIS3_EEE14__annotate_newB7v160006Em, symObjAddr: 0x3755C, symBinAddr: 0x100039890, symSize: 0xC0 }
  - { offsetInCU: 0x1DE5F, offset: 0x1DE5F, size: 0x8, addend: 0x0, symName: __ZNSt3__116allocator_traitsINS_9allocatorINS_4pairI8ESortKeybEEEEE8max_sizeB7v160006IS5_vvEEmRKS5_, symObjAddr: 0x3761C, symBinAddr: 0x100039950, symSize: 0x28 }
  - { offsetInCU: 0x1DE8A, offset: 0x1DE8A, size: 0x8, addend: 0x0, symName: __ZNSt3__19allocatorINS_4pairI8ESortKeybEEE8allocateB7v160006Em, symObjAddr: 0x37644, symBinAddr: 0x100039978, symSize: 0x5C }
  - { offsetInCU: 0x1DEBE, offset: 0x1DEBE, size: 0x8, addend: 0x0, symName: __ZNSt3__117__compressed_pairIPNS_4pairI8ESortKeybEENS_9allocatorIS3_EEE6secondB7v160006Ev, symObjAddr: 0x376A0, symBinAddr: 0x1000399D4, symSize: 0x24 }
  - { offsetInCU: 0x1DEE4, offset: 0x1DEE4, size: 0x8, addend: 0x0, symName: __ZNSt3__122__compressed_pair_elemINS_9allocatorINS_4pairI8ESortKeybEEEELi1ELb1EE5__getB7v160006Ev, symObjAddr: 0x376C4, symBinAddr: 0x1000399F8, symSize: 0x14 }
  - { offsetInCU: 0x1DF0A, offset: 0x1DF0A, size: 0x8, addend: 0x0, symName: __ZNSt3__117__compressed_pairIPNS_4pairI8ESortKeybEENS_9allocatorIS3_EEE5firstB7v160006Ev, symObjAddr: 0x376D8, symBinAddr: 0x100039A0C, symSize: 0x24 }
  - { offsetInCU: 0x1DF30, offset: 0x1DF30, size: 0x8, addend: 0x0, symName: __ZNSt3__122__compressed_pair_elemIPNS_4pairI8ESortKeybEELi0ELb0EE5__getB7v160006Ev, symObjAddr: 0x376FC, symBinAddr: 0x100039A30, symSize: 0x14 }
  - { offsetInCU: 0x1DF56, offset: 0x1DF56, size: 0x8, addend: 0x0, symName: __ZNKSt3__16vectorINS_4pairI8ESortKeybEENS_9allocatorIS3_EEE31__annotate_contiguous_containerEPKvS8_S8_S8_, symObjAddr: 0x37710, symBinAddr: 0x100039A44, symSize: 0x58 }
  - { offsetInCU: 0x1DFB8, offset: 0x1DFB8, size: 0x8, addend: 0x0, symName: __ZNKSt3__16vectorINS_4pairI8ESortKeybEENS_9allocatorIS3_EEE4dataB7v160006Ev, symObjAddr: 0x37768, symBinAddr: 0x100039A9C, symSize: 0x64 }
  - { offsetInCU: 0x1DFDE, offset: 0x1DFDE, size: 0x8, addend: 0x0, symName: __ZNKSt3__16vectorINS_4pairI8ESortKeybEENS_9allocatorIS3_EEE8capacityB7v160006Ev, symObjAddr: 0x377CC, symBinAddr: 0x100039B00, symSize: 0xBC }
  - { offsetInCU: 0x1E004, offset: 0x1E004, size: 0x8, addend: 0x0, symName: __ZNKSt3__16vectorINS_4pairI8ESortKeybEENS_9allocatorIS3_EEE9__end_capB7v160006Ev, symObjAddr: 0x3789C, symBinAddr: 0x100039BD0, symSize: 0x28 }
  - { offsetInCU: 0x1E02A, offset: 0x1E02A, size: 0x8, addend: 0x0, symName: __ZNKSt3__117__compressed_pairIPNS_4pairI8ESortKeybEENS_9allocatorIS3_EEE5firstB7v160006Ev, symObjAddr: 0x378C4, symBinAddr: 0x100039BF8, symSize: 0x24 }
  - { offsetInCU: 0x1E050, offset: 0x1E050, size: 0x8, addend: 0x0, symName: __ZNKSt3__122__compressed_pair_elemIPNS_4pairI8ESortKeybEELi0ELb0EE5__getB7v160006Ev, symObjAddr: 0x378E8, symBinAddr: 0x100039C1C, symSize: 0x14 }
  - { offsetInCU: 0x1E08F, offset: 0x1E08F, size: 0x8, addend: 0x0, symName: __ZNSt3__16vectorINS_4pairI8ESortKeybEENS_9allocatorIS3_EEE21_ConstructTransactionC1B7v160006ERS6_m, symObjAddr: 0x378FC, symBinAddr: 0x100039C30, symSize: 0x3C }
  - { offsetInCU: 0x1E0D7, offset: 0x1E0D7, size: 0x8, addend: 0x0, symName: __ZNSt3__16vectorINS_4pairI8ESortKeybEENS_9allocatorIS3_EEE21_ConstructTransactionD1B7v160006Ev, symObjAddr: 0x37E58, symBinAddr: 0x10003A18C, symSize: 0x2C }
  - { offsetInCU: 0x1E101, offset: 0x1E101, size: 0x8, addend: 0x0, symName: __ZNSt3__16vectorINS_4pairI8ESortKeybEENS_9allocatorIS3_EEE21_ConstructTransactionC2B7v160006ERS6_m, symObjAddr: 0x37E84, symBinAddr: 0x10003A1B8, symSize: 0x1D0 }
  - { offsetInCU: 0x1E149, offset: 0x1E149, size: 0x8, addend: 0x0, symName: __ZNKSt3__16vectorINS_4pairI8ESortKeybEENS_9allocatorIS3_EEE19__annotate_increaseB7v160006Em, symObjAddr: 0x38054, symBinAddr: 0x10003A388, symSize: 0xD8 }
  - { offsetInCU: 0x1E17E, offset: 0x1E17E, size: 0x8, addend: 0x0, symName: __ZNSt3__129_AllocatorDestroyRangeReverseINS_9allocatorINS_4pairI8ESortKeybEEEEPS4_EC1B7v160006ERS5_RS6_S9_, symObjAddr: 0x38324, symBinAddr: 0x10003A658, symSize: 0x44 }
  - { offsetInCU: 0x1E1D5, offset: 0x1E1D5, size: 0x8, addend: 0x0, symName: __ZNSt3__116allocator_traitsINS_9allocatorINS_4pairI8ESortKeybEEEEE9constructB7v160006IS4_JRS4_EvvEEvRS5_PT_DpOT0_, symObjAddr: 0x38368, symBinAddr: 0x10003A69C, symSize: 0x30 }
  - { offsetInCU: 0x1E229, offset: 0x1E229, size: 0x8, addend: 0x0, symName: __ZNSt3__128__exception_guard_exceptionsINS_29_AllocatorDestroyRangeReverseINS_9allocatorINS_4pairI8ESortKeybEEEEPS5_EEE10__completeB7v160006Ev, symObjAddr: 0x38398, symBinAddr: 0x10003A6CC, symSize: 0x8C }
  - { offsetInCU: 0x1E24F, offset: 0x1E24F, size: 0x8, addend: 0x0, symName: __ZNSt3__128__exception_guard_exceptionsINS_29_AllocatorDestroyRangeReverseINS_9allocatorINS_4pairI8ESortKeybEEEEPS5_EEED1B7v160006Ev, symObjAddr: 0x38424, symBinAddr: 0x10003A758, symSize: 0x2C }
  - { offsetInCU: 0x1E279, offset: 0x1E279, size: 0x8, addend: 0x0, symName: __ZNSt3__128__exception_guard_exceptionsINS_29_AllocatorDestroyRangeReverseINS_9allocatorINS_4pairI8ESortKeybEEEEPS5_EEEC1B7v160006ES8_, symObjAddr: 0x38450, symBinAddr: 0x10003A784, symSize: 0x34 }
  - { offsetInCU: 0x1E2B2, offset: 0x1E2B2, size: 0x8, addend: 0x0, symName: __ZNSt3__128__exception_guard_exceptionsINS_29_AllocatorDestroyRangeReverseINS_9allocatorINS_4pairI8ESortKeybEEEEPS5_EEEC2B7v160006ES8_, symObjAddr: 0x38484, symBinAddr: 0x10003A7B8, symSize: 0xA4 }
  - { offsetInCU: 0x1E2EB, offset: 0x1E2EB, size: 0x8, addend: 0x0, symName: __ZNSt3__129_AllocatorDestroyRangeReverseINS_9allocatorINS_4pairI8ESortKeybEEEEPS4_EC2B7v160006ERS5_RS6_S9_, symObjAddr: 0x38528, symBinAddr: 0x10003A85C, symSize: 0x104 }
  - { offsetInCU: 0x1E342, offset: 0x1E342, size: 0x8, addend: 0x0, symName: __ZNSt3__128__exception_guard_exceptionsINS_29_AllocatorDestroyRangeReverseINS_9allocatorINS_4pairI8ESortKeybEEEEPS5_EEED2B7v160006Ev, symObjAddr: 0x3866C, symBinAddr: 0x10003A9A0, symSize: 0xBC }
  - { offsetInCU: 0x1E36C, offset: 0x1E36C, size: 0x8, addend: 0x0, symName: __ZNKSt3__129_AllocatorDestroyRangeReverseINS_9allocatorINS_4pairI8ESortKeybEEEEPS4_EclB7v160006Ev, symObjAddr: 0x38728, symBinAddr: 0x10003AA5C, symSize: 0x39C }
  - { offsetInCU: 0x1E393, offset: 0x1E393, size: 0x8, addend: 0x0, symName: __ZNSt3__116reverse_iteratorIPNS_4pairI8ESortKeybEEEC1B7v160006ES4_, symObjAddr: 0x38D7C, symBinAddr: 0x10003B0B0, symSize: 0x34 }
  - { offsetInCU: 0x1E3CB, offset: 0x1E3CB, size: 0x8, addend: 0x0, symName: __ZNSt3__116allocator_traitsINS_9allocatorINS_4pairI8ESortKeybEEEEE7destroyB7v160006IS4_vvEEvRS5_PT_, symObjAddr: 0x38DF8, symBinAddr: 0x10003B12C, symSize: 0x28 }
  - { offsetInCU: 0x1E405, offset: 0x1E405, size: 0x8, addend: 0x0, symName: __ZNSt3__116reverse_iteratorIPNS_4pairI8ESortKeybEEEppB7v160006Ev, symObjAddr: 0x38E44, symBinAddr: 0x10003B178, symSize: 0x6C }
  - { offsetInCU: 0x1E42B, offset: 0x1E42B, size: 0x8, addend: 0x0, symName: __ZNKSt3__116reverse_iteratorIPNS_4pairI8ESortKeybEEE4baseB7v160006Ev, symObjAddr: 0x38EB0, symBinAddr: 0x10003B1E4, symSize: 0x64 }
  - { offsetInCU: 0x1E456, offset: 0x1E456, size: 0x8, addend: 0x0, symName: __ZNSt3__119__to_address_helperINS_16reverse_iteratorIPNS_4pairI8ESortKeybEEEEvE6__callB7v160006ERKS6_, symObjAddr: 0x38F48, symBinAddr: 0x10003B27C, symSize: 0x44 }
  - { offsetInCU: 0x1E479, offset: 0x1E479, size: 0x8, addend: 0x0, symName: __ZNKSt3__116reverse_iteratorIPNS_4pairI8ESortKeybEEEptB7v160006Ev, symObjAddr: 0x38F8C, symBinAddr: 0x10003B2C0, symSize: 0x6C }
  - { offsetInCU: 0x1E49F, offset: 0x1E49F, size: 0x8, addend: 0x0, symName: __ZNSt3__116reverse_iteratorIPNS_4pairI8ESortKeybEEEC2B7v160006ES4_, symObjAddr: 0x3931C, symBinAddr: 0x10003B650, symSize: 0xB8 }
  - { offsetInCU: 0x1E4D7, offset: 0x1E4D7, size: 0x8, addend: 0x0, symName: __ZNSt3__16vectorINS_4pairI8ESortKeybEENS_9allocatorIS3_EEE21_ConstructTransactionD2B7v160006Ev, symObjAddr: 0x393D4, symBinAddr: 0x10003B708, symSize: 0x278 }
  - { offsetInCU: 0x1E501, offset: 0x1E501, size: 0x8, addend: 0x0, symName: __ZNKSt3__16vectorINS_4pairI8ESortKeybEENS_9allocatorIS3_EEE17__annotate_shrinkB7v160006Em, symObjAddr: 0x3964C, symBinAddr: 0x10003B980, symSize: 0xC8 }
  - { offsetInCU: 0x1E536, offset: 0x1E536, size: 0x8, addend: 0x0, symName: __ZNSt3__128__exception_guard_exceptionsINS_6vectorINS_4pairI8ESortKeybEENS_9allocatorIS4_EEE16__destroy_vectorEED2B7v160006Ev, symObjAddr: 0x39714, symBinAddr: 0x10003BA48, symSize: 0xBC }
  - { offsetInCU: 0x1E560, offset: 0x1E560, size: 0x8, addend: 0x0, symName: __ZNSt3__16vectorINS_4pairI8ESortKeybEENS_9allocatorIS3_EEE16__destroy_vectorclB7v160006Ev, symObjAddr: 0x397D0, symBinAddr: 0x10003BB04, symSize: 0x264 }
  - { offsetInCU: 0x1E586, offset: 0x1E586, size: 0x8, addend: 0x0, symName: __ZNKSt3__16vectorINS_4pairI8ESortKeybEENS_9allocatorIS3_EEE17__annotate_deleteB7v160006Ev, symObjAddr: 0x39A34, symBinAddr: 0x10003BD68, symSize: 0xCC }
  - { offsetInCU: 0x1E5AC, offset: 0x1E5AC, size: 0x8, addend: 0x0, symName: __ZNSt3__16vectorINS_4pairI8ESortKeybEENS_9allocatorIS3_EEE7__clearB7v160006Ev, symObjAddr: 0x39B10, symBinAddr: 0x10003BE44, symSize: 0x64 }
  - { offsetInCU: 0x1E5D2, offset: 0x1E5D2, size: 0x8, addend: 0x0, symName: __ZNSt3__116allocator_traitsINS_9allocatorINS_4pairI8ESortKeybEEEEE10deallocateB7v160006ERS5_PS4_m, symObjAddr: 0x39B74, symBinAddr: 0x10003BEA8, symSize: 0x34 }
  - { offsetInCU: 0x1E614, offset: 0x1E614, size: 0x8, addend: 0x0, symName: __ZNSt3__16vectorINS_4pairI8ESortKeybEENS_9allocatorIS3_EEE22__base_destruct_at_endB7v160006EPS3_, symObjAddr: 0x39BA8, symBinAddr: 0x10003BEDC, symSize: 0x114 }
  - { offsetInCU: 0x1E658, offset: 0x1E658, size: 0x8, addend: 0x0, symName: __ZNSt3__19allocatorINS_4pairI8ESortKeybEEE10deallocateB7v160006EPS3_m, symObjAddr: 0x39CBC, symBinAddr: 0x10003BFF0, symSize: 0x4C }
  - { offsetInCU: 0x1E69A, offset: 0x1E69A, size: 0x8, addend: 0x0, symName: __ZNSt3__14listI8CStudentNS_9allocatorIS1_EEEC2INS_11__wrap_iterIPS1_EEEET_S9_PNS_9enable_ifIXsr25__is_cpp17_input_iteratorIS9_EE5valueEvE4typeE, symObjAddr: 0x39D08, symBinAddr: 0x10003C03C, symSize: 0x380 }
  - { offsetInCU: 0x1E702, offset: 0x1E702, size: 0x8, addend: 0x0, symName: __ZNSt3__110__list_impI8CStudentNS_9allocatorIS1_EEEC2Ev, symObjAddr: 0x3A088, symBinAddr: 0x10003C3BC, symSize: 0x290 }
  - { offsetInCU: 0x1E72F, offset: 0x1E72F, size: 0x8, addend: 0x0, symName: __ZNSt3__14listI8CStudentNS_9allocatorIS1_EEE14__emplace_backB7v160006IRS1_EEvOT_, symObjAddr: 0x3A35C, symBinAddr: 0x10003C690, symSize: 0x2C }
  - { offsetInCU: 0x1E76D, offset: 0x1E76D, size: 0x8, addend: 0x0, symName: __ZNKSt3__111__wrap_iterIP8CStudentEdeB7v160006Ev, symObjAddr: 0x3A388, symBinAddr: 0x10003C6BC, symSize: 0x60 }
  - { offsetInCU: 0x1E793, offset: 0x1E793, size: 0x8, addend: 0x0, symName: __ZNSt3__111__wrap_iterIP8CStudentEppB7v160006Ev, symObjAddr: 0x3A3E8, symBinAddr: 0x10003C71C, symSize: 0x68 }
  - { offsetInCU: 0x1E7B9, offset: 0x1E7B9, size: 0x8, addend: 0x0, symName: __ZNSt3__110__list_impI8CStudentNS_9allocatorIS1_EEED2Ev, symObjAddr: 0x3A450, symBinAddr: 0x10003C784, symSize: 0x48 }
  - { offsetInCU: 0x1E7E5, offset: 0x1E7E5, size: 0x8, addend: 0x0, symName: __ZNSt3__116__list_node_baseI8CStudentPvEC1B7v160006Ev, symObjAddr: 0x3A498, symBinAddr: 0x10003C7CC, symSize: 0x2C }
  - { offsetInCU: 0x1E815, offset: 0x1E815, size: 0x8, addend: 0x0, symName: __ZNSt3__117__compressed_pairImNS_9allocatorINS_11__list_nodeI8CStudentPvEEEEEC1B7v160006IiNS_18__default_init_tagEEEOT_OT0_, symObjAddr: 0x3A4C4, symBinAddr: 0x10003C7F8, symSize: 0x3C }
  - { offsetInCU: 0x1E86D, offset: 0x1E86D, size: 0x8, addend: 0x0, symName: __ZNSt3__116__list_node_baseI8CStudentPvEC2B7v160006Ev, symObjAddr: 0x3A500, symBinAddr: 0x10003C834, symSize: 0xCC }
  - { offsetInCU: 0x1E897, offset: 0x1E897, size: 0x8, addend: 0x0, symName: __ZNSt3__117__compressed_pairImNS_9allocatorINS_11__list_nodeI8CStudentPvEEEEEC2B7v160006IiNS_18__default_init_tagEEEOT_OT0_, symObjAddr: 0x3A5CC, symBinAddr: 0x10003C900, symSize: 0x40 }
  - { offsetInCU: 0x1E8EF, offset: 0x1E8EF, size: 0x8, addend: 0x0, symName: __ZNSt3__122__compressed_pair_elemImLi0ELb0EEC2B7v160006IivEEOT_, symObjAddr: 0x3A60C, symBinAddr: 0x10003C940, symSize: 0xD8 }
  - { offsetInCU: 0x1E931, offset: 0x1E931, size: 0x8, addend: 0x0, symName: __ZNSt3__122__compressed_pair_elemINS_9allocatorINS_11__list_nodeI8CStudentPvEEEELi1ELb1EEC2B7v160006ENS_18__default_init_tagE, symObjAddr: 0x3A6E4, symBinAddr: 0x10003CA18, symSize: 0x2C }
  - { offsetInCU: 0x1E965, offset: 0x1E965, size: 0x8, addend: 0x0, symName: __ZNSt3__19allocatorINS_11__list_nodeI8CStudentPvEEEC2B7v160006Ev, symObjAddr: 0x3A710, symBinAddr: 0x10003CA44, symSize: 0x2C }
  - { offsetInCU: 0x1E98F, offset: 0x1E98F, size: 0x8, addend: 0x0, symName: __ZNSt3__116__non_trivial_ifILb1ENS_9allocatorINS_11__list_nodeI8CStudentPvEEEEEC2B7v160006Ev, symObjAddr: 0x3A73C, symBinAddr: 0x10003CA70, symSize: 0x14 }
  - { offsetInCU: 0x1E9B9, offset: 0x1E9B9, size: 0x8, addend: 0x0, symName: __ZNSt3__14listI8CStudentNS_9allocatorIS1_EEE12emplace_backIJRS1_EEES6_DpOT_, symObjAddr: 0x3A798, symBinAddr: 0x10003CACC, symSize: 0x390 }
  - { offsetInCU: 0x1EA30, offset: 0x1EA30, size: 0x8, addend: 0x0, symName: __ZNSt3__116allocator_traitsINS_9allocatorINS_11__list_nodeI8CStudentPvEEEEE9constructB7v160006IS3_JRS3_EvvEEvRS6_PT_DpOT0_, symObjAddr: 0x3AB28, symBinAddr: 0x10003CE5C, symSize: 0x30 }
  - { offsetInCU: 0x1EA84, offset: 0x1EA84, size: 0x8, addend: 0x0, symName: __ZNSt3__110__list_impI8CStudentNS_9allocatorIS1_EEE5clearEv, symObjAddr: 0x3AB94, symBinAddr: 0x10003CEC8, symSize: 0x1D4 }
  - { offsetInCU: 0x1EAF4, offset: 0x1EAF4, size: 0x8, addend: 0x0, symName: __ZNKSt3__110__list_impI8CStudentNS_9allocatorIS1_EEE5emptyB7v160006Ev, symObjAddr: 0x3AD78, symBinAddr: 0x10003D0AC, symSize: 0x78 }
  - { offsetInCU: 0x1EB1A, offset: 0x1EB1A, size: 0x8, addend: 0x0, symName: __ZNSt3__110__list_impI8CStudentNS_9allocatorIS1_EEE14__unlink_nodesEPNS_16__list_node_baseIS1_PvEES8_, symObjAddr: 0x3ADF0, symBinAddr: 0x10003D124, symSize: 0x1A8 }
  - { offsetInCU: 0x1EB4F, offset: 0x1EB4F, size: 0x8, addend: 0x0, symName: __ZNSt3__116allocator_traitsINS_9allocatorINS_11__list_nodeI8CStudentPvEEEEE7destroyB7v160006IS3_vvEEvRS6_PT_, symObjAddr: 0x3AF98, symBinAddr: 0x10003D2CC, symSize: 0x28 }
  - { offsetInCU: 0x1EB89, offset: 0x1EB89, size: 0x8, addend: 0x0, symName: __ZNKSt3__110__list_impI8CStudentNS_9allocatorIS1_EEE4__szB7v160006Ev, symObjAddr: 0x3AFD0, symBinAddr: 0x10003D304, symSize: 0x28 }
  - { offsetInCU: 0x1EBAF, offset: 0x1EBAF, size: 0x8, addend: 0x0, symName: __ZNKSt3__117__compressed_pairImNS_9allocatorINS_11__list_nodeI8CStudentPvEEEEE5firstB7v160006Ev, symObjAddr: 0x3AFF8, symBinAddr: 0x10003D32C, symSize: 0x24 }
  - { offsetInCU: 0x1EBD5, offset: 0x1EBD5, size: 0x8, addend: 0x0, symName: __ZNKSt3__122__compressed_pair_elemImLi0ELb0EE5__getB7v160006Ev, symObjAddr: 0x3B01C, symBinAddr: 0x10003D350, symSize: 0x14 }
  - { offsetInCU: 0x1EBFB, offset: 0x1EBFB, size: 0x8, addend: 0x0, symName: __ZNSt3__16vectorI8CStudentNS_9allocatorIS1_EEED2B7v160006Ev, symObjAddr: 0x3B030, symBinAddr: 0x10003D364, symSize: 0x1F8 }
  - { offsetInCU: 0x1EC26, offset: 0x1EC26, size: 0x8, addend: 0x0, symName: __ZNSt3__16vectorI8CStudentNS_9allocatorIS1_EEE16__destroy_vectorC1ERS4_, symObjAddr: 0x3B228, symBinAddr: 0x10003D55C, symSize: 0x34 }
  - { offsetInCU: 0x1EC5F, offset: 0x1EC5F, size: 0x8, addend: 0x0, symName: __ZNSt3__16vectorI8CStudentNS_9allocatorIS1_EEE16__destroy_vectorclB7v160006Ev, symObjAddr: 0x3B25C, symBinAddr: 0x10003D590, symSize: 0x264 }
  - { offsetInCU: 0x1EC85, offset: 0x1EC85, size: 0x8, addend: 0x0, symName: __ZNSt3__16vectorI8CStudentNS_9allocatorIS1_EEE16__destroy_vectorC2ERS4_, symObjAddr: 0x3B4C0, symBinAddr: 0x10003D7F4, symSize: 0x70 }
  - { offsetInCU: 0x1ECBE, offset: 0x1ECBE, size: 0x8, addend: 0x0, symName: __ZNSt3__16vectorI8CStudentNS_9allocatorIS1_EEE7__clearB7v160006Ev, symObjAddr: 0x3B540, symBinAddr: 0x10003D874, symSize: 0x64 }
  - { offsetInCU: 0x1ECE4, offset: 0x1ECE4, size: 0x8, addend: 0x0, symName: __ZNSt3__16vectorI8CStudentNS_9allocatorIS1_EEE22__base_destruct_at_endB7v160006EPS1_, symObjAddr: 0x3B5A4, symBinAddr: 0x10003D8D8, symSize: 0x114 }
  - { offsetInCU: 0x1ED28, offset: 0x1ED28, size: 0x8, addend: 0x0, symName: __ZN7CFilterC2Ev, symObjAddr: 0x3B6B8, symBinAddr: 0x10003D9EC, symSize: 0x5C }
  - { offsetInCU: 0x1ED52, offset: 0x1ED52, size: 0x8, addend: 0x0, symName: __ZNSt3__18optionalINS_12basic_stringIcNS_11char_traitsIcEENS_9allocatorIcEEEEEC1B7v160006Ev, symObjAddr: 0x3B714, symBinAddr: 0x10003DA48, symSize: 0x2C }
  - { offsetInCU: 0x1ED7C, offset: 0x1ED7C, size: 0x8, addend: 0x0, symName: __ZNSt3__18optionalI5CDateEC1B7v160006Ev, symObjAddr: 0x3B740, symBinAddr: 0x10003DA74, symSize: 0x2C }
  - { offsetInCU: 0x1EDA6, offset: 0x1EDA6, size: 0x8, addend: 0x0, symName: __ZNSt3__18optionalIiEC1B7v160006Ev, symObjAddr: 0x3B76C, symBinAddr: 0x10003DAA0, symSize: 0x2C }
  - { offsetInCU: 0x1EDD0, offset: 0x1EDD0, size: 0x8, addend: 0x0, symName: __ZNSt3__18optionalINS_12basic_stringIcNS_11char_traitsIcEENS_9allocatorIcEEEEEC2B7v160006Ev, symObjAddr: 0x3B798, symBinAddr: 0x10003DACC, symSize: 0x2C }
  - { offsetInCU: 0x1EDFA, offset: 0x1EDFA, size: 0x8, addend: 0x0, symName: __ZNSt3__127__optional_move_assign_baseINS_12basic_stringIcNS_11char_traitsIcEENS_9allocatorIcEEEELb0EEC2B7v160006Ev, symObjAddr: 0x3B7C4, symBinAddr: 0x10003DAF8, symSize: 0x2C }
  - { offsetInCU: 0x1EE24, offset: 0x1EE24, size: 0x8, addend: 0x0, symName: __ZNSt3__127__optional_copy_assign_baseINS_12basic_stringIcNS_11char_traitsIcEENS_9allocatorIcEEEELb0EEC2B7v160006Ev, symObjAddr: 0x3B7F0, symBinAddr: 0x10003DB24, symSize: 0x2C }
  - { offsetInCU: 0x1EE4E, offset: 0x1EE4E, size: 0x8, addend: 0x0, symName: __ZNSt3__120__optional_move_baseINS_12basic_stringIcNS_11char_traitsIcEENS_9allocatorIcEEEELb0EEC2B7v160006Ev, symObjAddr: 0x3B81C, symBinAddr: 0x10003DB50, symSize: 0x2C }
  - { offsetInCU: 0x1EE78, offset: 0x1EE78, size: 0x8, addend: 0x0, symName: __ZNSt3__120__optional_copy_baseINS_12basic_stringIcNS_11char_traitsIcEENS_9allocatorIcEEEELb0EEC2B7v160006Ev, symObjAddr: 0x3B848, symBinAddr: 0x10003DB7C, symSize: 0x2C }
  - { offsetInCU: 0x1EEA2, offset: 0x1EEA2, size: 0x8, addend: 0x0, symName: __ZNSt3__123__optional_storage_baseINS_12basic_stringIcNS_11char_traitsIcEENS_9allocatorIcEEEELb0EEC2Ev, symObjAddr: 0x3B874, symBinAddr: 0x10003DBA8, symSize: 0x2C }
  - { offsetInCU: 0x1EECF, offset: 0x1EECF, size: 0x8, addend: 0x0, symName: __ZNSt3__124__optional_destruct_baseINS_12basic_stringIcNS_11char_traitsIcEENS_9allocatorIcEEEELb0EEC2B7v160006Ev, symObjAddr: 0x3B8A0, symBinAddr: 0x10003DBD4, symSize: 0xE4 }
  - { offsetInCU: 0x1EEF9, offset: 0x1EEF9, size: 0x8, addend: 0x0, symName: __ZNSt3__18optionalI5CDateEC2B7v160006Ev, symObjAddr: 0x3B984, symBinAddr: 0x10003DCB8, symSize: 0x2C }
  - { offsetInCU: 0x1EF28, offset: 0x1EF28, size: 0x8, addend: 0x0, symName: __ZNSt3__127__optional_move_assign_baseI5CDateLb1EEC2Ev, symObjAddr: 0x3B9B0, symBinAddr: 0x10003DCE4, symSize: 0x2C }
  - { offsetInCU: 0x1EF5A, offset: 0x1EF5A, size: 0x8, addend: 0x0, symName: __ZNSt3__127__optional_copy_assign_baseI5CDateLb1EEC2Ev, symObjAddr: 0x3B9DC, symBinAddr: 0x10003DD10, symSize: 0x2C }
  - { offsetInCU: 0x1EF8C, offset: 0x1EF8C, size: 0x8, addend: 0x0, symName: __ZNSt3__120__optional_move_baseI5CDateLb1EEC2Ev, symObjAddr: 0x3BA08, symBinAddr: 0x10003DD3C, symSize: 0x2C }
  - { offsetInCU: 0x1EFBE, offset: 0x1EFBE, size: 0x8, addend: 0x0, symName: __ZNSt3__120__optional_copy_baseI5CDateLb1EEC2Ev, symObjAddr: 0x3BA34, symBinAddr: 0x10003DD68, symSize: 0x2C }
  - { offsetInCU: 0x1EFEB, offset: 0x1EFEB, size: 0x8, addend: 0x0, symName: __ZNSt3__123__optional_storage_baseI5CDateLb0EEC2Ev, symObjAddr: 0x3BA60, symBinAddr: 0x10003DD94, symSize: 0x2C }
  - { offsetInCU: 0x1F018, offset: 0x1F018, size: 0x8, addend: 0x0, symName: __ZNSt3__124__optional_destruct_baseI5CDateLb1EEC2B7v160006Ev, symObjAddr: 0x3BA8C, symBinAddr: 0x10003DDC0, symSize: 0xE4 }
  - { offsetInCU: 0x1F042, offset: 0x1F042, size: 0x8, addend: 0x0, symName: __ZNSt3__18optionalIiEC2B7v160006Ev, symObjAddr: 0x3BB70, symBinAddr: 0x10003DEA4, symSize: 0x2C }
  - { offsetInCU: 0x1F071, offset: 0x1F071, size: 0x8, addend: 0x0, symName: __ZNSt3__127__optional_move_assign_baseIiLb1EEC2Ev, symObjAddr: 0x3BB9C, symBinAddr: 0x10003DED0, symSize: 0x2C }
  - { offsetInCU: 0x1F0A3, offset: 0x1F0A3, size: 0x8, addend: 0x0, symName: __ZNSt3__127__optional_copy_assign_baseIiLb1EEC2Ev, symObjAddr: 0x3BBC8, symBinAddr: 0x10003DEFC, symSize: 0x2C }
  - { offsetInCU: 0x1F0D5, offset: 0x1F0D5, size: 0x8, addend: 0x0, symName: __ZNSt3__120__optional_move_baseIiLb1EEC2Ev, symObjAddr: 0x3BBF4, symBinAddr: 0x10003DF28, symSize: 0x2C }
  - { offsetInCU: 0x1F107, offset: 0x1F107, size: 0x8, addend: 0x0, symName: __ZNSt3__120__optional_copy_baseIiLb1EEC2Ev, symObjAddr: 0x3BC20, symBinAddr: 0x10003DF54, symSize: 0x2C }
  - { offsetInCU: 0x1F134, offset: 0x1F134, size: 0x8, addend: 0x0, symName: __ZNSt3__123__optional_storage_baseIiLb0EEC2Ev, symObjAddr: 0x3BC4C, symBinAddr: 0x10003DF80, symSize: 0x2C }
  - { offsetInCU: 0x1F161, offset: 0x1F161, size: 0x8, addend: 0x0, symName: __ZNSt3__124__optional_destruct_baseIiLb1EEC2B7v160006Ev, symObjAddr: 0x3BC78, symBinAddr: 0x10003DFAC, symSize: 0xE4 }
  - { offsetInCU: 0x1F18B, offset: 0x1F18B, size: 0x8, addend: 0x0, symName: __ZN5CSortC2Ev, symObjAddr: 0x3BD5C, symBinAddr: 0x10003E090, symSize: 0x2C }
  - { offsetInCU: 0x1F1B5, offset: 0x1F1B5, size: 0x8, addend: 0x0, symName: __ZNSt3__16vectorINS_4pairI8ESortKeybEENS_9allocatorIS3_EEEC1B7v160006Ev, symObjAddr: 0x3BD88, symBinAddr: 0x10003E0BC, symSize: 0x2C }
  - { offsetInCU: 0x1F1DF, offset: 0x1F1DF, size: 0x8, addend: 0x0, symName: __ZNSt3__16vectorINS_4pairI8ESortKeybEENS_9allocatorIS3_EEEC2B7v160006Ev, symObjAddr: 0x3BDB4, symBinAddr: 0x10003E0E8, symSize: 0x2F0 }
  - { offsetInCU: 0x1F20A, offset: 0x1F20A, size: 0x8, addend: 0x0, symName: __ZNSt3__117__compressed_pairIPNS_4pairI8ESortKeybEENS_9allocatorIS3_EEEC1B7v160006IDnNS_18__default_init_tagEEEOT_OT0_, symObjAddr: 0x3C0A4, symBinAddr: 0x10003E3D8, symSize: 0x3C }
  - { offsetInCU: 0x1F262, offset: 0x1F262, size: 0x8, addend: 0x0, symName: __ZNSt3__117__compressed_pairIPNS_4pairI8ESortKeybEENS_9allocatorIS3_EEEC2B7v160006IDnNS_18__default_init_tagEEEOT_OT0_, symObjAddr: 0x3C0E0, symBinAddr: 0x10003E414, symSize: 0x40 }
  - { offsetInCU: 0x1F2BA, offset: 0x1F2BA, size: 0x8, addend: 0x0, symName: __ZNSt3__122__compressed_pair_elemINS_9allocatorINS_4pairI8ESortKeybEEEELi1ELb1EEC2B7v160006ENS_18__default_init_tagE, symObjAddr: 0x3C120, symBinAddr: 0x10003E454, symSize: 0x2C }
  - { offsetInCU: 0x1F2EE, offset: 0x1F2EE, size: 0x8, addend: 0x0, symName: __ZNSt3__19allocatorINS_4pairI8ESortKeybEEEC2B7v160006Ev, symObjAddr: 0x3C14C, symBinAddr: 0x10003E480, symSize: 0x2C }
  - { offsetInCU: 0x1F318, offset: 0x1F318, size: 0x8, addend: 0x0, symName: __ZNSt3__116__non_trivial_ifILb1ENS_9allocatorINS_4pairI8ESortKeybEEEEEC2B7v160006Ev, symObjAddr: 0x3C178, symBinAddr: 0x10003E4AC, symSize: 0x14 }
  - { offsetInCU: 0x1F342, offset: 0x1F342, size: 0x8, addend: 0x0, symName: __ZNSt3__14listI8CStudentNS_9allocatorIS1_EEED2Ev, symObjAddr: 0x3C18C, symBinAddr: 0x10003E4C0, symSize: 0x2C }
  - { offsetInCU: 0x1F36F, offset: 0x1F36F, size: 0x8, addend: 0x0, symName: __ZN5CSortD2Ev, symObjAddr: 0x3C1B8, symBinAddr: 0x10003E4EC, symSize: 0x2C }
  - { offsetInCU: 0x1F39B, offset: 0x1F39B, size: 0x8, addend: 0x0, symName: __ZNSt3__16vectorINS_4pairI8ESortKeybEENS_9allocatorIS3_EEED1B7v160006Ev, symObjAddr: 0x3C1E4, symBinAddr: 0x10003E518, symSize: 0x2C }
  - { offsetInCU: 0x1F3C5, offset: 0x1F3C5, size: 0x8, addend: 0x0, symName: __ZNSt3__16vectorINS_4pairI8ESortKeybEENS_9allocatorIS3_EEED2B7v160006Ev, symObjAddr: 0x3C210, symBinAddr: 0x10003E544, symSize: 0x1F8 }
  - { offsetInCU: 0x1F3F0, offset: 0x1F3F0, size: 0x8, addend: 0x0, symName: __ZN7CFilterD2Ev, symObjAddr: 0x3C408, symBinAddr: 0x10003E73C, symSize: 0x2C }
  - { offsetInCU: 0x1F41C, offset: 0x1F41C, size: 0x8, addend: 0x0, symName: __ZNSt3__18optionalINS_12basic_stringIcNS_11char_traitsIcEENS_9allocatorIcEEEEED1Ev, symObjAddr: 0x3C434, symBinAddr: 0x10003E768, symSize: 0x2C }
  - { offsetInCU: 0x1F449, offset: 0x1F449, size: 0x8, addend: 0x0, symName: __ZNSt3__18optionalINS_12basic_stringIcNS_11char_traitsIcEENS_9allocatorIcEEEEED2Ev, symObjAddr: 0x3C460, symBinAddr: 0x10003E794, symSize: 0x2C }
  - { offsetInCU: 0x1F476, offset: 0x1F476, size: 0x8, addend: 0x0, symName: __ZNSt3__127__optional_move_assign_baseINS_12basic_stringIcNS_11char_traitsIcEENS_9allocatorIcEEEELb0EED2Ev, symObjAddr: 0x3C48C, symBinAddr: 0x10003E7C0, symSize: 0x2C }
  - { offsetInCU: 0x1F4A3, offset: 0x1F4A3, size: 0x8, addend: 0x0, symName: __ZNSt3__127__optional_copy_assign_baseINS_12basic_stringIcNS_11char_traitsIcEENS_9allocatorIcEEEELb0EED2Ev, symObjAddr: 0x3C4B8, symBinAddr: 0x10003E7EC, symSize: 0x2C }
  - { offsetInCU: 0x1F4D0, offset: 0x1F4D0, size: 0x8, addend: 0x0, symName: __ZNSt3__120__optional_move_baseINS_12basic_stringIcNS_11char_traitsIcEENS_9allocatorIcEEEELb0EED2Ev, symObjAddr: 0x3C4E4, symBinAddr: 0x10003E818, symSize: 0x2C }
  - { offsetInCU: 0x1F4FD, offset: 0x1F4FD, size: 0x8, addend: 0x0, symName: __ZNSt3__120__optional_copy_baseINS_12basic_stringIcNS_11char_traitsIcEENS_9allocatorIcEEEELb0EED2Ev, symObjAddr: 0x3C510, symBinAddr: 0x10003E844, symSize: 0x2C }
  - { offsetInCU: 0x1F52A, offset: 0x1F52A, size: 0x8, addend: 0x0, symName: __ZNSt3__123__optional_storage_baseINS_12basic_stringIcNS_11char_traitsIcEENS_9allocatorIcEEEELb0EED2Ev, symObjAddr: 0x3C53C, symBinAddr: 0x10003E870, symSize: 0x2C }
  - { offsetInCU: 0x1F557, offset: 0x1F557, size: 0x8, addend: 0x0, symName: __ZNSt3__124__optional_destruct_baseINS_12basic_stringIcNS_11char_traitsIcEENS_9allocatorIcEEEELb0EED2B7v160006Ev, symObjAddr: 0x3C568, symBinAddr: 0x10003E89C, symSize: 0xA8 }
  - { offsetInCU: 0x1F58B, offset: 0x1F58B, size: 0x8, addend: 0x0, symName: __ZNSt3__16vectorINS_4pairI8ESortKeybEENS_9allocatorIS3_EEE12emplace_backIJRS2_RbEEERS3_DpOT_, symObjAddr: 0x3C610, symBinAddr: 0x10003E944, symSize: 0xF4 }
  - { offsetInCU: 0x1F5E1, offset: 0x1F5E1, size: 0x8, addend: 0x0, symName: __ZNSt3__16vectorINS_4pairI8ESortKeybEENS_9allocatorIS3_EEE22__construct_one_at_endB7v160006IJRS2_RbEEEvDpOT_, symObjAddr: 0x3C704, symBinAddr: 0x10003EA38, symSize: 0x374 }
  - { offsetInCU: 0x1F64B, offset: 0x1F64B, size: 0x8, addend: 0x0, symName: __ZNSt3__16vectorINS_4pairI8ESortKeybEENS_9allocatorIS3_EEE24__emplace_back_slow_pathIJRS2_RbEEEvDpOT_, symObjAddr: 0x3CA78, symBinAddr: 0x10003EDAC, symSize: 0x3C8 }
  - { offsetInCU: 0x1F6C7, offset: 0x1F6C7, size: 0x8, addend: 0x0, symName: __ZNSt3__16vectorINS_4pairI8ESortKeybEENS_9allocatorIS3_EEE4backB7v160006Ev, symObjAddr: 0x3CE40, symBinAddr: 0x10003F174, symSize: 0x68 }
  - { offsetInCU: 0x1F6ED, offset: 0x1F6ED, size: 0x8, addend: 0x0, symName: __ZNSt3__116allocator_traitsINS_9allocatorINS_4pairI8ESortKeybEEEEE9constructB7v160006IS4_JRS3_RbEvvEEvRS5_PT_DpOT0_, symObjAddr: 0x3CEA8, symBinAddr: 0x10003F1DC, symSize: 0x38 }
  - { offsetInCU: 0x1F755, offset: 0x1F755, size: 0x8, addend: 0x0, symName: __ZNSt3__14pairI8ESortKeybEC1B7v160006IRS1_RbLPv0EEEOT_OT0_, symObjAddr: 0x3CF24, symBinAddr: 0x10003F258, symSize: 0x3C }
  - { offsetInCU: 0x1F7B3, offset: 0x1F7B3, size: 0x8, addend: 0x0, symName: __ZNSt3__14pairI8ESortKeybEC2B7v160006IRS1_RbLPv0EEEOT_OT0_, symObjAddr: 0x3CF60, symBinAddr: 0x10003F294, symSize: 0x1D8 }
  - { offsetInCU: 0x1F811, offset: 0x1F811, size: 0x8, addend: 0x0, symName: __ZNKSt3__16vectorINS_4pairI8ESortKeybEENS_9allocatorIS3_EEE11__recommendB7v160006Em, symObjAddr: 0x3D138, symBinAddr: 0x10003F46C, symSize: 0x384 }
  - { offsetInCU: 0x1F86D, offset: 0x1F86D, size: 0x8, addend: 0x0, symName: __ZNSt3__114__split_bufferINS_4pairI8ESortKeybEERNS_9allocatorIS3_EEEC1EmmS6_, symObjAddr: 0x3D4BC, symBinAddr: 0x10003F7F0, symSize: 0x44 }
  - { offsetInCU: 0x1F8C3, offset: 0x1F8C3, size: 0x8, addend: 0x0, symName: __ZNSt3__114__split_bufferINS_4pairI8ESortKeybEERNS_9allocatorIS3_EEED1Ev, symObjAddr: 0x3DA74, symBinAddr: 0x10003FDA8, symSize: 0x2C }
  - { offsetInCU: 0x1F8EF, offset: 0x1F8EF, size: 0x8, addend: 0x0, symName: __ZNSt3__114__split_bufferINS_4pairI8ESortKeybEERNS_9allocatorIS3_EEEC2EmmS6_, symObjAddr: 0x3DAA0, symBinAddr: 0x10003FDD4, symSize: 0x520 }
  - { offsetInCU: 0x1F96A, offset: 0x1F96A, size: 0x8, addend: 0x0, symName: __ZNSt3__117__compressed_pairIPNS_4pairI8ESortKeybEERNS_9allocatorIS3_EEEC1B7v160006IDnS7_EEOT_OT0_, symObjAddr: 0x3DFC0, symBinAddr: 0x1000402F4, symSize: 0x3C }
  - { offsetInCU: 0x1F9C2, offset: 0x1F9C2, size: 0x8, addend: 0x0, symName: __ZNSt3__114__split_bufferINS_4pairI8ESortKeybEERNS_9allocatorIS3_EEE7__allocB7v160006Ev, symObjAddr: 0x3DFFC, symBinAddr: 0x100040330, symSize: 0x28 }
  - { offsetInCU: 0x1F9E8, offset: 0x1F9E8, size: 0x8, addend: 0x0, symName: __ZNSt3__114__split_bufferINS_4pairI8ESortKeybEERNS_9allocatorIS3_EEE9__end_capB7v160006Ev, symObjAddr: 0x3E024, symBinAddr: 0x100040358, symSize: 0x28 }
  - { offsetInCU: 0x1FA0E, offset: 0x1FA0E, size: 0x8, addend: 0x0, symName: __ZNSt3__117__compressed_pairIPNS_4pairI8ESortKeybEERNS_9allocatorIS3_EEEC2B7v160006IDnS7_EEOT_OT0_, symObjAddr: 0x3E04C, symBinAddr: 0x100040380, symSize: 0x48 }
  - { offsetInCU: 0x1FA66, offset: 0x1FA66, size: 0x8, addend: 0x0, symName: __ZNSt3__122__compressed_pair_elemIRNS_9allocatorINS_4pairI8ESortKeybEEEELi1ELb0EEC2B7v160006IS6_vEEOT_, symObjAddr: 0x3E094, symBinAddr: 0x1000403C8, symSize: 0x70 }
  - { offsetInCU: 0x1FAA8, offset: 0x1FAA8, size: 0x8, addend: 0x0, symName: __ZNSt3__117__compressed_pairIPNS_4pairI8ESortKeybEERNS_9allocatorIS3_EEE6secondB7v160006Ev, symObjAddr: 0x3E104, symBinAddr: 0x100040438, symSize: 0x28 }
  - { offsetInCU: 0x1FACE, offset: 0x1FACE, size: 0x8, addend: 0x0, symName: __ZNSt3__122__compressed_pair_elemIRNS_9allocatorINS_4pairI8ESortKeybEEEELi1ELb0EE5__getB7v160006Ev, symObjAddr: 0x3E12C, symBinAddr: 0x100040460, symSize: 0x60 }
  - { offsetInCU: 0x1FAF4, offset: 0x1FAF4, size: 0x8, addend: 0x0, symName: __ZNSt3__117__compressed_pairIPNS_4pairI8ESortKeybEERNS_9allocatorIS3_EEE5firstB7v160006Ev, symObjAddr: 0x3E18C, symBinAddr: 0x1000404C0, symSize: 0x24 }
  - { offsetInCU: 0x1FB1A, offset: 0x1FB1A, size: 0x8, addend: 0x0, symName: __ZNSt3__129_AllocatorDestroyRangeReverseINS_9allocatorINS_4pairI8ESortKeybEEEENS_16reverse_iteratorIPS4_EEEC1B7v160006ERS5_RS8_SB_, symObjAddr: 0x3EA28, symBinAddr: 0x100040D5C, symSize: 0x44 }
  - { offsetInCU: 0x1FB71, offset: 0x1FB71, size: 0x8, addend: 0x0, symName: __ZNSt3__116allocator_traitsINS_9allocatorINS_4pairI8ESortKeybEEEEE9constructB7v160006IS4_JS4_EvvEEvRS5_PT_DpOT0_, symObjAddr: 0x3EA6C, symBinAddr: 0x100040DA0, symSize: 0x30 }
  - { offsetInCU: 0x1FBC5, offset: 0x1FBC5, size: 0x8, addend: 0x0, symName: __ZNKSt3__116reverse_iteratorIPNS_4pairI8ESortKeybEEEdeB7v160006Ev, symObjAddr: 0x3EA9C, symBinAddr: 0x100040DD0, symSize: 0x74 }
  - { offsetInCU: 0x1FBF9, offset: 0x1FBF9, size: 0x8, addend: 0x0, symName: __ZNSt3__128__exception_guard_exceptionsINS_29_AllocatorDestroyRangeReverseINS_9allocatorINS_4pairI8ESortKeybEEEENS_16reverse_iteratorIPS5_EEEEE10__completeB7v160006Ev, symObjAddr: 0x3EB10, symBinAddr: 0x100040E44, symSize: 0x8C }
  - { offsetInCU: 0x1FC1F, offset: 0x1FC1F, size: 0x8, addend: 0x0, symName: __ZNSt3__128__exception_guard_exceptionsINS_29_AllocatorDestroyRangeReverseINS_9allocatorINS_4pairI8ESortKeybEEEENS_16reverse_iteratorIPS5_EEEEED1B7v160006Ev, symObjAddr: 0x3EB9C, symBinAddr: 0x100040ED0, symSize: 0x2C }
  - { offsetInCU: 0x1FC49, offset: 0x1FC49, size: 0x8, addend: 0x0, symName: __ZNSt3__128__exception_guard_exceptionsINS_29_AllocatorDestroyRangeReverseINS_9allocatorINS_4pairI8ESortKeybEEEENS_16reverse_iteratorIPS5_EEEEEC1B7v160006ESA_, symObjAddr: 0x3EBC8, symBinAddr: 0x100040EFC, symSize: 0x34 }
  - { offsetInCU: 0x1FC82, offset: 0x1FC82, size: 0x8, addend: 0x0, symName: __ZNSt3__128__exception_guard_exceptionsINS_29_AllocatorDestroyRangeReverseINS_9allocatorINS_4pairI8ESortKeybEEEENS_16reverse_iteratorIPS5_EEEEEC2B7v160006ESA_, symObjAddr: 0x3EBFC, symBinAddr: 0x100040F30, symSize: 0xA4 }
  - { offsetInCU: 0x1FCBB, offset: 0x1FCBB, size: 0x8, addend: 0x0, symName: __ZNSt3__129_AllocatorDestroyRangeReverseINS_9allocatorINS_4pairI8ESortKeybEEEENS_16reverse_iteratorIPS4_EEEC2B7v160006ERS5_RS8_SB_, symObjAddr: 0x3ECA0, symBinAddr: 0x100040FD4, symSize: 0x104 }
  - { offsetInCU: 0x1FD12, offset: 0x1FD12, size: 0x8, addend: 0x0, symName: __ZNSt3__128__exception_guard_exceptionsINS_29_AllocatorDestroyRangeReverseINS_9allocatorINS_4pairI8ESortKeybEEEENS_16reverse_iteratorIPS5_EEEEED2B7v160006Ev, symObjAddr: 0x3EDE4, symBinAddr: 0x100041118, symSize: 0xBC }
  - { offsetInCU: 0x1FD3C, offset: 0x1FD3C, size: 0x8, addend: 0x0, symName: __ZNKSt3__129_AllocatorDestroyRangeReverseINS_9allocatorINS_4pairI8ESortKeybEEEENS_16reverse_iteratorIPS4_EEEclB7v160006Ev, symObjAddr: 0x3EEA0, symBinAddr: 0x1000411D4, symSize: 0x3A8 }
  - { offsetInCU: 0x1FD63, offset: 0x1FD63, size: 0x8, addend: 0x0, symName: __ZNSt3__116reverse_iteratorINS0_IPNS_4pairI8ESortKeybEEEEEC1B7v160006ES5_, symObjAddr: 0x3F2B8, symBinAddr: 0x1000415EC, symSize: 0x248 }
  - { offsetInCU: 0x1FDA0, offset: 0x1FDA0, size: 0x8, addend: 0x0, symName: __ZNSt3__116reverse_iteratorINS0_IPNS_4pairI8ESortKeybEEEEEppB7v160006Ev, symObjAddr: 0x3F7F0, symBinAddr: 0x100041B24, symSize: 0x30 }
  - { offsetInCU: 0x1FDC6, offset: 0x1FDC6, size: 0x8, addend: 0x0, symName: __ZNKSt3__116reverse_iteratorINS0_IPNS_4pairI8ESortKeybEEEEE4baseB7v160006Ev, symObjAddr: 0x3F820, symBinAddr: 0x100041B54, symSize: 0x20C }
  - { offsetInCU: 0x1FDF2, offset: 0x1FDF2, size: 0x8, addend: 0x0, symName: __ZNSt3__119__to_address_helperINS_16reverse_iteratorINS1_IPNS_4pairI8ESortKeybEEEEEEvE6__callB7v160006ERKS7_, symObjAddr: 0x3FA2C, symBinAddr: 0x100041D60, symSize: 0x44 }
  - { offsetInCU: 0x1FE15, offset: 0x1FE15, size: 0x8, addend: 0x0, symName: __ZNKSt3__116reverse_iteratorINS0_IPNS_4pairI8ESortKeybEEEEEptB7v160006Ev, symObjAddr: 0x3FA70, symBinAddr: 0x100041DA4, symSize: 0x2A0 }
  - { offsetInCU: 0x1FE3C, offset: 0x1FE3C, size: 0x8, addend: 0x0, symName: __ZNSt3__116reverse_iteratorIPNS_4pairI8ESortKeybEEEpLB7v160006El, symObjAddr: 0x4003C, symBinAddr: 0x100042370, symSize: 0x84 }
  - { offsetInCU: 0x1FE70, offset: 0x1FE70, size: 0x8, addend: 0x0, symName: __ZNSt3__116reverse_iteratorIPNS_4pairI8ESortKeybEEEmmB7v160006Ev, symObjAddr: 0x400C0, symBinAddr: 0x1000423F4, symSize: 0x6C }
  - { offsetInCU: 0x1FE96, offset: 0x1FE96, size: 0x8, addend: 0x0, symName: __ZNSt3__116reverse_iteratorINS0_IPNS_4pairI8ESortKeybEEEEEC2B7v160006ES5_, symObjAddr: 0x4012C, symBinAddr: 0x100042460, symSize: 0x22C }
  - { offsetInCU: 0x1FED3, offset: 0x1FED3, size: 0x8, addend: 0x0, symName: __ZNSt3__114__split_bufferINS_4pairI8ESortKeybEERNS_9allocatorIS3_EEED2Ev, symObjAddr: 0x40358, symBinAddr: 0x10004268C, symSize: 0x104 }
  - { offsetInCU: 0x1FEFF, offset: 0x1FEFF, size: 0x8, addend: 0x0, symName: __ZNSt3__114__split_bufferINS_4pairI8ESortKeybEERNS_9allocatorIS3_EEE5clearB7v160006Ev, symObjAddr: 0x4045C, symBinAddr: 0x100042790, symSize: 0x68 }
  - { offsetInCU: 0x1FF25, offset: 0x1FF25, size: 0x8, addend: 0x0, symName: __ZNKSt3__114__split_bufferINS_4pairI8ESortKeybEERNS_9allocatorIS3_EEE8capacityB7v160006Ev, symObjAddr: 0x404C4, symBinAddr: 0x1000427F8, symSize: 0xBC }
  - { offsetInCU: 0x1FF4B, offset: 0x1FF4B, size: 0x8, addend: 0x0, symName: __ZNSt3__114__split_bufferINS_4pairI8ESortKeybEERNS_9allocatorIS3_EEE17__destruct_at_endB7v160006EPS3_, symObjAddr: 0x40580, symBinAddr: 0x1000428B4, symSize: 0x2C }
  - { offsetInCU: 0x1FF7F, offset: 0x1FF7F, size: 0x8, addend: 0x0, symName: __ZNSt3__114__split_bufferINS_4pairI8ESortKeybEERNS_9allocatorIS3_EEE17__destruct_at_endB7v160006EPS3_NS_17integral_constantIbLb0EEE, symObjAddr: 0x405AC, symBinAddr: 0x1000428E0, symSize: 0x10C }
  - { offsetInCU: 0x1FFBF, offset: 0x1FFBF, size: 0x8, addend: 0x0, symName: __ZNKSt3__114__split_bufferINS_4pairI8ESortKeybEERNS_9allocatorIS3_EEE9__end_capB7v160006Ev, symObjAddr: 0x406B8, symBinAddr: 0x1000429EC, symSize: 0x28 }
  - { offsetInCU: 0x1FFE5, offset: 0x1FFE5, size: 0x8, addend: 0x0, symName: __ZNKSt3__117__compressed_pairIPNS_4pairI8ESortKeybEERNS_9allocatorIS3_EEE5firstB7v160006Ev, symObjAddr: 0x406E0, symBinAddr: 0x100042A14, symSize: 0x24 }
  - { offsetInCU: 0x2000B, offset: 0x2000B, size: 0x8, addend: 0x0, symName: __ZNSt3__18optionalINS_12basic_stringIcNS_11char_traitsIcEENS_9allocatorIcEEEEE7emplaceB7v160006IJRKS6_EvEERS6_DpOT_, symObjAddr: 0x40704, symBinAddr: 0x100042A38, symSize: 0x40 }
  - { offsetInCU: 0x2004C, offset: 0x2004C, size: 0x8, addend: 0x0, symName: __ZNSt3__124__optional_destruct_baseINS_12basic_stringIcNS_11char_traitsIcEENS_9allocatorIcEEEELb0EE5resetB7v160006Ev, symObjAddr: 0x40744, symBinAddr: 0x100042A78, symSize: 0x100 }
  - { offsetInCU: 0x20072, offset: 0x20072, size: 0x8, addend: 0x0, symName: __ZNSt3__123__optional_storage_baseINS_12basic_stringIcNS_11char_traitsIcEENS_9allocatorIcEEEELb0EE11__constructB7v160006IJRKS6_EEEvDpOT_, symObjAddr: 0x40844, symBinAddr: 0x100042B78, symSize: 0xA4 }
  - { offsetInCU: 0x200B2, offset: 0x200B2, size: 0x8, addend: 0x0, symName: __ZNRSt3__123__optional_storage_baseINS_12basic_stringIcNS_11char_traitsIcEENS_9allocatorIcEEEELb0EE5__getB7v160006Ev, symObjAddr: 0x408E8, symBinAddr: 0x100042C1C, symSize: 0x14 }
  - { offsetInCU: 0x200D8, offset: 0x200D8, size: 0x8, addend: 0x0, symName: __ZN10CStudyDept17normalizeAndSplitERKNSt3__112basic_stringIcNS0_11char_traitsIcEENS0_9allocatorIcEEEE, symObjAddr: 0x408FC, symBinAddr: 0x100042C30, symSize: 0x598 }
  - { offsetInCU: 0x20176, offset: 0x20176, size: 0x8, addend: 0x0, symName: __ZN10CStudyDept12matchesQueryERKNSt3__112basic_stringIcNS0_11char_traitsIcEENS0_9allocatorIcEEEERKNS0_6vectorIS6_NS4_IS6_EEEE, symObjAddr: 0x40E94, symBinAddr: 0x1000431C8, symSize: 0x82C }
  - { offsetInCU: 0x20227, offset: 0x20227, size: 0x8, addend: 0x0, symName: __ZNSt3__13setINS_12basic_stringIcNS_11char_traitsIcEENS_9allocatorIcEEEENS_4lessIS6_EENS4_IS6_EEE6insertB7v160006ERKS6_, symObjAddr: 0x416C0, symBinAddr: 0x1000439F4, symSize: 0x2A8 }
  - { offsetInCU: 0x2025E, offset: 0x2025E, size: 0x8, addend: 0x0, symName: __ZNSt3__13setINS_12basic_stringIcNS_11char_traitsIcEENS_9allocatorIcEEEENS_4lessIS6_EENS4_IS6_EEEC1B7v160006INS_11__wrap_iterIPS6_EEEET_SF_RKS8_, symObjAddr: 0x41968, symBinAddr: 0x100043C9C, symSize: 0x314 }
  - { offsetInCU: 0x202C8, offset: 0x202C8, size: 0x8, addend: 0x0, symName: __ZNSt3__13setINS_12basic_stringIcNS_11char_traitsIcEENS_9allocatorIcEEEENS_4lessIS6_EENS4_IS6_EEE4findB7v160006ERKS6_, symObjAddr: 0x41D34, symBinAddr: 0x100044068, symSize: 0x2BC }
  - { offsetInCU: 0x202FF, offset: 0x202FF, size: 0x8, addend: 0x0, symName: __ZNSt3__13setINS_12basic_stringIcNS_11char_traitsIcEENS_9allocatorIcEEEENS_4lessIS6_EENS4_IS6_EEE3endB7v160006Ev, symObjAddr: 0x41FF0, symBinAddr: 0x100044324, symSize: 0x2B4 }
  - { offsetInCU: 0x20326, offset: 0x20326, size: 0x8, addend: 0x0, symName: __ZNSt3__13setINS_12basic_stringIcNS_11char_traitsIcEENS_9allocatorIcEEEENS_4lessIS6_EENS4_IS6_EEEC2B7v160006INS_11__wrap_iterIPS6_EEEET_SF_RKS8_, symObjAddr: 0x422A4, symBinAddr: 0x1000445D8, symSize: 0x430 }
  - { offsetInCU: 0x20390, offset: 0x20390, size: 0x8, addend: 0x0, symName: __ZNSt3__16__treeINS_12basic_stringIcNS_11char_traitsIcEENS_9allocatorIcEEEENS_4lessIS6_EENS4_IS6_EEEC1ERKS8_, symObjAddr: 0x426D4, symBinAddr: 0x100044A08, symSize: 0x34 }
  - { offsetInCU: 0x203CB, offset: 0x203CB, size: 0x8, addend: 0x0, symName: __ZNSt3__13setINS_12basic_stringIcNS_11char_traitsIcEENS_9allocatorIcEEEENS_4lessIS6_EENS4_IS6_EEE6insertB7v160006INS_11__wrap_iterIPS6_EEEEvT_SF_, symObjAddr: 0x42708, symBinAddr: 0x100044A3C, symSize: 0x408 }
  - { offsetInCU: 0x20442, offset: 0x20442, size: 0x8, addend: 0x0, symName: __ZNSt3__16__treeINS_12basic_stringIcNS_11char_traitsIcEENS_9allocatorIcEEEENS_4lessIS6_EENS4_IS6_EEED1Ev, symObjAddr: 0x42B10, symBinAddr: 0x100044E44, symSize: 0x2C }
  - { offsetInCU: 0x2046E, offset: 0x2046E, size: 0x8, addend: 0x0, symName: __ZNSt3__16__treeINS_12basic_stringIcNS_11char_traitsIcEENS_9allocatorIcEEEENS_4lessIS6_EENS4_IS6_EEEC2ERKS8_, symObjAddr: 0x42B3C, symBinAddr: 0x100044E70, symSize: 0x2CC }
  - { offsetInCU: 0x204AB, offset: 0x204AB, size: 0x8, addend: 0x0, symName: __ZNSt3__117__compressed_pairINS_15__tree_end_nodeIPNS_16__tree_node_baseIPvEEEENS_9allocatorINS_11__tree_nodeINS_12basic_stringIcNS_11char_traitsIcEENS7_IcEEEES3_EEEEEC1B7v160006ILb1EvEEv, symObjAddr: 0x42E08, symBinAddr: 0x10004513C, symSize: 0x2C }
  - { offsetInCU: 0x204E0, offset: 0x204E0, size: 0x8, addend: 0x0, symName: __ZNSt3__117__compressed_pairImNS_4lessINS_12basic_stringIcNS_11char_traitsIcEENS_9allocatorIcEEEEEEEC1B7v160006IiRKS8_EEOT_OT0_, symObjAddr: 0x42E34, symBinAddr: 0x100045168, symSize: 0x3C }
  - { offsetInCU: 0x20538, offset: 0x20538, size: 0x8, addend: 0x0, symName: __ZNSt3__16__treeINS_12basic_stringIcNS_11char_traitsIcEENS_9allocatorIcEEEENS_4lessIS6_EENS4_IS6_EEE10__end_nodeB7v160006Ev, symObjAddr: 0x42E70, symBinAddr: 0x1000451A4, symSize: 0x2C }
  - { offsetInCU: 0x2055E, offset: 0x2055E, size: 0x8, addend: 0x0, symName: __ZNSt3__16__treeINS_12basic_stringIcNS_11char_traitsIcEENS_9allocatorIcEEEENS_4lessIS6_EENS4_IS6_EEE12__begin_nodeB7v160006Ev, symObjAddr: 0x42E9C, symBinAddr: 0x1000451D0, symSize: 0x14 }
  - { offsetInCU: 0x20584, offset: 0x20584, size: 0x8, addend: 0x0, symName: __ZNSt3__117__compressed_pairINS_15__tree_end_nodeIPNS_16__tree_node_baseIPvEEEENS_9allocatorINS_11__tree_nodeINS_12basic_stringIcNS_11char_traitsIcEENS7_IcEEEES3_EEEEEC2B7v160006ILb1EvEEv, symObjAddr: 0x42EB0, symBinAddr: 0x1000451E4, symSize: 0x34 }
  - { offsetInCU: 0x205B9, offset: 0x205B9, size: 0x8, addend: 0x0, symName: __ZNSt3__122__compressed_pair_elemINS_15__tree_end_nodeIPNS_16__tree_node_baseIPvEEEELi0ELb0EEC2B7v160006ENS_16__value_init_tagE, symObjAddr: 0x42EE4, symBinAddr: 0x100045218, symSize: 0x2C }
  - { offsetInCU: 0x205ED, offset: 0x205ED, size: 0x8, addend: 0x0, symName: __ZNSt3__122__compressed_pair_elemINS_9allocatorINS_11__tree_nodeINS_12basic_stringIcNS_11char_traitsIcEENS1_IcEEEEPvEEEELi1ELb1EEC2B7v160006ENS_16__value_init_tagE, symObjAddr: 0x42F10, symBinAddr: 0x100045244, symSize: 0x2C }
  - { offsetInCU: 0x20621, offset: 0x20621, size: 0x8, addend: 0x0, symName: __ZNSt3__115__tree_end_nodeIPNS_16__tree_node_baseIPvEEEC1B7v160006Ev, symObjAddr: 0x42F3C, symBinAddr: 0x100045270, symSize: 0x2C }
  - { offsetInCU: 0x2064B, offset: 0x2064B, size: 0x8, addend: 0x0, symName: __ZNSt3__115__tree_end_nodeIPNS_16__tree_node_baseIPvEEEC2B7v160006Ev, symObjAddr: 0x42F68, symBinAddr: 0x10004529C, symSize: 0x60 }
  - { offsetInCU: 0x20675, offset: 0x20675, size: 0x8, addend: 0x0, symName: __ZNSt3__19allocatorINS_11__tree_nodeINS_12basic_stringIcNS_11char_traitsIcEENS0_IcEEEEPvEEEC2B7v160006Ev, symObjAddr: 0x42FC8, symBinAddr: 0x1000452FC, symSize: 0x2C }
  - { offsetInCU: 0x2069F, offset: 0x2069F, size: 0x8, addend: 0x0, symName: __ZNSt3__116__non_trivial_ifILb1ENS_9allocatorINS_11__tree_nodeINS_12basic_stringIcNS_11char_traitsIcEENS1_IcEEEEPvEEEEEC2B7v160006Ev, symObjAddr: 0x42FF4, symBinAddr: 0x100045328, symSize: 0x14 }
  - { offsetInCU: 0x206C9, offset: 0x206C9, size: 0x8, addend: 0x0, symName: __ZNSt3__117__compressed_pairImNS_4lessINS_12basic_stringIcNS_11char_traitsIcEENS_9allocatorIcEEEEEEEC2B7v160006IiRKS8_EEOT_OT0_, symObjAddr: 0x43008, symBinAddr: 0x10004533C, symSize: 0x44 }
  - { offsetInCU: 0x20721, offset: 0x20721, size: 0x8, addend: 0x0, symName: __ZNSt3__122__compressed_pair_elemINS_4lessINS_12basic_stringIcNS_11char_traitsIcEENS_9allocatorIcEEEEEELi1ELb1EEC2B7v160006IRKS8_vEEOT_, symObjAddr: 0x4304C, symBinAddr: 0x100045380, symSize: 0x18 }
  - { offsetInCU: 0x20763, offset: 0x20763, size: 0x8, addend: 0x0, symName: __ZNSt3__114pointer_traitsIPNS_15__tree_end_nodeIPNS_16__tree_node_baseIPvEEEEE10pointer_toB7v160006ERS6_, symObjAddr: 0x43064, symBinAddr: 0x100045398, symSize: 0x14 }
  - { offsetInCU: 0x20786, offset: 0x20786, size: 0x8, addend: 0x0, symName: __ZNSt3__117__compressed_pairINS_15__tree_end_nodeIPNS_16__tree_node_baseIPvEEEENS_9allocatorINS_11__tree_nodeINS_12basic_stringIcNS_11char_traitsIcEENS7_IcEEEES3_EEEEE5firstB7v160006Ev, symObjAddr: 0x43078, symBinAddr: 0x1000453AC, symSize: 0x24 }
  - { offsetInCU: 0x207AC, offset: 0x207AC, size: 0x8, addend: 0x0, symName: __ZNSt3__122__compressed_pair_elemINS_15__tree_end_nodeIPNS_16__tree_node_baseIPvEEEELi0ELb0EE5__getB7v160006Ev, symObjAddr: 0x4309C, symBinAddr: 0x1000453D0, symSize: 0x14 }
  - { offsetInCU: 0x207D2, offset: 0x207D2, size: 0x8, addend: 0x0, symName: __ZNKSt3__13setINS_12basic_stringIcNS_11char_traitsIcEENS_9allocatorIcEEEENS_4lessIS6_EENS4_IS6_EEE4cendB7v160006Ev, symObjAddr: 0x430B0, symBinAddr: 0x1000453E4, symSize: 0x234 }
  - { offsetInCU: 0x207F9, offset: 0x207F9, size: 0x8, addend: 0x0, symName: __ZNSt3__16__treeINS_12basic_stringIcNS_11char_traitsIcEENS_9allocatorIcEEEENS_4lessIS6_EENS4_IS6_EEE15__insert_uniqueB7v160006ENS_21__tree_const_iteratorIS6_PNS_11__tree_nodeIS6_PvEElEERKS6_, symObjAddr: 0x43318, symBinAddr: 0x10004564C, symSize: 0x3A4 }
  - { offsetInCU: 0x20843, offset: 0x20843, size: 0x8, addend: 0x0, symName: __ZNKSt3__111__wrap_iterIPNS_12basic_stringIcNS_11char_traitsIcEENS_9allocatorIcEEEEEdeB7v160006Ev, symObjAddr: 0x436BC, symBinAddr: 0x1000459F0, symSize: 0x60 }
  - { offsetInCU: 0x20869, offset: 0x20869, size: 0x8, addend: 0x0, symName: __ZNSt3__111__wrap_iterIPNS_12basic_stringIcNS_11char_traitsIcEENS_9allocatorIcEEEEEppB7v160006Ev, symObjAddr: 0x4371C, symBinAddr: 0x100045A50, symSize: 0x68 }
  - { offsetInCU: 0x2088F, offset: 0x2088F, size: 0x8, addend: 0x0, symName: __ZNKSt3__13setINS_12basic_stringIcNS_11char_traitsIcEENS_9allocatorIcEEEENS_4lessIS6_EENS4_IS6_EEE3endB7v160006Ev, symObjAddr: 0x43784, symBinAddr: 0x100045AB8, symSize: 0x234 }
  - { offsetInCU: 0x208B6, offset: 0x208B6, size: 0x8, addend: 0x0, symName: __ZNKSt3__16__treeINS_12basic_stringIcNS_11char_traitsIcEENS_9allocatorIcEEEENS_4lessIS6_EENS4_IS6_EEE3endB7v160006Ev, symObjAddr: 0x439B8, symBinAddr: 0x100045CEC, symSize: 0x204 }
  - { offsetInCU: 0x208DD, offset: 0x208DD, size: 0x8, addend: 0x0, symName: __ZNKSt3__16__treeINS_12basic_stringIcNS_11char_traitsIcEENS_9allocatorIcEEEENS_4lessIS6_EENS4_IS6_EEE10__end_nodeB7v160006Ev, symObjAddr: 0x43BBC, symBinAddr: 0x100045EF0, symSize: 0x2C }
  - { offsetInCU: 0x20903, offset: 0x20903, size: 0x8, addend: 0x0, symName: __ZNSt3__121__tree_const_iteratorINS_12basic_stringIcNS_11char_traitsIcEENS_9allocatorIcEEEEPNS_11__tree_nodeIS6_PvEElEC1B7v160006EPNS_15__tree_end_nodeIPNS_16__tree_node_baseIS8_EEEE, symObjAddr: 0x43BE8, symBinAddr: 0x100045F1C, symSize: 0x34 }
  - { offsetInCU: 0x2093C, offset: 0x2093C, size: 0x8, addend: 0x0, symName: __ZNKSt3__117__compressed_pairINS_15__tree_end_nodeIPNS_16__tree_node_baseIPvEEEENS_9allocatorINS_11__tree_nodeINS_12basic_stringIcNS_11char_traitsIcEENS7_IcEEEES3_EEEEE5firstB7v160006Ev, symObjAddr: 0x43C1C, symBinAddr: 0x100045F50, symSize: 0x24 }
  - { offsetInCU: 0x20962, offset: 0x20962, size: 0x8, addend: 0x0, symName: __ZNKSt3__122__compressed_pair_elemINS_15__tree_end_nodeIPNS_16__tree_node_baseIPvEEEELi0ELb0EE5__getB7v160006Ev, symObjAddr: 0x43C40, symBinAddr: 0x100045F74, symSize: 0x14 }
  - { offsetInCU: 0x20988, offset: 0x20988, size: 0x8, addend: 0x0, symName: __ZNSt3__121__tree_const_iteratorINS_12basic_stringIcNS_11char_traitsIcEENS_9allocatorIcEEEEPNS_11__tree_nodeIS6_PvEElEC2B7v160006EPNS_15__tree_end_nodeIPNS_16__tree_node_baseIS8_EEEE, symObjAddr: 0x43C54, symBinAddr: 0x100045F88, symSize: 0x70 }
  - { offsetInCU: 0x209C1, offset: 0x209C1, size: 0x8, addend: 0x0, symName: __ZNSt3__16__treeINS_12basic_stringIcNS_11char_traitsIcEENS_9allocatorIcEEEENS_4lessIS6_EENS4_IS6_EEE30__emplace_hint_unique_key_argsIS6_JRKS6_EEENS_4pairINS_15__tree_iteratorIS6_PNS_11__tree_nodeIS6_PvEElEEbEENS_21__tree_const_iteratorIS6_SJ_lEERKT_DpOT0_, symObjAddr: 0x43D0C, symBinAddr: 0x100046040, symSize: 0x604 }
  - { offsetInCU: 0x20AA6, offset: 0x20AA6, size: 0x8, addend: 0x0, symName: __ZNSt3__122__tree_key_value_typesINS_12basic_stringIcNS_11char_traitsIcEENS_9allocatorIcEEEEE9__get_keyB7v160006ERKS6_, symObjAddr: 0x44310, symBinAddr: 0x100046644, symSize: 0x14 }
  - { offsetInCU: 0x20ACA, offset: 0x20ACA, size: 0x8, addend: 0x0, symName: __ZNSt3__16__treeINS_12basic_stringIcNS_11char_traitsIcEENS_9allocatorIcEEEENS_4lessIS6_EENS4_IS6_EEE12__find_equalIS6_EERPNS_16__tree_node_baseIPvEENS_21__tree_const_iteratorIS6_PNS_11__tree_nodeIS6_SD_EElEERPNS_15__tree_end_nodeISF_EESG_RKT_, symObjAddr: 0x44324, symBinAddr: 0x100046658, symSize: 0xC4C }
  - { offsetInCU: 0x20B83, offset: 0x20B83, size: 0x8, addend: 0x0, symName: __ZNSt3__16__treeINS_12basic_stringIcNS_11char_traitsIcEENS_9allocatorIcEEEENS_4lessIS6_EENS4_IS6_EEE16__construct_nodeIJRKS6_EEENS_10unique_ptrINS_11__tree_nodeIS6_PvEENS_22__tree_node_destructorINS4_ISH_EEEEEEDpOT_, symObjAddr: 0x44F70, symBinAddr: 0x1000472A4, symSize: 0x384 }
  - { offsetInCU: 0x20BE8, offset: 0x20BE8, size: 0x8, addend: 0x0, symName: __ZNSt3__16__treeINS_12basic_stringIcNS_11char_traitsIcEENS_9allocatorIcEEEENS_4lessIS6_EENS4_IS6_EEE16__insert_node_atEPNS_15__tree_end_nodeIPNS_16__tree_node_baseIPvEEEERSF_SF_, symObjAddr: 0x452F4, symBinAddr: 0x100047628, symSize: 0x370 }
  - { offsetInCU: 0x20C3D, offset: 0x20C3D, size: 0x8, addend: 0x0, symName: __ZNKSt3__110unique_ptrINS_11__tree_nodeINS_12basic_stringIcNS_11char_traitsIcEENS_9allocatorIcEEEEPvEENS_22__tree_node_destructorINS5_IS9_EEEEE3getB7v160006Ev, symObjAddr: 0x45664, symBinAddr: 0x100047998, symSize: 0x6C }
  - { offsetInCU: 0x20C63, offset: 0x20C63, size: 0x8, addend: 0x0, symName: __ZNSt3__110unique_ptrINS_11__tree_nodeINS_12basic_stringIcNS_11char_traitsIcEENS_9allocatorIcEEEEPvEENS_22__tree_node_destructorINS5_IS9_EEEEE7releaseB7v160006Ev, symObjAddr: 0x456D0, symBinAddr: 0x100047A04, symSize: 0xB8 }
  - { offsetInCU: 0x20C98, offset: 0x20C98, size: 0x8, addend: 0x0, symName: __ZNSt3__110unique_ptrINS_11__tree_nodeINS_12basic_stringIcNS_11char_traitsIcEENS_9allocatorIcEEEEPvEENS_22__tree_node_destructorINS5_IS9_EEEEED1B7v160006Ev, symObjAddr: 0x45788, symBinAddr: 0x100047ABC, symSize: 0x2C }
  - { offsetInCU: 0x20CC2, offset: 0x20CC2, size: 0x8, addend: 0x0, symName: __ZNSt3__115__tree_iteratorINS_12basic_stringIcNS_11char_traitsIcEENS_9allocatorIcEEEEPNS_11__tree_nodeIS6_PvEElEC1B7v160006ESA_, symObjAddr: 0x457B4, symBinAddr: 0x100047AE8, symSize: 0x34 }
  - { offsetInCU: 0x20D01, offset: 0x20D01, size: 0x8, addend: 0x0, symName: __ZNSt3__14pairINS_15__tree_iteratorINS_12basic_stringIcNS_11char_traitsIcEENS_9allocatorIcEEEEPNS_11__tree_nodeIS7_PvEElEEbEC1B7v160006ISC_RbLS9_0EEEOT_OT0_, symObjAddr: 0x457E8, symBinAddr: 0x100047B1C, symSize: 0x3C }
  - { offsetInCU: 0x20D5F, offset: 0x20D5F, size: 0x8, addend: 0x0, symName: __ZNSt3__16__treeINS_12basic_stringIcNS_11char_traitsIcEENS_9allocatorIcEEEENS_4lessIS6_EENS4_IS6_EEE3endB7v160006Ev, symObjAddr: 0x45824, symBinAddr: 0x100047B58, symSize: 0x204 }
  - { offsetInCU: 0x20D86, offset: 0x20D86, size: 0x8, addend: 0x0, symName: __ZNSt3__121__tree_const_iteratorINS_12basic_stringIcNS_11char_traitsIcEENS_9allocatorIcEEEEPNS_11__tree_nodeIS6_PvEElEC1B7v160006ENS_15__tree_iteratorIS6_SA_lEE, symObjAddr: 0x45A28, symBinAddr: 0x100047D5C, symSize: 0x238 }
  - { offsetInCU: 0x20DC4, offset: 0x20DC4, size: 0x8, addend: 0x0, symName: __ZNSt3__16__treeINS_12basic_stringIcNS_11char_traitsIcEENS_9allocatorIcEEEENS_4lessIS6_EENS4_IS6_EEE10value_compB7v160006Ev, symObjAddr: 0x45C60, symBinAddr: 0x100047F94, symSize: 0x28 }
  - { offsetInCU: 0x20DEA, offset: 0x20DEA, size: 0x8, addend: 0x0, symName: __ZNKSt3__14lessINS_12basic_stringIcNS_11char_traitsIcEENS_9allocatorIcEEEEEclB7v160006ERKS6_S9_, symObjAddr: 0x45C88, symBinAddr: 0x100047FBC, symSize: 0x2AC }
  - { offsetInCU: 0x20E31, offset: 0x20E31, size: 0x8, addend: 0x0, symName: __ZNKSt3__121__tree_const_iteratorINS_12basic_stringIcNS_11char_traitsIcEENS_9allocatorIcEEEEPNS_11__tree_nodeIS6_PvEElEdeB7v160006Ev, symObjAddr: 0x45F34, symBinAddr: 0x100048268, symSize: 0x28 }
  - { offsetInCU: 0x20E57, offset: 0x20E57, size: 0x8, addend: 0x0, symName: __ZNSt3__16__treeINS_12basic_stringIcNS_11char_traitsIcEENS_9allocatorIcEEEENS_4lessIS6_EENS4_IS6_EEE5beginB7v160006Ev, symObjAddr: 0x45F5C, symBinAddr: 0x100048290, symSize: 0x238 }
  - { offsetInCU: 0x20E7E, offset: 0x20E7E, size: 0x8, addend: 0x0, symName: __ZNSt3__121__tree_const_iteratorINS_12basic_stringIcNS_11char_traitsIcEENS_9allocatorIcEEEEPNS_11__tree_nodeIS6_PvEElEmmB7v160006Ev, symObjAddr: 0x46194, symBinAddr: 0x1000484C8, symSize: 0xA8 }
  - { offsetInCU: 0x20EA4, offset: 0x20EA4, size: 0x8, addend: 0x0, symName: __ZNSt3__16__treeINS_12basic_stringIcNS_11char_traitsIcEENS_9allocatorIcEEEENS_4lessIS6_EENS4_IS6_EEE12__find_equalIS6_EERPNS_16__tree_node_baseIPvEERPNS_15__tree_end_nodeISF_EERKT_, symObjAddr: 0x4623C, symBinAddr: 0x100048570, symSize: 0x3F0 }
  - { offsetInCU: 0x20F11, offset: 0x20F11, size: 0x8, addend: 0x0, symName: __ZNKSt3__121__tree_const_iteratorINS_12basic_stringIcNS_11char_traitsIcEENS_9allocatorIcEEEEPNS_11__tree_nodeIS6_PvEElE8__get_npB7v160006Ev, symObjAddr: 0x468D0, symBinAddr: 0x100048C04, symSize: 0x60 }
  - { offsetInCU: 0x20F37, offset: 0x20F37, size: 0x8, addend: 0x0, symName: __ZNSt3__115__tree_iteratorINS_12basic_stringIcNS_11char_traitsIcEENS_9allocatorIcEEEEPNS_11__tree_nodeIS6_PvEElEC1B7v160006EPNS_15__tree_end_nodeIPNS_16__tree_node_baseIS8_EEEE, symObjAddr: 0x46930, symBinAddr: 0x100048C64, symSize: 0x34 }
  - { offsetInCU: 0x20F70, offset: 0x20F70, size: 0x8, addend: 0x0, symName: __ZNSt3__115__tree_iteratorINS_12basic_stringIcNS_11char_traitsIcEENS_9allocatorIcEEEEPNS_11__tree_nodeIS6_PvEElEC2B7v160006EPNS_15__tree_end_nodeIPNS_16__tree_node_baseIS8_EEEE, symObjAddr: 0x46964, symBinAddr: 0x100048C98, symSize: 0x70 }
  - { offsetInCU: 0x20FA9, offset: 0x20FA9, size: 0x8, addend: 0x0, symName: __ZNSt3__121__tree_const_iteratorINS_12basic_stringIcNS_11char_traitsIcEENS_9allocatorIcEEEEPNS_11__tree_nodeIS6_PvEElEC2B7v160006ENS_15__tree_iteratorIS6_SA_lEE, symObjAddr: 0x469D4, symBinAddr: 0x100048D08, symSize: 0x270 }
  - { offsetInCU: 0x20FE7, offset: 0x20FE7, size: 0x8, addend: 0x0, symName: __ZNSt3__117__compressed_pairImNS_4lessINS_12basic_stringIcNS_11char_traitsIcEENS_9allocatorIcEEEEEEE6secondB7v160006Ev, symObjAddr: 0x46C44, symBinAddr: 0x100048F78, symSize: 0x24 }
  - { offsetInCU: 0x2100D, offset: 0x2100D, size: 0x8, addend: 0x0, symName: __ZNSt3__122__compressed_pair_elemINS_4lessINS_12basic_stringIcNS_11char_traitsIcEENS_9allocatorIcEEEEEELi1ELb1EE5__getB7v160006Ev, symObjAddr: 0x46C68, symBinAddr: 0x100048F9C, symSize: 0x14 }
  - { offsetInCU: 0x21033, offset: 0x21033, size: 0x8, addend: 0x0, symName: __ZNKSt3__116__tree_node_baseIPvE15__parent_unsafeB7v160006Ev, symObjAddr: 0x46F24, symBinAddr: 0x100049258, symSize: 0x64 }
  - { offsetInCU: 0x21059, offset: 0x21059, size: 0x8, addend: 0x0, symName: __ZNKSt3__16__treeINS_12basic_stringIcNS_11char_traitsIcEENS_9allocatorIcEEEENS_4lessIS6_EENS4_IS6_EEE6__rootB7v160006Ev, symObjAddr: 0x46F88, symBinAddr: 0x1000492BC, symSize: 0x6C }
  - { offsetInCU: 0x2107F, offset: 0x2107F, size: 0x8, addend: 0x0, symName: __ZNKSt3__16__treeINS_12basic_stringIcNS_11char_traitsIcEENS_9allocatorIcEEEENS_4lessIS6_EENS4_IS6_EEE10__root_ptrEv, symObjAddr: 0x46FF4, symBinAddr: 0x100049328, symSize: 0x24 }
  - { offsetInCU: 0x210A5, offset: 0x210A5, size: 0x8, addend: 0x0, symName: __ZNSt3__121__tree_const_iteratorINS_12basic_stringIcNS_11char_traitsIcEENS_9allocatorIcEEEEPNS_11__tree_nodeIS6_PvEElEppB7v160006Ev, symObjAddr: 0x4710C, symBinAddr: 0x100049440, symSize: 0xA8 }
  - { offsetInCU: 0x210CB, offset: 0x210CB, size: 0x8, addend: 0x0, symName: __ZNSt3__16__treeINS_12basic_stringIcNS_11char_traitsIcEENS_9allocatorIcEEEENS_4lessIS6_EENS4_IS6_EEE12__node_allocB7v160006Ev, symObjAddr: 0x473AC, symBinAddr: 0x1000496E0, symSize: 0x28 }
  - { offsetInCU: 0x210F1, offset: 0x210F1, size: 0x8, addend: 0x0, symName: __ZNSt3__116allocator_traitsINS_9allocatorINS_11__tree_nodeINS_12basic_stringIcNS_11char_traitsIcEENS1_IcEEEEPvEEEEE8allocateB7v160006ERSA_m, symObjAddr: 0x473D4, symBinAddr: 0x100049708, symSize: 0x2C }
  - { offsetInCU: 0x21124, offset: 0x21124, size: 0x8, addend: 0x0, symName: __ZNSt3__122__tree_node_destructorINS_9allocatorINS_11__tree_nodeINS_12basic_stringIcNS_11char_traitsIcEENS1_IcEEEEPvEEEEEC1B7v160006ERSA_b, symObjAddr: 0x47400, symBinAddr: 0x100049734, symSize: 0x48 }
  - { offsetInCU: 0x21172, offset: 0x21172, size: 0x8, addend: 0x0, symName: __ZNSt3__110unique_ptrINS_11__tree_nodeINS_12basic_stringIcNS_11char_traitsIcEENS_9allocatorIcEEEEPvEENS_22__tree_node_destructorINS5_IS9_EEEEEC1B7v160006ILb1EvEEPS9_NS_16__dependent_typeINS_27__unique_ptr_deleter_sfinaeISC_EEXT_EE20__good_rval_ref_typeE, symObjAddr: 0x47448, symBinAddr: 0x10004977C, symSize: 0x3C }
  - { offsetInCU: 0x211C3, offset: 0x211C3, size: 0x8, addend: 0x0, symName: __ZNSt3__116allocator_traitsINS_9allocatorINS_11__tree_nodeINS_12basic_stringIcNS_11char_traitsIcEENS1_IcEEEEPvEEEEE9constructB7v160006IS7_JRKS7_EvvEEvRSA_PT_DpOT0_, symObjAddr: 0x47484, symBinAddr: 0x1000497B8, symSize: 0x30 }
  - { offsetInCU: 0x21217, offset: 0x21217, size: 0x8, addend: 0x0, symName: __ZNSt3__122__tree_key_value_typesINS_12basic_stringIcNS_11char_traitsIcEENS_9allocatorIcEEEEE9__get_ptrB7v160006ERS6_, symObjAddr: 0x474B4, symBinAddr: 0x1000497E8, symSize: 0x14 }
  - { offsetInCU: 0x2123B, offset: 0x2123B, size: 0x8, addend: 0x0, symName: __ZNKSt3__110unique_ptrINS_11__tree_nodeINS_12basic_stringIcNS_11char_traitsIcEENS_9allocatorIcEEEEPvEENS_22__tree_node_destructorINS5_IS9_EEEEEptB7v160006Ev, symObjAddr: 0x474C8, symBinAddr: 0x1000497FC, symSize: 0x6C }
  - { offsetInCU: 0x21261, offset: 0x21261, size: 0x8, addend: 0x0, symName: __ZNSt3__110unique_ptrINS_11__tree_nodeINS_12basic_stringIcNS_11char_traitsIcEENS_9allocatorIcEEEEPvEENS_22__tree_node_destructorINS5_IS9_EEEEE11get_deleterB7v160006Ev, symObjAddr: 0x47534, symBinAddr: 0x100049868, symSize: 0x24 }
  - { offsetInCU: 0x21287, offset: 0x21287, size: 0x8, addend: 0x0, symName: __ZNSt3__117__compressed_pairINS_15__tree_end_nodeIPNS_16__tree_node_baseIPvEEEENS_9allocatorINS_11__tree_nodeINS_12basic_stringIcNS_11char_traitsIcEENS7_IcEEEES3_EEEEE6secondB7v160006Ev, symObjAddr: 0x47558, symBinAddr: 0x10004988C, symSize: 0x24 }
  - { offsetInCU: 0x212AD, offset: 0x212AD, size: 0x8, addend: 0x0, symName: __ZNSt3__122__compressed_pair_elemINS_9allocatorINS_11__tree_nodeINS_12basic_stringIcNS_11char_traitsIcEENS1_IcEEEEPvEEEELi1ELb1EE5__getB7v160006Ev, symObjAddr: 0x4757C, symBinAddr: 0x1000498B0, symSize: 0x14 }
  - { offsetInCU: 0x212D3, offset: 0x212D3, size: 0x8, addend: 0x0, symName: __ZNSt3__19allocatorINS_11__tree_nodeINS_12basic_stringIcNS_11char_traitsIcEENS0_IcEEEEPvEEE8allocateB7v160006Em, symObjAddr: 0x47590, symBinAddr: 0x1000498C4, symSize: 0x60 }
  - { offsetInCU: 0x21311, offset: 0x21311, size: 0x8, addend: 0x0, symName: __ZNSt3__116allocator_traitsINS_9allocatorINS_11__tree_nodeINS_12basic_stringIcNS_11char_traitsIcEENS1_IcEEEEPvEEEEE8max_sizeB7v160006ISA_vvEEmRKSA_, symObjAddr: 0x475F0, symBinAddr: 0x100049924, symSize: 0x28 }
  - { offsetInCU: 0x2133C, offset: 0x2133C, size: 0x8, addend: 0x0, symName: __ZNSt3__122__tree_node_destructorINS_9allocatorINS_11__tree_nodeINS_12basic_stringIcNS_11char_traitsIcEENS1_IcEEEEPvEEEEEC2B7v160006ERSA_b, symObjAddr: 0x47618, symBinAddr: 0x10004994C, symSize: 0xF0 }
  - { offsetInCU: 0x21384, offset: 0x21384, size: 0x8, addend: 0x0, symName: __ZNSt3__110unique_ptrINS_11__tree_nodeINS_12basic_stringIcNS_11char_traitsIcEENS_9allocatorIcEEEEPvEENS_22__tree_node_destructorINS5_IS9_EEEEEC2B7v160006ILb1EvEEPS9_NS_16__dependent_typeINS_27__unique_ptr_deleter_sfinaeISC_EEXT_EE20__good_rval_ref_typeE, symObjAddr: 0x47708, symBinAddr: 0x100049A3C, symSize: 0x21C }
  - { offsetInCU: 0x213DB, offset: 0x213DB, size: 0x8, addend: 0x0, symName: __ZNSt3__117__compressed_pairIPNS_11__tree_nodeINS_12basic_stringIcNS_11char_traitsIcEENS_9allocatorIcEEEEPvEENS_22__tree_node_destructorINS5_IS9_EEEEEC1B7v160006IRSA_SD_EEOT_OT0_, symObjAddr: 0x47924, symBinAddr: 0x100049C58, symSize: 0x3C }
  - { offsetInCU: 0x21433, offset: 0x21433, size: 0x8, addend: 0x0, symName: __ZNSt3__117__compressed_pairIPNS_11__tree_nodeINS_12basic_stringIcNS_11char_traitsIcEENS_9allocatorIcEEEEPvEENS_22__tree_node_destructorINS5_IS9_EEEEEC2B7v160006IRSA_SD_EEOT_OT0_, symObjAddr: 0x47960, symBinAddr: 0x100049C94, symSize: 0x48 }
  - { offsetInCU: 0x2148B, offset: 0x2148B, size: 0x8, addend: 0x0, symName: __ZNSt3__122__compressed_pair_elemIPNS_11__tree_nodeINS_12basic_stringIcNS_11char_traitsIcEENS_9allocatorIcEEEEPvEELi0ELb0EEC2B7v160006IRSA_vEEOT_, symObjAddr: 0x479A8, symBinAddr: 0x100049CDC, symSize: 0xB0 }
  - { offsetInCU: 0x214CD, offset: 0x214CD, size: 0x8, addend: 0x0, symName: __ZNSt3__122__compressed_pair_elemINS_22__tree_node_destructorINS_9allocatorINS_11__tree_nodeINS_12basic_stringIcNS_11char_traitsIcEENS2_IcEEEEPvEEEEEELi1ELb0EEC2B7v160006ISC_vEEOT_, symObjAddr: 0x47A58, symBinAddr: 0x100049D8C, symSize: 0x38 }
  - { offsetInCU: 0x2150F, offset: 0x2150F, size: 0x8, addend: 0x0, symName: __ZNKSt3__117__compressed_pairIPNS_11__tree_nodeINS_12basic_stringIcNS_11char_traitsIcEENS_9allocatorIcEEEEPvEENS_22__tree_node_destructorINS5_IS9_EEEEE5firstB7v160006Ev, symObjAddr: 0x47A90, symBinAddr: 0x100049DC4, symSize: 0x24 }
  - { offsetInCU: 0x21535, offset: 0x21535, size: 0x8, addend: 0x0, symName: __ZNKSt3__122__compressed_pair_elemIPNS_11__tree_nodeINS_12basic_stringIcNS_11char_traitsIcEENS_9allocatorIcEEEEPvEELi0ELb0EE5__getB7v160006Ev, symObjAddr: 0x47AB4, symBinAddr: 0x100049DE8, symSize: 0x14 }
  - { offsetInCU: 0x2155B, offset: 0x2155B, size: 0x8, addend: 0x0, symName: __ZNSt3__117__compressed_pairIPNS_11__tree_nodeINS_12basic_stringIcNS_11char_traitsIcEENS_9allocatorIcEEEEPvEENS_22__tree_node_destructorINS5_IS9_EEEEE6secondB7v160006Ev, symObjAddr: 0x47AC8, symBinAddr: 0x100049DFC, symSize: 0x28 }
  - { offsetInCU: 0x21581, offset: 0x21581, size: 0x8, addend: 0x0, symName: __ZNSt3__122__compressed_pair_elemINS_22__tree_node_destructorINS_9allocatorINS_11__tree_nodeINS_12basic_stringIcNS_11char_traitsIcEENS2_IcEEEEPvEEEEEELi1ELb0EE5__getB7v160006Ev, symObjAddr: 0x47AF0, symBinAddr: 0x100049E24, symSize: 0x14 }
  - { offsetInCU: 0x215A7, offset: 0x215A7, size: 0x8, addend: 0x0, symName: __ZNSt3__16__treeINS_12basic_stringIcNS_11char_traitsIcEENS_9allocatorIcEEEENS_4lessIS6_EENS4_IS6_EEE4sizeB7v160006Ev, symObjAddr: 0x483AC, symBinAddr: 0x10004A6E0, symSize: 0x28 }
  - { offsetInCU: 0x215CD, offset: 0x215CD, size: 0x8, addend: 0x0, symName: __ZNSt3__116__tree_node_baseIPvE12__set_parentB7v160006EPS2_, symObjAddr: 0x48B00, symBinAddr: 0x10004AE34, symSize: 0x74 }
  - { offsetInCU: 0x21602, offset: 0x21602, size: 0x8, addend: 0x0, symName: __ZNSt3__117__compressed_pairImNS_4lessINS_12basic_stringIcNS_11char_traitsIcEENS_9allocatorIcEEEEEEE5firstB7v160006Ev, symObjAddr: 0x48B74, symBinAddr: 0x10004AEA8, symSize: 0x24 }
  - { offsetInCU: 0x21628, offset: 0x21628, size: 0x8, addend: 0x0, symName: __ZNSt3__117__compressed_pairIPNS_11__tree_nodeINS_12basic_stringIcNS_11char_traitsIcEENS_9allocatorIcEEEEPvEENS_22__tree_node_destructorINS5_IS9_EEEEE5firstB7v160006Ev, symObjAddr: 0x48B98, symBinAddr: 0x10004AECC, symSize: 0x24 }
  - { offsetInCU: 0x2164E, offset: 0x2164E, size: 0x8, addend: 0x0, symName: __ZNSt3__122__compressed_pair_elemIPNS_11__tree_nodeINS_12basic_stringIcNS_11char_traitsIcEENS_9allocatorIcEEEEPvEELi0ELb0EE5__getB7v160006Ev, symObjAddr: 0x48BBC, symBinAddr: 0x10004AEF0, symSize: 0x14 }
  - { offsetInCU: 0x21674, offset: 0x21674, size: 0x8, addend: 0x0, symName: __ZNSt3__110unique_ptrINS_11__tree_nodeINS_12basic_stringIcNS_11char_traitsIcEENS_9allocatorIcEEEEPvEENS_22__tree_node_destructorINS5_IS9_EEEEED2B7v160006Ev, symObjAddr: 0x48BD0, symBinAddr: 0x10004AF04, symSize: 0x30 }
  - { offsetInCU: 0x2169E, offset: 0x2169E, size: 0x8, addend: 0x0, symName: __ZNSt3__110unique_ptrINS_11__tree_nodeINS_12basic_stringIcNS_11char_traitsIcEENS_9allocatorIcEEEEPvEENS_22__tree_node_destructorINS5_IS9_EEEEE5resetB7v160006EPS9_, symObjAddr: 0x48C00, symBinAddr: 0x10004AF34, symSize: 0xEC }
  - { offsetInCU: 0x216E2, offset: 0x216E2, size: 0x8, addend: 0x0, symName: __ZNSt3__122__tree_node_destructorINS_9allocatorINS_11__tree_nodeINS_12basic_stringIcNS_11char_traitsIcEENS1_IcEEEEPvEEEEEclB7v160006EPS9_, symObjAddr: 0x48CEC, symBinAddr: 0x10004B020, symSize: 0x160 }
  - { offsetInCU: 0x21717, offset: 0x21717, size: 0x8, addend: 0x0, symName: __ZNSt3__116allocator_traitsINS_9allocatorINS_11__tree_nodeINS_12basic_stringIcNS_11char_traitsIcEENS1_IcEEEEPvEEEEE7destroyB7v160006IS7_vvEEvRSA_PT_, symObjAddr: 0x48E4C, symBinAddr: 0x10004B180, symSize: 0x28 }
  - { offsetInCU: 0x21751, offset: 0x21751, size: 0x8, addend: 0x0, symName: __ZNSt3__116allocator_traitsINS_9allocatorINS_11__tree_nodeINS_12basic_stringIcNS_11char_traitsIcEENS1_IcEEEEPvEEEEE10deallocateB7v160006ERSA_PS9_m, symObjAddr: 0x48E74, symBinAddr: 0x10004B1A8, symSize: 0x34 }
  - { offsetInCU: 0x21793, offset: 0x21793, size: 0x8, addend: 0x0, symName: __ZNSt3__19allocatorINS_11__tree_nodeINS_12basic_stringIcNS_11char_traitsIcEENS0_IcEEEEPvEEE10deallocateB7v160006EPS8_m, symObjAddr: 0x48EA8, symBinAddr: 0x10004B1DC, symSize: 0x50 }
  - { offsetInCU: 0x217D5, offset: 0x217D5, size: 0x8, addend: 0x0, symName: __ZNSt3__115__tree_iteratorINS_12basic_stringIcNS_11char_traitsIcEENS_9allocatorIcEEEEPNS_11__tree_nodeIS6_PvEElEC2B7v160006ESA_, symObjAddr: 0x48EF8, symBinAddr: 0x10004B22C, symSize: 0x70 }
  - { offsetInCU: 0x2180E, offset: 0x2180E, size: 0x8, addend: 0x0, symName: __ZNSt3__14pairINS_15__tree_iteratorINS_12basic_stringIcNS_11char_traitsIcEENS_9allocatorIcEEEEPNS_11__tree_nodeIS7_PvEElEEbEC2B7v160006ISC_RbLS9_0EEEOT_OT0_, symObjAddr: 0x48F68, symBinAddr: 0x10004B29C, symSize: 0x120 }
  - { offsetInCU: 0x2186C, offset: 0x2186C, size: 0x8, addend: 0x0, symName: __ZNSt3__16__treeINS_12basic_stringIcNS_11char_traitsIcEENS_9allocatorIcEEEENS_4lessIS6_EENS4_IS6_EEED2Ev, symObjAddr: 0x49088, symBinAddr: 0x10004B3BC, symSize: 0x38 }
  - { offsetInCU: 0x21898, offset: 0x21898, size: 0x8, addend: 0x0, symName: __ZNSt3__16__treeINS_12basic_stringIcNS_11char_traitsIcEENS_9allocatorIcEEEENS_4lessIS6_EENS4_IS6_EEE7destroyEPNS_11__tree_nodeIS6_PvEE, symObjAddr: 0x490C0, symBinAddr: 0x10004B3F4, symSize: 0x12C }
  - { offsetInCU: 0x218E4, offset: 0x218E4, size: 0x8, addend: 0x0, symName: __ZNSt3__16__treeINS_12basic_stringIcNS_11char_traitsIcEENS_9allocatorIcEEEENS_4lessIS6_EENS4_IS6_EEE4findIS6_EENS_15__tree_iteratorIS6_PNS_11__tree_nodeIS6_PvEElEERKT_, symObjAddr: 0x491EC, symBinAddr: 0x10004B520, symSize: 0x3FC }
  - { offsetInCU: 0x21939, offset: 0x21939, size: 0x8, addend: 0x0, symName: __ZNSt3__16__treeINS_12basic_stringIcNS_11char_traitsIcEENS_9allocatorIcEEEENS_4lessIS6_EENS4_IS6_EEE13__lower_boundIS6_EENS_15__tree_iteratorIS6_PNS_11__tree_nodeIS6_PvEElEERKT_SG_PNS_15__tree_end_nodeIPNS_16__tree_node_baseISE_EEEE, symObjAddr: 0x495E8, symBinAddr: 0x10004B91C, symSize: 0x2E0 }
  - { offsetInCU: 0x2199B, offset: 0x2199B, size: 0x8, addend: 0x0, symName: __ZNKSt3__115__tree_iteratorINS_12basic_stringIcNS_11char_traitsIcEENS_9allocatorIcEEEEPNS_11__tree_nodeIS6_PvEElEdeB7v160006Ev, symObjAddr: 0x498FC, symBinAddr: 0x10004BC30, symSize: 0x28 }
  - { offsetInCU: 0x219C1, offset: 0x219C1, size: 0x8, addend: 0x0, symName: __ZNKSt3__115__tree_iteratorINS_12basic_stringIcNS_11char_traitsIcEENS_9allocatorIcEEEEPNS_11__tree_nodeIS6_PvEElE8__get_npB7v160006Ev, symObjAddr: 0x499DC, symBinAddr: 0x10004BD10, symSize: 0x60 }
  - { offsetInCU: 0x219E7, offset: 0x219E7, size: 0x8, addend: 0x0, symName: __ZNSt3__16__treeINS_12basic_stringIcNS_11char_traitsIcEENS_9allocatorIcEEEENS_4lessIS6_EENS4_IS6_EEE15__insert_uniqueB7v160006ERKS6_, symObjAddr: 0x49A3C, symBinAddr: 0x10004BD70, symSize: 0x238 }
  - { offsetInCU: 0x21A1E, offset: 0x21A1E, size: 0x8, addend: 0x0, symName: __ZNSt3__14pairINS_21__tree_const_iteratorINS_12basic_stringIcNS_11char_traitsIcEENS_9allocatorIcEEEEPNS_11__tree_nodeIS7_PvEElEEbEC1B7v160006INS_15__tree_iteratorIS7_SB_lEEbLS9_0EEEONS0_IT_T0_EE, symObjAddr: 0x49C74, symBinAddr: 0x10004BFA8, symSize: 0x34 }
  - { offsetInCU: 0x21A6F, offset: 0x21A6F, size: 0x8, addend: 0x0, symName: __ZNSt3__16__treeINS_12basic_stringIcNS_11char_traitsIcEENS_9allocatorIcEEEENS_4lessIS6_EENS4_IS6_EEE25__emplace_unique_key_argsIS6_JRKS6_EEENS_4pairINS_15__tree_iteratorIS6_PNS_11__tree_nodeIS6_PvEElEEbEERKT_DpOT0_, symObjAddr: 0x49CA8, symBinAddr: 0x10004BFDC, symSize: 0x510 }
  - { offsetInCU: 0x21B2B, offset: 0x21B2B, size: 0x8, addend: 0x0, symName: __ZNSt3__14pairINS_21__tree_const_iteratorINS_12basic_stringIcNS_11char_traitsIcEENS_9allocatorIcEEEEPNS_11__tree_nodeIS7_PvEElEEbEC2B7v160006INS_15__tree_iteratorIS7_SB_lEEbLS9_0EEEONS0_IT_T0_EE, symObjAddr: 0x4A1B8, symBinAddr: 0x10004C4EC, symSize: 0x2E8 }
  - { offsetInCU: 0x21B7E, offset: 0x21B7E, size: 0x8, addend: 0x0, symName: __ZNSt3__14listI8CStudentNS_9allocatorIS1_EEE5beginB7v160006Ev, symObjAddr: 0x4A7C8, symBinAddr: 0x10004CAFC, symSize: 0x234 }
  - { offsetInCU: 0x21BA5, offset: 0x21BA5, size: 0x8, addend: 0x0, symName: __ZNSt3__14listI8CStudentNS_9allocatorIS1_EEE3endB7v160006Ev, symObjAddr: 0x4A9FC, symBinAddr: 0x10004CD30, symSize: 0x234 }
  - { offsetInCU: 0x21BCC, offset: 0x21BCC, size: 0x8, addend: 0x0, symName: __ZNSt3__14listI8CStudentNS_9allocatorIS1_EEE5eraseENS_21__list_const_iteratorIS1_PvEE, symObjAddr: 0x4AC64, symBinAddr: 0x10004CF98, symSize: 0x390 }
  - { offsetInCU: 0x21C48, offset: 0x21C48, size: 0x8, addend: 0x0, symName: __ZNSt3__121__list_const_iteratorI8CStudentPvEC1B7v160006ERKNS_15__list_iteratorIS1_S2_EE, symObjAddr: 0x4AFF4, symBinAddr: 0x10004D328, symSize: 0x34 }
  - { offsetInCU: 0x21C81, offset: 0x21C81, size: 0x8, addend: 0x0, symName: __ZNKSt3__115__list_iteratorI8CStudentPvEdeB7v160006Ev, symObjAddr: 0x4B028, symBinAddr: 0x10004D35C, symSize: 0x68 }
  - { offsetInCU: 0x21CA7, offset: 0x21CA7, size: 0x8, addend: 0x0, symName: __ZNSt3__115__list_iteratorI8CStudentPvEppB7v160006Ev, symObjAddr: 0x4B090, symBinAddr: 0x10004D3C4, symSize: 0xE0 }
  - { offsetInCU: 0x21CCD, offset: 0x21CCD, size: 0x8, addend: 0x0, symName: __ZNSt3__110__list_impI8CStudentNS_9allocatorIS1_EEE5beginB7v160006Ev, symObjAddr: 0x4B170, symBinAddr: 0x10004D4A4, symSize: 0x234 }
  - { offsetInCU: 0x21CF4, offset: 0x21CF4, size: 0x8, addend: 0x0, symName: __ZNSt3__115__list_iteratorI8CStudentPvEC1B7v160006EPNS_16__list_node_baseIS1_S2_EEPKv, symObjAddr: 0x4B3A4, symBinAddr: 0x10004D6D8, symSize: 0x3C }
  - { offsetInCU: 0x21D3C, offset: 0x21D3C, size: 0x8, addend: 0x0, symName: __ZNSt3__115__list_iteratorI8CStudentPvEC2B7v160006EPNS_16__list_node_baseIS1_S2_EEPKv, symObjAddr: 0x4B3E0, symBinAddr: 0x10004D714, symSize: 0x74 }
  - { offsetInCU: 0x21D84, offset: 0x21D84, size: 0x8, addend: 0x0, symName: __ZNSt3__110__list_impI8CStudentNS_9allocatorIS1_EEE3endB7v160006Ev, symObjAddr: 0x4B454, symBinAddr: 0x10004D788, symSize: 0x20C }
  - { offsetInCU: 0x21DAB, offset: 0x21DAB, size: 0x8, addend: 0x0, symName: __ZNSt3__121__list_const_iteratorI8CStudentPvEC2B7v160006ERKNS_15__list_iteratorIS1_S2_EE, symObjAddr: 0x4B718, symBinAddr: 0x10004DA4C, symSize: 0xB0 }
  - { offsetInCU: 0x21DE4, offset: 0x21DE4, size: 0x8, addend: 0x0, symName: __ZN10CStudyDeptD2Ev, symObjAddr: 0x4B7C8, symBinAddr: 0x10004DAFC, symSize: 0x2C }
  - { offsetInCU: 0x21E10, offset: 0x21E10, size: 0x8, addend: 0x0, symName: __ZNSt3__14listI8CStudentNS_9allocatorIS1_EEEC2B7v160006Ev, symObjAddr: 0x4B7F4, symBinAddr: 0x10004DB28, symSize: 0x34 }
  - { offsetInCU: 0x21E3A, offset: 0x21E3A, size: 0x8, addend: 0x0, symName: __ZNSt3__13setINS_12basic_stringIcNS_11char_traitsIcEENS_9allocatorIcEEEENS_4lessIS6_EENS4_IS6_EEEC2B7v160006Ev, symObjAddr: 0x4B828, symBinAddr: 0x10004DB5C, symSize: 0x1D8 }
  - { offsetInCU: 0x21E65, offset: 0x21E65, size: 0x8, addend: 0x0, symName: __ZNSt3__13setINS_12basic_stringIcNS_11char_traitsIcEENS_9allocatorIcEEEENS_4lessIS6_EENS4_IS6_EEED2B7v160006Ev, symObjAddr: 0x4BA00, symBinAddr: 0x10004DD34, symSize: 0x2C }
  - { offsetInCU: 0x21E8F, offset: 0x21E8F, size: 0x8, addend: 0x0, symName: __ZNSt3__14listI8CStudentNS_9allocatorIS1_EEEC2ESt16initializer_listIS1_E, symObjAddr: 0x4BA2C, symBinAddr: 0x10004DD60, symSize: 0x30C }
  - { offsetInCU: 0x21EFD, offset: 0x21EFD, size: 0x8, addend: 0x0, symName: __ZNKSt16initializer_listI8CStudentE5beginB7v160006Ev, symObjAddr: 0x4BD38, symBinAddr: 0x10004E06C, symSize: 0x60 }
  - { offsetInCU: 0x21F23, offset: 0x21F23, size: 0x8, addend: 0x0, symName: __ZNKSt16initializer_listI8CStudentE3endB7v160006Ev, symObjAddr: 0x4BD98, symBinAddr: 0x10004E0CC, symSize: 0xB0 }
  - { offsetInCU: 0x21F49, offset: 0x21F49, size: 0x8, addend: 0x0, symName: __ZNKSt3__14listI8CStudentNS_9allocatorIS1_EEE4sizeB7v160006Ev, symObjAddr: 0x4BE48, symBinAddr: 0x10004E17C, symSize: 0x6C }
  - { offsetInCU: 0x21F6F, offset: 0x21F6F, size: 0x8, addend: 0x0, symName: __ZNKSt3__110__equal_toclB7v160006I8CStudentS2_EEbRKT_RKT0_, symObjAddr: 0x4C640, symBinAddr: 0x10004E974, symSize: 0x34 }
  - { offsetInCU: 0x21FC3, offset: 0x21FC3, size: 0x8, addend: 0x0, symName: __ZNSt3__13setINS_12basic_stringIcNS_11char_traitsIcEENS_9allocatorIcEEEENS_4lessIS6_EENS4_IS6_EEEC2B7v160006ESt16initializer_listIS6_ERKS8_, symObjAddr: 0x4C674, symBinAddr: 0x10004E9A8, symSize: 0x2D4 }
  - { offsetInCU: 0x22011, offset: 0x22011, size: 0x8, addend: 0x0, symName: __ZNSt3__13setINS_12basic_stringIcNS_11char_traitsIcEENS_9allocatorIcEEEENS_4lessIS6_EENS4_IS6_EEE6insertB7v160006IPKS6_EEvT_SE_, symObjAddr: 0x4C948, symBinAddr: 0x10004EC7C, symSize: 0x350 }
  - { offsetInCU: 0x22082, offset: 0x22082, size: 0x8, addend: 0x0, symName: __ZNKSt16initializer_listINSt3__112basic_stringIcNS0_11char_traitsIcEENS0_9allocatorIcEEEEE5beginB7v160006Ev, symObjAddr: 0x4CC98, symBinAddr: 0x10004EFCC, symSize: 0x60 }
  - { offsetInCU: 0x220A8, offset: 0x220A8, size: 0x8, addend: 0x0, symName: __ZNKSt16initializer_listINSt3__112basic_stringIcNS0_11char_traitsIcEENS0_9allocatorIcEEEEE3endB7v160006Ev, symObjAddr: 0x4CCF8, symBinAddr: 0x10004F02C, symSize: 0xB0 }
  - { offsetInCU: 0x220CE, offset: 0x220CE, size: 0x8, addend: 0x0, symName: __ZNKSt3__13setINS_12basic_stringIcNS_11char_traitsIcEENS_9allocatorIcEEEENS_4lessIS6_EENS4_IS6_EEE4sizeB7v160006Ev, symObjAddr: 0x4CDA8, symBinAddr: 0x10004F0DC, symSize: 0x6C }
  - { offsetInCU: 0x220F4, offset: 0x220F4, size: 0x8, addend: 0x0, symName: __ZNKSt3__13setINS_12basic_stringIcNS_11char_traitsIcEENS_9allocatorIcEEEENS_4lessIS6_EENS4_IS6_EEE5beginB7v160006Ev, symObjAddr: 0x4D220, symBinAddr: 0x10004F554, symSize: 0x234 }
  - { offsetInCU: 0x2211B, offset: 0x2211B, size: 0x8, addend: 0x0, symName: __ZNKSt3__16__treeINS_12basic_stringIcNS_11char_traitsIcEENS_9allocatorIcEEEENS_4lessIS6_EENS4_IS6_EEE4sizeB7v160006Ev, symObjAddr: 0x4D454, symBinAddr: 0x10004F788, symSize: 0x28 }
  - { offsetInCU: 0x22141, offset: 0x22141, size: 0x8, addend: 0x0, symName: __ZNKSt3__117__compressed_pairImNS_4lessINS_12basic_stringIcNS_11char_traitsIcEENS_9allocatorIcEEEEEEE5firstB7v160006Ev, symObjAddr: 0x4D47C, symBinAddr: 0x10004F7B0, symSize: 0x24 }
  - { offsetInCU: 0x22167, offset: 0x22167, size: 0x8, addend: 0x0, symName: __ZNKSt3__16__treeINS_12basic_stringIcNS_11char_traitsIcEENS_9allocatorIcEEEENS_4lessIS6_EENS4_IS6_EEE5beginB7v160006Ev, symObjAddr: 0x4D854, symBinAddr: 0x10004FB88, symSize: 0x238 }
  - { offsetInCU: 0x2218E, offset: 0x2218E, size: 0x8, addend: 0x0, symName: __ZNKSt3__16__treeINS_12basic_stringIcNS_11char_traitsIcEENS_9allocatorIcEEEENS_4lessIS6_EENS4_IS6_EEE12__begin_nodeB7v160006Ev, symObjAddr: 0x4DA8C, symBinAddr: 0x10004FDC0, symSize: 0x14 }
...
