---
triple:          'arm64-apple-darwin'
binary-path:     a.out
relocations:
  - { offsetInCU: 0x3B, offset: 0x3B, size: 0x8, addend: 0x0, symName: _.str, symObjAddr: 0x2FD20, symBinAddr: 0x1000330E0, symSize: 0x0 }
  - { offsetInCU: 0x6B, offset: 0x6B, size: 0x8, addend: 0x0, symName: _.str.1, symObjAddr: 0x2FD40, symBinAddr: 0x100033100, symSize: 0x0 }
  - { offsetInCU: 0x88, offset: 0x88, size: 0x8, addend: 0x0, symName: _.str.2, symObjAddr: 0x2FD80, symBinAddr: 0x100033140, symSize: 0x0 }
  - { offsetInCU: 0xA5, offset: 0xA5, size: 0x8, addend: 0x0, symName: _.str.3, symObjAddr: 0x2FDA0, symBinAddr: 0x100033160, symSize: 0x0 }
  - { offsetInCU: 0xC2, offset: 0xC2, size: 0x8, addend: 0x0, symName: _.str.4, symObjAddr: 0x2FDC0, symBinAddr: 0x100033180, symSize: 0x0 }
  - { offsetInCU: 0xDF, offset: 0xDF, size: 0x8, addend: 0x0, symName: _.str.5, symObjAddr: 0x2FDE0, symBinAddr: 0x1000331A0, symSize: 0x0 }
  - { offsetInCU: 0xFC, offset: 0xFC, size: 0x8, addend: 0x0, symName: _.str.6, symObjAddr: 0x2FE00, symBinAddr: 0x1000331C0, symSize: 0x0 }
  - { offsetInCU: 0x10D, offset: 0x10D, size: 0x8, addend: 0x0, symName: _.str.7, symObjAddr: 0x2FE20, symBinAddr: 0x1000331E0, symSize: 0x0 }
  - { offsetInCU: 0x12A, offset: 0x12A, size: 0x8, addend: 0x0, symName: _.str.8, symObjAddr: 0x2FE60, symBinAddr: 0x100033220, symSize: 0x0 }
  - { offsetInCU: 0x13C, offset: 0x13C, size: 0x8, addend: 0x0, symName: _.str.9, symObjAddr: 0x2FE80, symBinAddr: 0x100033240, symSize: 0x0 }
  - { offsetInCU: 0x15A, offset: 0x15A, size: 0x8, addend: 0x0, symName: _.str.10, symObjAddr: 0x2FEC0, symBinAddr: 0x100033280, symSize: 0x0 }
  - { offsetInCU: 0x16C, offset: 0x16C, size: 0x8, addend: 0x0, symName: _.str.11, symObjAddr: 0x2FEE0, symBinAddr: 0x1000332A0, symSize: 0x0 }
  - { offsetInCU: 0x17E, offset: 0x17E, size: 0x8, addend: 0x0, symName: _.str.12, symObjAddr: 0x2FF20, symBinAddr: 0x1000332E0, symSize: 0x0 }
  - { offsetInCU: 0x19D, offset: 0x19D, size: 0x8, addend: 0x0, symName: ___func__.main, symObjAddr: 0x301E0, symBinAddr: 0x1000335A0, symSize: 0x0 }
  - { offsetInCU: 0x1AF, offset: 0x1AF, size: 0x8, addend: 0x0, symName: _.str.13, symObjAddr: 0x30200, symBinAddr: 0x1000335C0, symSize: 0x0 }
  - { offsetInCU: 0x1CD, offset: 0x1CD, size: 0x8, addend: 0x0, symName: _.str.14, symObjAddr: 0x30220, symBinAddr: 0x1000335E0, symSize: 0x0 }
  - { offsetInCU: 0x1EC, offset: 0x1EC, size: 0x8, addend: 0x0, symName: _.str.15, symObjAddr: 0x30580, symBinAddr: 0x100033940, symSize: 0x0 }
  - { offsetInCU: 0x20A, offset: 0x20A, size: 0x8, addend: 0x0, symName: _.str.16, symObjAddr: 0x30620, symBinAddr: 0x1000339E0, symSize: 0x0 }
  - { offsetInCU: 0x228, offset: 0x228, size: 0x8, addend: 0x0, symName: _.str.17, symObjAddr: 0x306E0, symBinAddr: 0x100033AA0, symSize: 0x0 }
  - { offsetInCU: 0x246, offset: 0x246, size: 0x8, addend: 0x0, symName: _.str.18, symObjAddr: 0x30700, symBinAddr: 0x100033AC0, symSize: 0x0 }
  - { offsetInCU: 0x264, offset: 0x264, size: 0x8, addend: 0x0, symName: _.str.19, symObjAddr: 0x30720, symBinAddr: 0x100033AE0, symSize: 0x0 }
  - { offsetInCU: 0x276, offset: 0x276, size: 0x8, addend: 0x0, symName: _.str.20, symObjAddr: 0x30740, symBinAddr: 0x100033B00, symSize: 0x0 }
  - { offsetInCU: 0x295, offset: 0x295, size: 0x8, addend: 0x0, symName: _.str.21, symObjAddr: 0x30A80, symBinAddr: 0x100033E40, symSize: 0x0 }
  - { offsetInCU: 0x2B4, offset: 0x2B4, size: 0x8, addend: 0x0, symName: _.str.22, symObjAddr: 0x30E80, symBinAddr: 0x100034240, symSize: 0x0 }
  - { offsetInCU: 0x2C5, offset: 0x2C5, size: 0x8, addend: 0x0, symName: _.str.23, symObjAddr: 0x30EA0, symBinAddr: 0x100034260, symSize: 0x0 }
  - { offsetInCU: 0x2E2, offset: 0x2E2, size: 0x8, addend: 0x0, symName: _.str.24, symObjAddr: 0x30EC0, symBinAddr: 0x100034280, symSize: 0x0 }
  - { offsetInCU: 0x2F3, offset: 0x2F3, size: 0x8, addend: 0x0, symName: _.str.25, symObjAddr: 0x30EE0, symBinAddr: 0x1000342A0, symSize: 0x0 }
  - { offsetInCU: 0x304, offset: 0x304, size: 0x8, addend: 0x0, symName: _.str.26, symObjAddr: 0x30F00, symBinAddr: 0x1000342C0, symSize: 0x0 }
  - { offsetInCU: 0x315, offset: 0x315, size: 0x8, addend: 0x0, symName: _.str.27, symObjAddr: 0x30F20, symBinAddr: 0x1000342E0, symSize: 0x0 }
  - { offsetInCU: 0x326, offset: 0x326, size: 0x8, addend: 0x0, symName: _.str.28, symObjAddr: 0x31340, symBinAddr: 0x100034700, symSize: 0x0 }
  - { offsetInCU: 0x343, offset: 0x343, size: 0x8, addend: 0x0, symName: _.str.29, symObjAddr: 0x30F40, symBinAddr: 0x100034300, symSize: 0x0 }
  - { offsetInCU: 0x360, offset: 0x360, size: 0x8, addend: 0x0, symName: _.str.30, symObjAddr: 0x30F60, symBinAddr: 0x100034320, symSize: 0x0 }
  - { offsetInCU: 0x371, offset: 0x371, size: 0x8, addend: 0x0, symName: _.str.31, symObjAddr: 0x30F80, symBinAddr: 0x100034340, symSize: 0x0 }
  - { offsetInCU: 0x382, offset: 0x382, size: 0x8, addend: 0x0, symName: _.str.32, symObjAddr: 0x30FA0, symBinAddr: 0x100034360, symSize: 0x0 }
  - { offsetInCU: 0x393, offset: 0x393, size: 0x8, addend: 0x0, symName: _.str.33, symObjAddr: 0x30FC0, symBinAddr: 0x100034380, symSize: 0x0 }
  - { offsetInCU: 0x3A4, offset: 0x3A4, size: 0x8, addend: 0x0, symName: _.str.34, symObjAddr: 0x30FE0, symBinAddr: 0x1000343A0, symSize: 0x0 }
  - { offsetInCU: 0x3B5, offset: 0x3B5, size: 0x8, addend: 0x0, symName: _.str.35, symObjAddr: 0x31000, symBinAddr: 0x1000343C0, symSize: 0x0 }
  - { offsetInCU: 0x3C6, offset: 0x3C6, size: 0x8, addend: 0x0, symName: _.str.36, symObjAddr: 0x31020, symBinAddr: 0x1000343E0, symSize: 0x0 }
  - { offsetInCU: 0x3D7, offset: 0x3D7, size: 0x8, addend: 0x0, symName: _.str.37, symObjAddr: 0x31040, symBinAddr: 0x100034400, symSize: 0x0 }
  - { offsetInCU: 0x3E8, offset: 0x3E8, size: 0x8, addend: 0x0, symName: _.str.38, symObjAddr: 0x31060, symBinAddr: 0x100034420, symSize: 0x0 }
  - { offsetInCU: 0x3FA, offset: 0x3FA, size: 0x8, addend: 0x0, symName: _.str.39, symObjAddr: 0x31080, symBinAddr: 0x100034440, symSize: 0x0 }
  - { offsetInCU: 0x40B, offset: 0x40B, size: 0x8, addend: 0x0, symName: _.str.40, symObjAddr: 0x310A0, symBinAddr: 0x100034460, symSize: 0x0 }
  - { offsetInCU: 0x41C, offset: 0x41C, size: 0x8, addend: 0x0, symName: _.str.41, symObjAddr: 0x310C0, symBinAddr: 0x100034480, symSize: 0x0 }
  - { offsetInCU: 0x42D, offset: 0x42D, size: 0x8, addend: 0x0, symName: _.str.42, symObjAddr: 0x310E0, symBinAddr: 0x1000344A0, symSize: 0x0 }
  - { offsetInCU: 0x43E, offset: 0x43E, size: 0x8, addend: 0x0, symName: _.str.43, symObjAddr: 0x31100, symBinAddr: 0x1000344C0, symSize: 0x0 }
  - { offsetInCU: 0x44F, offset: 0x44F, size: 0x8, addend: 0x0, symName: _.str.44, symObjAddr: 0x31120, symBinAddr: 0x1000344E0, symSize: 0x0 }
  - { offsetInCU: 0x460, offset: 0x460, size: 0x8, addend: 0x0, symName: _.str.45, symObjAddr: 0x31140, symBinAddr: 0x100034500, symSize: 0x0 }
  - { offsetInCU: 0x471, offset: 0x471, size: 0x8, addend: 0x0, symName: _.str.46, symObjAddr: 0x31160, symBinAddr: 0x100034520, symSize: 0x0 }
  - { offsetInCU: 0x482, offset: 0x482, size: 0x8, addend: 0x0, symName: _.str.47, symObjAddr: 0x31180, symBinAddr: 0x100034540, symSize: 0x0 }
  - { offsetInCU: 0x493, offset: 0x493, size: 0x8, addend: 0x0, symName: _.str.48, symObjAddr: 0x311A0, symBinAddr: 0x100034560, symSize: 0x0 }
  - { offsetInCU: 0x4A4, offset: 0x4A4, size: 0x8, addend: 0x0, symName: _.str.49, symObjAddr: 0x311C0, symBinAddr: 0x100034580, symSize: 0x0 }
  - { offsetInCU: 0x4B5, offset: 0x4B5, size: 0x8, addend: 0x0, symName: _.str.50, symObjAddr: 0x311E0, symBinAddr: 0x1000345A0, symSize: 0x0 }
  - { offsetInCU: 0x4C6, offset: 0x4C6, size: 0x8, addend: 0x0, symName: _.str.51, symObjAddr: 0x31200, symBinAddr: 0x1000345C0, symSize: 0x0 }
  - { offsetInCU: 0x4D7, offset: 0x4D7, size: 0x8, addend: 0x0, symName: _.str.52, symObjAddr: 0x31220, symBinAddr: 0x1000345E0, symSize: 0x0 }
  - { offsetInCU: 0x4E8, offset: 0x4E8, size: 0x8, addend: 0x0, symName: _.str.53, symObjAddr: 0x31240, symBinAddr: 0x100034600, symSize: 0x0 }
  - { offsetInCU: 0x4F9, offset: 0x4F9, size: 0x8, addend: 0x0, symName: _.str.54, symObjAddr: 0x31260, symBinAddr: 0x100034620, symSize: 0x0 }
  - { offsetInCU: 0x50A, offset: 0x50A, size: 0x8, addend: 0x0, symName: _.str.55, symObjAddr: 0x31280, symBinAddr: 0x100034640, symSize: 0x0 }
  - { offsetInCU: 0x51B, offset: 0x51B, size: 0x8, addend: 0x0, symName: _.str.56, symObjAddr: 0x312A0, symBinAddr: 0x100034660, symSize: 0x0 }
  - { offsetInCU: 0x52C, offset: 0x52C, size: 0x8, addend: 0x0, symName: _.str.57, symObjAddr: 0x312C0, symBinAddr: 0x100034680, symSize: 0x0 }
  - { offsetInCU: 0x53D, offset: 0x53D, size: 0x8, addend: 0x0, symName: _.str.58, symObjAddr: 0x312E0, symBinAddr: 0x1000346A0, symSize: 0x0 }
  - { offsetInCU: 0x54E, offset: 0x54E, size: 0x8, addend: 0x0, symName: _.str.59, symObjAddr: 0x31300, symBinAddr: 0x1000346C0, symSize: 0x0 }
  - { offsetInCU: 0x55F, offset: 0x55F, size: 0x8, addend: 0x0, symName: _.str.60, symObjAddr: 0x31320, symBinAddr: 0x1000346E0, symSize: 0x0 }
  - { offsetInCU: 0x89E6, offset: 0x89E6, size: 0x8, addend: 0x0, symName: __ZNSt3__124__put_character_sequenceB7v160006IcNS_11char_traitsIcEEEERNS_13basic_ostreamIT_T0_EES7_PKS4_m, symObjAddr: 0x4D78, symBinAddr: 0x100007C00, symSize: 0x744 }
  - { offsetInCU: 0xAB8F, offset: 0xAB8F, size: 0x8, addend: 0x0, symName: __ZNSt3__17advanceB7v160006IPNS_12basic_stringIcNS_11char_traitsIcEENS_9allocatorIcEEEEllvEEvRT_T0_, symObjAddr: 0x1357C, symBinAddr: 0x100016404, symSize: 0x50 }
  - { offsetInCU: 0xB141, offset: 0xB141, size: 0x8, addend: 0x0, symName: __ZNSt3__17advanceB7v160006INS_16reverse_iteratorIPNS_12basic_stringIcNS_11char_traitsIcEENS_9allocatorIcEEEEEEllvEEvRT_T0_, symObjAddr: 0x1FB18, symBinAddr: 0x1000229A0, symSize: 0x50 }
  - { offsetInCU: 0xB5D7, offset: 0xB5D7, size: 0x8, addend: 0x0, symName: __ZNSt3__17advanceB7v160006IPNS_4pairIiNS_12basic_stringIcNS_11char_traitsIcEENS_9allocatorIcEEEEEEllvEEvRT_T0_, symObjAddr: 0x25224, symBinAddr: 0x1000280AC, symSize: 0x50 }
  - { offsetInCU: 0xB999, offset: 0xB999, size: 0x8, addend: 0x0, symName: __ZNSt3__17advanceB7v160006INS_16reverse_iteratorIPNS_4pairIiNS_12basic_stringIcNS_11char_traitsIcEENS_9allocatorIcEEEEEEEEllvEEvRT_T0_, symObjAddr: 0x29774, symBinAddr: 0x10002C5FC, symSize: 0x50 }
  - { offsetInCU: 0xC8E7, offset: 0xC8E7, size: 0x8, addend: 0x0, symName: __ZNSt3__1eqB7v160006IcNS_11char_traitsIcEENS_9allocatorIcEEEEbRKNS_12basic_stringIT_T0_T1_EEPKS6_, symObjAddr: 0x3D74, symBinAddr: 0x100006BFC, symSize: 0x2EC }
  - { offsetInCU: 0xC941, offset: 0xC941, size: 0x8, addend: 0x0, symName: __ZNSt3__1lsB7v160006INS_11char_traitsIcEEEERNS_13basic_ostreamIcT_EES6_PKc, symObjAddr: 0x4BC8, symBinAddr: 0x100007A50, symSize: 0x48 }
  - { offsetInCU: 0xC987, offset: 0xC987, size: 0x8, addend: 0x0, symName: __ZNSt3__1lsB7v160006IcNS_11char_traitsIcEENS_9allocatorIcEEEERNS_13basic_ostreamIT_T0_EES9_RKNS_12basic_stringIS6_S7_T1_EE, symObjAddr: 0x4C10, symBinAddr: 0x100007A98, symSize: 0x4C }
  - { offsetInCU: 0xC9DF, offset: 0xC9DF, size: 0x8, addend: 0x0, symName: __ZNSt3__116__pad_and_outputB7v160006IcNS_11char_traitsIcEEEENS_19ostreambuf_iteratorIT_T0_EES6_PKS4_S8_S8_RNS_8ios_baseES4_, symObjAddr: 0x5584, symBinAddr: 0x10000840C, symSize: 0x760 }
  - { offsetInCU: 0xCABC, offset: 0xCABC, size: 0x8, addend: 0x0, symName: __ZNSt3__119__debug_db_insert_cB7v160006INS_12basic_stringIcNS_11char_traitsIcEENS_9allocatorIcEEEEEEvPT_, symObjAddr: 0x6470, symBinAddr: 0x1000092F8, symSize: 0x10 }
  - { offsetInCU: 0xCAED, offset: 0xCAED, size: 0x8, addend: 0x0, symName: __ZNSt3__112__to_addressB7v160006IcEEPT_S2_, symObjAddr: 0x653C, symBinAddr: 0x1000093C4, symSize: 0x14 }
  - { offsetInCU: 0xCB22, offset: 0xCB22, size: 0x8, addend: 0x0, symName: __ZNSt3__19use_facetB7v160006INS_5ctypeIcEEEERKT_RKNS_6localeE, symObjAddr: 0x6BC8, symBinAddr: 0x100009A50, symSize: 0x2C }
  - { offsetInCU: 0xCFF1, offset: 0xCFF1, size: 0x8, addend: 0x0, symName: __ZNSt3__118__constexpr_strlenB7v160006EPKc, symObjAddr: 0x6D4C, symBinAddr: 0x100009BD4, symSize: 0x24 }
  - { offsetInCU: 0xD01D, offset: 0xD01D, size: 0x8, addend: 0x0, symName: __ZNSt3__112__to_addressB7v160006IKcEEPT_S3_, symObjAddr: 0x6DEC, symBinAddr: 0x100009C74, symSize: 0x14 }
  - { offsetInCU: 0xD085, offset: 0xD085, size: 0x8, addend: 0x0, symName: __ZNSt3__119__debug_db_insert_cB7v160006INS_6vectorIP9CComputerNS_9allocatorIS3_EEEEEEvPT_, symObjAddr: 0x7800, symBinAddr: 0x10000A688, symSize: 0x10 }
  - { offsetInCU: 0xD0B6, offset: 0xD0B6, size: 0x8, addend: 0x0, symName: __ZNSt3__112__to_addressB7v160006IP9CComputerEEPT_S4_, symObjAddr: 0x8254, symBinAddr: 0x10000B0DC, symSize: 0x14 }
  - { offsetInCU: 0xD110, offset: 0xD110, size: 0x8, addend: 0x0, symName: __ZNSt3__112construct_atB7v160006IP9CComputerJS2_EPS2_EEPT_S5_DpOT0_, symObjAddr: 0x8714, symBinAddr: 0x10000B59C, symSize: 0xB8 }
  - { offsetInCU: 0xD180, offset: 0xD180, size: 0x8, addend: 0x0, symName: __ZNSt3__13maxB7v160006ImEERKT_S3_S3_, symObjAddr: 0x97C8, symBinAddr: 0x10000C650, symSize: 0x2C }
  - { offsetInCU: 0xD1C3, offset: 0xD1C3, size: 0x8, addend: 0x0, symName: __ZNSt3__13minB7v160006ImEERKT_S3_S3_, symObjAddr: 0x97F4, symBinAddr: 0x10000C67C, symSize: 0x2C }
  - { offsetInCU: 0xD3F0, offset: 0xD3F0, size: 0x8, addend: 0x0, symName: __ZNSt3__13minB7v160006ImNS_6__lessImmEEEERKT_S5_S5_T0_, symObjAddr: 0x9884, symBinAddr: 0x10000C70C, symSize: 0x1E8 }
  - { offsetInCU: 0xD677, offset: 0xD677, size: 0x8, addend: 0x0, symName: __ZNSt3__120__throw_length_errorB7v160006EPKc, symObjAddr: 0x9B84, symBinAddr: 0x10000CA0C, symSize: 0x68 }
  - { offsetInCU: 0xD69F, offset: 0xD69F, size: 0x8, addend: 0x0, symName: __ZNSt3__13maxB7v160006ImNS_6__lessImmEEEERKT_S5_S5_T0_, symObjAddr: 0x9CAC, symBinAddr: 0x10000CB34, symSize: 0x1E8 }
  - { offsetInCU: 0xD6FF, offset: 0xD6FF, size: 0x8, addend: 0x0, symName: __ZNSt3__119__allocate_at_leastB7v160006INS_9allocatorIP9CComputerEEEENS_19__allocation_resultINS_16allocator_traitsIT_E7pointerEEERS7_m, symObjAddr: 0xA3F0, symBinAddr: 0x10000D278, symSize: 0x28C }
  - { offsetInCU: 0xD744, offset: 0xD744, size: 0x8, addend: 0x0, symName: __ZNSt3__117__libcpp_allocateB7v160006Emm, symObjAddr: 0xA818, symBinAddr: 0x10000D6A0, symSize: 0x60 }
  - { offsetInCU: 0xD79E, offset: 0xD79E, size: 0x8, addend: 0x0, symName: __ZNSt3__124__is_overaligned_for_newB7v160006Em, symObjAddr: 0xA878, symBinAddr: 0x10000D700, symSize: 0x20 }
  - { offsetInCU: 0xD7CC, offset: 0xD7CC, size: 0x8, addend: 0x0, symName: __ZNSt3__121__libcpp_operator_newB7v160006IJmSt11align_val_tEEEPvDpT_, symObjAddr: 0xA898, symBinAddr: 0x10000D720, symSize: 0x2C }
  - { offsetInCU: 0xD819, offset: 0xD819, size: 0x8, addend: 0x0, symName: __ZNSt3__121__libcpp_operator_newB7v160006IJmEEEPvDpT_, symObjAddr: 0xA8C4, symBinAddr: 0x10000D74C, symSize: 0x24 }
  - { offsetInCU: 0xD852, offset: 0xD852, size: 0x8, addend: 0x0, symName: __ZNSt3__142__uninitialized_allocator_move_if_noexceptB7v160006INS_9allocatorIP9CComputerEENS_16reverse_iteratorIPS3_EES7_S3_vEET1_RT_T0_SB_S8_, symObjAddr: 0xAA60, symBinAddr: 0x10000D8E8, symSize: 0x4A8 }
  - { offsetInCU: 0xD8DC, offset: 0xD8DC, size: 0x8, addend: 0x0, symName: __ZNSt3__14swapB7v160006IPP9CComputerEENS_9enable_ifIXaasr21is_move_constructibleIT_EE5valuesr18is_move_assignableIS5_EE5valueEvE4typeERS5_S8_, symObjAddr: 0xAFA0, symBinAddr: 0x10000DE28, symSize: 0x134 }
  - { offsetInCU: 0xD92D, offset: 0xD92D, size: 0x8, addend: 0x0, symName: __ZNSt3__125__debug_db_invalidate_allB7v160006INS_6vectorIP9CComputerNS_9allocatorIS3_EEEEEEvPT_, symObjAddr: 0xB194, symBinAddr: 0x10000E01C, symSize: 0x10 }
  - { offsetInCU: 0xD95E, offset: 0xD95E, size: 0x8, addend: 0x0, symName: __ZNSt3__14moveB7v160006INS_16reverse_iteratorIPP9CComputerEES5_EET0_T_S7_S6_, symObjAddr: 0xB1A4, symBinAddr: 0x10000E02C, symSize: 0x4B0 }
  - { offsetInCU: 0xD9C5, offset: 0xD9C5, size: 0x8, addend: 0x0, symName: __ZNSt3__16__moveB7v160006INS_17_ClassicAlgPolicyENS_16reverse_iteratorIPP9CComputerEES6_S6_EENS_4pairIT0_T2_EES8_T1_S9_, symObjAddr: 0xB654, symBinAddr: 0x10000E4DC, symSize: 0x424 }
  - { offsetInCU: 0xDA3D, offset: 0xDA3D, size: 0x8, addend: 0x0, symName: __ZNSt3__123__dispatch_copy_or_moveB7v160006INS_17_ClassicAlgPolicyENS_11__move_loopIS1_EENS_14__move_trivialENS_16reverse_iteratorIPP9CComputerEES9_S9_EENS_4pairIT2_T4_EESB_T3_SC_, symObjAddr: 0xBA78, symBinAddr: 0x10000E900, symSize: 0x424 }
  - { offsetInCU: 0xDAC7, offset: 0xDAC7, size: 0x8, addend: 0x0, symName: __ZNSt3__121__unwrap_and_dispatchB7v160006INS_10__overloadINS_11__move_loopINS_17_ClassicAlgPolicyEEENS_14__move_trivialEEENS_16reverse_iteratorIPP9CComputerEESB_SB_Li0EEENS_4pairIT0_T2_EESD_T1_SE_, symObjAddr: 0xBE9C, symBinAddr: 0x10000ED24, symSize: 0x880 }
  - { offsetInCU: 0xDB6B, offset: 0xDB6B, size: 0x8, addend: 0x0, symName: __ZNSt3__114__unwrap_rangeB7v160006INS_16reverse_iteratorIPP9CComputerEES5_EEDaT_T0_, symObjAddr: 0xC71C, symBinAddr: 0x10000F5A4, symSize: 0x35C }
  - { offsetInCU: 0xDD2D, offset: 0xDD2D, size: 0x8, addend: 0x0, symName: __ZNSt3__113__unwrap_iterB7v160006INS_16reverse_iteratorIPP9CComputerEENS_18__unwrap_iter_implIS5_Lb0EEELi0EEEDTclsrT0_8__unwrapclsr3stdE7declvalIT_EEEES9_, symObjAddr: 0xCE20, symBinAddr: 0x10000FCA8, symSize: 0x2EC }
  - { offsetInCU: 0xDD75, offset: 0xDD75, size: 0x8, addend: 0x0, symName: __ZNSt3__19make_pairB7v160006INS_16reverse_iteratorIPP9CComputerEES5_EENS_4pairINS_18__unwrap_ref_decayIT_E4typeENS7_IT0_E4typeEEEOS8_OSB_, symObjAddr: 0xD10C, symBinAddr: 0x10000FF94, symSize: 0x38 }
  - { offsetInCU: 0xDDC4, offset: 0xDDC4, size: 0x8, addend: 0x0, symName: __ZNSt3__114__rewrap_rangeB7v160006INS_16reverse_iteratorIPP9CComputerEES5_S5_EET0_S6_T1_, symObjAddr: 0xD144, symBinAddr: 0x10000FFCC, symSize: 0x3D4 }
  - { offsetInCU: 0xDE21, offset: 0xDE21, size: 0x8, addend: 0x0, symName: __ZNSt3__113__rewrap_iterB7v160006INS_16reverse_iteratorIPP9CComputerEES5_NS_18__unwrap_iter_implIS5_Lb0EEEEET_S8_T0_, symObjAddr: 0xD518, symBinAddr: 0x1000103A0, symSize: 0x3E8 }
  - { offsetInCU: 0xDECE, offset: 0xDECE, size: 0x8, addend: 0x0, symName: __ZNSt3__1neB7v160006IPP9CComputerS3_EEbRKNS_16reverse_iteratorIT_EERKNS4_IT0_EE, symObjAddr: 0xDDD8, symBinAddr: 0x100010C60, symSize: 0x48 }
  - { offsetInCU: 0xDFFF, offset: 0xDFFF, size: 0x8, addend: 0x0, symName: __ZNSt3__110destroy_atB7v160006IP9CComputerLi0EEEvPT_, symObjAddr: 0xECC8, symBinAddr: 0x100011B50, symSize: 0x24 }
  - { offsetInCU: 0xE036, offset: 0xE036, size: 0x8, addend: 0x0, symName: __ZNSt3__112__destroy_atB7v160006IP9CComputerLi0EEEvPT_, symObjAddr: 0xECEC, symBinAddr: 0x100011B74, symSize: 0x10 }
  - { offsetInCU: 0xE06D, offset: 0xE06D, size: 0x8, addend: 0x0, symName: __ZNSt3__119__libcpp_deallocateB7v160006EPvmm, symObjAddr: 0xED48, symBinAddr: 0x100011BD0, symSize: 0x60 }
  - { offsetInCU: 0xE0D2, offset: 0xE0D2, size: 0x8, addend: 0x0, symName: __ZNSt3__127__do_deallocate_handle_sizeB7v160006IJSt11align_val_tEEEvPvmDpT_, symObjAddr: 0xEDA8, symBinAddr: 0x100011C30, symSize: 0x30 }
  - { offsetInCU: 0xE125, offset: 0xE125, size: 0x8, addend: 0x0, symName: __ZNSt3__127__do_deallocate_handle_sizeB7v160006IJEEEvPvmDpT_, symObjAddr: 0xEDD8, symBinAddr: 0x100011C60, symSize: 0x28 }
  - { offsetInCU: 0xE163, offset: 0xE163, size: 0x8, addend: 0x0, symName: __ZNSt3__124__libcpp_operator_deleteB7v160006IJPvSt11align_val_tEEEvDpT_, symObjAddr: 0xEE00, symBinAddr: 0x100011C88, symSize: 0x2C }
  - { offsetInCU: 0xE1AC, offset: 0xE1AC, size: 0x8, addend: 0x0, symName: __ZNSt3__124__libcpp_operator_deleteB7v160006IJPvEEEvDpT_, symObjAddr: 0xEE2C, symBinAddr: 0x100011CB4, symSize: 0x24 }
  - { offsetInCU: 0xE1E1, offset: 0xE1E1, size: 0x8, addend: 0x0, symName: __ZNSt3__1neB7v160006IPKP10CComponentEEbRKNS_11__wrap_iterIT_EES9_, symObjAddr: 0xF920, symBinAddr: 0x1000127A8, symSize: 0x34 }
  - { offsetInCU: 0xE224, offset: 0xE224, size: 0x8, addend: 0x0, symName: __ZNSt3__122__make_exception_guardB7v160006INS_6vectorINS_12basic_stringIcNS_11char_traitsIcEENS_9allocatorIcEEEENS5_IS7_EEE16__destroy_vectorEEENS_28__exception_guard_exceptionsIT_EESC_, symObjAddr: 0x10114, symBinAddr: 0x100012F9C, symSize: 0x278 }
  - { offsetInCU: 0xE25D, offset: 0xE25D, size: 0x8, addend: 0x0, symName: __ZNSt3__119__debug_db_insert_cB7v160006INS_6vectorINS_12basic_stringIcNS_11char_traitsIcEENS_9allocatorIcEEEENS5_IS7_EEEEEEvPT_, symObjAddr: 0x103C0, symBinAddr: 0x100013248, symSize: 0x10 }
  - { offsetInCU: 0xE28E, offset: 0xE28E, size: 0x8, addend: 0x0, symName: __ZNSt3__119__allocate_at_leastB7v160006INS_9allocatorINS_12basic_stringIcNS_11char_traitsIcEENS1_IcEEEEEEEENS_19__allocation_resultINS_16allocator_traitsIT_E7pointerEEERSA_m, symObjAddr: 0x11550, symBinAddr: 0x1000143D8, symSize: 0x28C }
  - { offsetInCU: 0xE2D3, offset: 0xE2D3, size: 0x8, addend: 0x0, symName: __ZNSt3__112__to_addressB7v160006INS_12basic_stringIcNS_11char_traitsIcEENS_9allocatorIcEEEEEEPT_S8_, symObjAddr: 0x11B78, symBinAddr: 0x100014A00, symSize: 0x14 }
  - { offsetInCU: 0xE308, offset: 0xE308, size: 0x8, addend: 0x0, symName: __ZNSt3__130__uninitialized_allocator_copyB7v160006INS_9allocatorINS_12basic_stringIcNS_11char_traitsIcEENS1_IcEEEEEEPS6_S8_S8_EET2_RT_T0_T1_S9_, symObjAddr: 0x11C28, symBinAddr: 0x100014AB0, symSize: 0x520 }
  - { offsetInCU: 0xE3B4, offset: 0xE3B4, size: 0x8, addend: 0x0, symName: __ZNSt3__122__make_exception_guardB7v160006INS_29_AllocatorDestroyRangeReverseINS_9allocatorINS_12basic_stringIcNS_11char_traitsIcEENS2_IcEEEEEEPS7_EEEENS_28__exception_guard_exceptionsIT_EESC_, symObjAddr: 0x12444, symBinAddr: 0x1000152CC, symSize: 0x1F8 }
  - { offsetInCU: 0xE410, offset: 0xE410, size: 0x8, addend: 0x0, symName: __ZNSt3__112construct_atB7v160006INS_12basic_stringIcNS_11char_traitsIcEENS_9allocatorIcEEEEJRS6_EPS6_EEPT_SA_DpOT0_, symObjAddr: 0x12944, symBinAddr: 0x1000157CC, symSize: 0x3C }
  - { offsetInCU: 0xE480, offset: 0xE480, size: 0x8, addend: 0x0, symName: __ZNSt3__119__allocator_destroyB7v160006INS_9allocatorINS_12basic_stringIcNS_11char_traitsIcEENS1_IcEEEEEENS_16reverse_iteratorIPS6_EESA_EEvRT_T0_T1_, symObjAddr: 0x12DD8, symBinAddr: 0x100015C60, symSize: 0x2B8 }
  - { offsetInCU: 0xE4EC, offset: 0xE4EC, size: 0x8, addend: 0x0, symName: __ZNSt3__1neB7v160006IPNS_12basic_stringIcNS_11char_traitsIcEENS_9allocatorIcEEEES7_EEbRKNS_16reverse_iteratorIT_EERKNS8_IT0_EE, symObjAddr: 0x130C4, symBinAddr: 0x100015F4C, symSize: 0x48 }
  - { offsetInCU: 0xE538, offset: 0xE538, size: 0x8, addend: 0x0, symName: __ZNSt3__112__to_addressB7v160006INS_16reverse_iteratorIPNS_12basic_stringIcNS_11char_traitsIcEENS_9allocatorIcEEEEEEvEENS_5decayIDTclsr19__to_address_helperIT_EE6__callclsr3stdE7declvalIRKSB_EEEEE4typeESD_, symObjAddr: 0x13134, symBinAddr: 0x100015FBC, symSize: 0x24 }
  - { offsetInCU: 0xE56E, offset: 0xE56E, size: 0x8, addend: 0x0, symName: __ZNSt3__110destroy_atB7v160006INS_12basic_stringIcNS_11char_traitsIcEENS_9allocatorIcEEEELi0EEEvPT_, symObjAddr: 0x13228, symBinAddr: 0x1000160B0, symSize: 0x24 }
  - { offsetInCU: 0xE5A5, offset: 0xE5A5, size: 0x8, addend: 0x0, symName: __ZNSt3__112__destroy_atB7v160006INS_12basic_stringIcNS_11char_traitsIcEENS_9allocatorIcEEEELi0EEEvPT_, symObjAddr: 0x1324C, symBinAddr: 0x1000160D4, symSize: 0x24 }
  - { offsetInCU: 0xE605, offset: 0xE605, size: 0x8, addend: 0x0, symName: __ZNSt3__14prevB7v160006IPNS_12basic_stringIcNS_11char_traitsIcEENS_9allocatorIcEEEEEENS_9enable_ifIXsr25__is_cpp17_input_iteratorIT_EE5valueES9_E4typeES9_NS_15iterator_traitsIS9_E15difference_typeE, symObjAddr: 0x13320, symBinAddr: 0x1000161A8, symSize: 0x25C }
  - { offsetInCU: 0xE64D, offset: 0xE64D, size: 0x8, addend: 0x0, symName: __ZNSt3__121__convert_to_integralB7v160006El, symObjAddr: 0x135CC, symBinAddr: 0x100016454, symSize: 0x14 }
  - { offsetInCU: 0xE679, offset: 0xE679, size: 0x8, addend: 0x0, symName: __ZNSt3__19__advanceB7v160006IPNS_12basic_stringIcNS_11char_traitsIcEENS_9allocatorIcEEEEEEvRT_NS_15iterator_traitsIS8_E15difference_typeENS_26random_access_iterator_tagE, symObjAddr: 0x135E0, symBinAddr: 0x100016468, symSize: 0x80 }
  - { offsetInCU: 0xE6C2, offset: 0xE6C2, size: 0x8, addend: 0x0, symName: __ZNSt3__118__debug_db_erase_cB7v160006INS_6vectorINS_12basic_stringIcNS_11char_traitsIcEENS_9allocatorIcEEEENS5_IS7_EEEEEEvPT_, symObjAddr: 0x13E7C, symBinAddr: 0x100016D04, symSize: 0x10 }
  - { offsetInCU: 0xE6F3, offset: 0xE6F3, size: 0x8, addend: 0x0, symName: __ZNSt3__119__debug_db_insert_cB7v160006INS_6vectorIP10CComponentNS_9allocatorIS3_EEEEEEvPT_, symObjAddr: 0x143B8, symBinAddr: 0x100017240, symSize: 0x10 }
  - { offsetInCU: 0xE724, offset: 0xE724, size: 0x8, addend: 0x0, symName: __ZNSt3__1eqB7v160006IPKP10CComponentEEbRKNS_11__wrap_iterIT_EES9_, symObjAddr: 0x14788, symBinAddr: 0x100017610, symSize: 0x48 }
  - { offsetInCU: 0xE767, offset: 0xE767, size: 0x8, addend: 0x0, symName: __ZNSt3__112__to_addressB7v160006IP10CComponentEEPT_S4_, symObjAddr: 0x15050, symBinAddr: 0x100017ED8, symSize: 0x14 }
  - { offsetInCU: 0xE7C1, offset: 0xE7C1, size: 0x8, addend: 0x0, symName: __ZNSt3__112construct_atB7v160006IP10CComponentJS2_EPS2_EEPT_S5_DpOT0_, symObjAddr: 0x15510, symBinAddr: 0x100018398, symSize: 0xB8 }
  - { offsetInCU: 0xE831, offset: 0xE831, size: 0x8, addend: 0x0, symName: __ZNSt3__119__allocate_at_leastB7v160006INS_9allocatorIP10CComponentEEEENS_19__allocation_resultINS_16allocator_traitsIT_E7pointerEEERS7_m, symObjAddr: 0x16BA8, symBinAddr: 0x100019A30, symSize: 0x28C }
  - { offsetInCU: 0xE876, offset: 0xE876, size: 0x8, addend: 0x0, symName: __ZNSt3__142__uninitialized_allocator_move_if_noexceptB7v160006INS_9allocatorIP10CComponentEENS_16reverse_iteratorIPS3_EES7_S3_vEET1_RT_T0_SB_S8_, symObjAddr: 0x17110, symBinAddr: 0x100019F98, symSize: 0x4A8 }
  - { offsetInCU: 0xE900, offset: 0xE900, size: 0x8, addend: 0x0, symName: __ZNSt3__14swapB7v160006IPP10CComponentEENS_9enable_ifIXaasr21is_move_constructibleIT_EE5valuesr18is_move_assignableIS5_EE5valueEvE4typeERS5_S8_, symObjAddr: 0x17650, symBinAddr: 0x10001A4D8, symSize: 0x134 }
  - { offsetInCU: 0xE951, offset: 0xE951, size: 0x8, addend: 0x0, symName: __ZNSt3__125__debug_db_invalidate_allB7v160006INS_6vectorIP10CComponentNS_9allocatorIS3_EEEEEEvPT_, symObjAddr: 0x17844, symBinAddr: 0x10001A6CC, symSize: 0x10 }
  - { offsetInCU: 0xE982, offset: 0xE982, size: 0x8, addend: 0x0, symName: __ZNSt3__14moveB7v160006INS_16reverse_iteratorIPP10CComponentEES5_EET0_T_S7_S6_, symObjAddr: 0x17854, symBinAddr: 0x10001A6DC, symSize: 0x4B0 }
  - { offsetInCU: 0xE9E9, offset: 0xE9E9, size: 0x8, addend: 0x0, symName: __ZNSt3__16__moveB7v160006INS_17_ClassicAlgPolicyENS_16reverse_iteratorIPP10CComponentEES6_S6_EENS_4pairIT0_T2_EES8_T1_S9_, symObjAddr: 0x17D04, symBinAddr: 0x10001AB8C, symSize: 0x424 }
  - { offsetInCU: 0xEA61, offset: 0xEA61, size: 0x8, addend: 0x0, symName: __ZNSt3__123__dispatch_copy_or_moveB7v160006INS_17_ClassicAlgPolicyENS_11__move_loopIS1_EENS_14__move_trivialENS_16reverse_iteratorIPP10CComponentEES9_S9_EENS_4pairIT2_T4_EESB_T3_SC_, symObjAddr: 0x18128, symBinAddr: 0x10001AFB0, symSize: 0x424 }
  - { offsetInCU: 0xEAEB, offset: 0xEAEB, size: 0x8, addend: 0x0, symName: __ZNSt3__121__unwrap_and_dispatchB7v160006INS_10__overloadINS_11__move_loopINS_17_ClassicAlgPolicyEEENS_14__move_trivialEEENS_16reverse_iteratorIPP10CComponentEESB_SB_Li0EEENS_4pairIT0_T2_EESD_T1_SE_, symObjAddr: 0x1854C, symBinAddr: 0x10001B3D4, symSize: 0x880 }
  - { offsetInCU: 0xEB8F, offset: 0xEB8F, size: 0x8, addend: 0x0, symName: __ZNSt3__114__unwrap_rangeB7v160006INS_16reverse_iteratorIPP10CComponentEES5_EEDaT_T0_, symObjAddr: 0x18DCC, symBinAddr: 0x10001BC54, symSize: 0x35C }
  - { offsetInCU: 0xECB7, offset: 0xECB7, size: 0x8, addend: 0x0, symName: __ZNSt3__113__unwrap_iterB7v160006INS_16reverse_iteratorIPP10CComponentEENS_18__unwrap_iter_implIS5_Lb0EEELi0EEEDTclsrT0_8__unwrapclsr3stdE7declvalIT_EEEES9_, symObjAddr: 0x194D0, symBinAddr: 0x10001C358, symSize: 0x2EC }
  - { offsetInCU: 0xECFF, offset: 0xECFF, size: 0x8, addend: 0x0, symName: __ZNSt3__19make_pairB7v160006INS_16reverse_iteratorIPP10CComponentEES5_EENS_4pairINS_18__unwrap_ref_decayIT_E4typeENS7_IT0_E4typeEEEOS8_OSB_, symObjAddr: 0x197BC, symBinAddr: 0x10001C644, symSize: 0x38 }
  - { offsetInCU: 0xED4E, offset: 0xED4E, size: 0x8, addend: 0x0, symName: __ZNSt3__114__rewrap_rangeB7v160006INS_16reverse_iteratorIPP10CComponentEES5_S5_EET0_S6_T1_, symObjAddr: 0x197F4, symBinAddr: 0x10001C67C, symSize: 0x3D4 }
  - { offsetInCU: 0xEDAB, offset: 0xEDAB, size: 0x8, addend: 0x0, symName: __ZNSt3__113__rewrap_iterB7v160006INS_16reverse_iteratorIPP10CComponentEES5_NS_18__unwrap_iter_implIS5_Lb0EEEEET_S8_T0_, symObjAddr: 0x19BC8, symBinAddr: 0x10001CA50, symSize: 0x3E8 }
  - { offsetInCU: 0xEE58, offset: 0xEE58, size: 0x8, addend: 0x0, symName: __ZNSt3__1neB7v160006IPP10CComponentS3_EEbRKNS_16reverse_iteratorIT_EERKNS4_IT0_EE, symObjAddr: 0x1A488, symBinAddr: 0x10001D310, symSize: 0x48 }
  - { offsetInCU: 0xEF10, offset: 0xEF10, size: 0x8, addend: 0x0, symName: __ZNSt3__110destroy_atB7v160006IP10CComponentLi0EEEvPT_, symObjAddr: 0x1B378, symBinAddr: 0x10001E200, symSize: 0x24 }
  - { offsetInCU: 0xEF47, offset: 0xEF47, size: 0x8, addend: 0x0, symName: __ZNSt3__112__destroy_atB7v160006IP10CComponentLi0EEEvPT_, symObjAddr: 0x1B39C, symBinAddr: 0x10001E224, symSize: 0x10 }
  - { offsetInCU: 0xEF7E, offset: 0xEF7E, size: 0x8, addend: 0x0, symName: __ZNSt3__118__debug_db_erase_cB7v160006INS_6vectorIP10CComponentNS_9allocatorIS3_EEEEEEvPT_, symObjAddr: 0x1B944, symBinAddr: 0x10001E7CC, symSize: 0x10 }
  - { offsetInCU: 0xEFAF, offset: 0xEFAF, size: 0x8, addend: 0x0, symName: __ZNSt3__112construct_atB7v160006INS_12basic_stringIcNS_11char_traitsIcEENS_9allocatorIcEEEEJRKS6_EPS6_EEPT_SB_DpOT0_, symObjAddr: 0x1C950, symBinAddr: 0x10001F7D8, symSize: 0x3C }
  - { offsetInCU: 0xF01F, offset: 0xF01F, size: 0x8, addend: 0x0, symName: __ZNSt3__142__uninitialized_allocator_move_if_noexceptB7v160006INS_9allocatorINS_12basic_stringIcNS_11char_traitsIcEENS1_IcEEEEEENS_16reverse_iteratorIPS6_EESA_SA_EET2_RT_T0_T1_SB_, symObjAddr: 0x1DA14, symBinAddr: 0x10002089C, symSize: 0x53C }
  - { offsetInCU: 0xF0D4, offset: 0xF0D4, size: 0x8, addend: 0x0, symName: __ZNSt3__14swapB7v160006IPNS_12basic_stringIcNS_11char_traitsIcEENS_9allocatorIcEEEEEENS_9enable_ifIXaasr21is_move_constructibleIT_EE5valuesr18is_move_assignableIS9_EE5valueEvE4typeERS9_SC_, symObjAddr: 0x1DF50, symBinAddr: 0x100020DD8, symSize: 0x134 }
  - { offsetInCU: 0xF125, offset: 0xF125, size: 0x8, addend: 0x0, symName: __ZNSt3__125__debug_db_invalidate_allB7v160006INS_6vectorINS_12basic_stringIcNS_11char_traitsIcEENS_9allocatorIcEEEENS5_IS7_EEEEEEvPT_, symObjAddr: 0x1E084, symBinAddr: 0x100020F0C, symSize: 0x10 }
  - { offsetInCU: 0xF156, offset: 0xF156, size: 0x8, addend: 0x0, symName: __ZNSt3__122__make_exception_guardB7v160006INS_29_AllocatorDestroyRangeReverseINS_9allocatorINS_12basic_stringIcNS_11char_traitsIcEENS2_IcEEEEEENS_16reverse_iteratorIPS7_EEEEEENS_28__exception_guard_exceptionsIT_EESE_, symObjAddr: 0x1E094, symBinAddr: 0x100020F1C, symSize: 0x1F8 }
  - { offsetInCU: 0xF18D, offset: 0xF18D, size: 0x8, addend: 0x0, symName: __ZNSt3__112construct_atB7v160006INS_12basic_stringIcNS_11char_traitsIcEENS_9allocatorIcEEEEJS6_EPS6_EEPT_S9_DpOT0_, symObjAddr: 0x1E608, symBinAddr: 0x100021490, symSize: 0x3C }
  - { offsetInCU: 0xF1FD, offset: 0xF1FD, size: 0x8, addend: 0x0, symName: __ZNSt3__115__debug_db_swapB7v160006INS_12basic_stringIcNS_11char_traitsIcEENS_9allocatorIcEEEEEEvPT_S8_, symObjAddr: 0x1E928, symBinAddr: 0x1000217B0, symSize: 0x14 }
  - { offsetInCU: 0xF23C, offset: 0xF23C, size: 0x8, addend: 0x0, symName: __ZNSt3__119__allocator_destroyB7v160006INS_9allocatorINS_12basic_stringIcNS_11char_traitsIcEENS1_IcEEEEEENS_16reverse_iteratorINS8_IPS6_EEEESB_EEvRT_T0_T1_, symObjAddr: 0x1EDA0, symBinAddr: 0x100021C28, symSize: 0x70 }
  - { offsetInCU: 0xF2A1, offset: 0xF2A1, size: 0x8, addend: 0x0, symName: __ZNSt3__1neB7v160006INS_16reverse_iteratorIPNS_12basic_stringIcNS_11char_traitsIcEENS_9allocatorIcEEEEEES9_EEbRKNS1_IT_EERKNS1_IT0_EE, symObjAddr: 0x1F058, symBinAddr: 0x100021EE0, symSize: 0x2CC }
  - { offsetInCU: 0xF2EF, offset: 0xF2EF, size: 0x8, addend: 0x0, symName: __ZNSt3__112__to_addressB7v160006INS_16reverse_iteratorINS1_IPNS_12basic_stringIcNS_11char_traitsIcEENS_9allocatorIcEEEEEEEEvEENS_5decayIDTclsr19__to_address_helperIT_EE6__callclsr3stdE7declvalIRKSC_EEEEE4typeESE_, symObjAddr: 0x1F324, symBinAddr: 0x1000221AC, symSize: 0x24 }
  - { offsetInCU: 0xF34E, offset: 0xF34E, size: 0x8, addend: 0x0, symName: __ZNSt3__14prevB7v160006INS_16reverse_iteratorIPNS_12basic_stringIcNS_11char_traitsIcEENS_9allocatorIcEEEEEEEENS_9enable_ifIXsr25__is_cpp17_input_iteratorIT_EE5valueESB_E4typeESB_NS_15iterator_traitsISB_E15difference_typeE, symObjAddr: 0x1F868, symBinAddr: 0x1000226F0, symSize: 0x2B0 }
  - { offsetInCU: 0xF396, offset: 0xF396, size: 0x8, addend: 0x0, symName: __ZNSt3__19__advanceB7v160006INS_16reverse_iteratorIPNS_12basic_stringIcNS_11char_traitsIcEENS_9allocatorIcEEEEEEEEvRT_NS_15iterator_traitsISA_E15difference_typeENS_26random_access_iterator_tagE, symObjAddr: 0x1FB68, symBinAddr: 0x1000229F0, symSize: 0x2C }
  - { offsetInCU: 0xF3DF, offset: 0xF3DF, size: 0x8, addend: 0x0, symName: __ZNSt3__119__debug_db_insert_cB7v160006INS_6vectorINS_4pairIiNS_12basic_stringIcNS_11char_traitsIcEENS_9allocatorIcEEEEEENS6_IS9_EEEEEEvPT_, symObjAddr: 0x21404, symBinAddr: 0x10002428C, symSize: 0x10 }
  - { offsetInCU: 0xF410, offset: 0xF410, size: 0x8, addend: 0x0, symName: __ZNSt3__122__make_exception_guardB7v160006INS_6vectorINS_4pairIiNS_12basic_stringIcNS_11char_traitsIcEENS_9allocatorIcEEEEEENS6_IS9_EEE16__destroy_vectorEEENS_28__exception_guard_exceptionsIT_EESE_, symObjAddr: 0x21C2C, symBinAddr: 0x100024AB4, symSize: 0x278 }
  - { offsetInCU: 0xF449, offset: 0xF449, size: 0x8, addend: 0x0, symName: __ZNSt3__119__allocate_at_leastB7v160006INS_9allocatorINS_4pairIiNS_12basic_stringIcNS_11char_traitsIcEENS1_IcEEEEEEEEEENS_19__allocation_resultINS_16allocator_traitsIT_E7pointerEEERSC_m, symObjAddr: 0x2309C, symBinAddr: 0x100025F24, symSize: 0x28C }
  - { offsetInCU: 0xF48E, offset: 0xF48E, size: 0x8, addend: 0x0, symName: __ZNSt3__112__to_addressB7v160006INS_4pairIiNS_12basic_stringIcNS_11char_traitsIcEENS_9allocatorIcEEEEEEEEPT_SA_, symObjAddr: 0x236A4, symBinAddr: 0x10002652C, symSize: 0x14 }
  - { offsetInCU: 0xF4C3, offset: 0xF4C3, size: 0x8, addend: 0x0, symName: __ZNSt3__130__uninitialized_allocator_copyB7v160006INS_9allocatorINS_4pairIiNS_12basic_stringIcNS_11char_traitsIcEENS1_IcEEEEEEEEPS8_SA_SA_EET2_RT_T0_T1_SB_, symObjAddr: 0x23754, symBinAddr: 0x1000265DC, symSize: 0x520 }
  - { offsetInCU: 0xF56F, offset: 0xF56F, size: 0x8, addend: 0x0, symName: __ZNSt3__122__make_exception_guardB7v160006INS_29_AllocatorDestroyRangeReverseINS_9allocatorINS_4pairIiNS_12basic_stringIcNS_11char_traitsIcEENS2_IcEEEEEEEEPS9_EEEENS_28__exception_guard_exceptionsIT_EESE_, symObjAddr: 0x23F48, symBinAddr: 0x100026DD0, symSize: 0x1F8 }
  - { offsetInCU: 0xF5CB, offset: 0xF5CB, size: 0x8, addend: 0x0, symName: __ZNSt3__112construct_atB7v160006INS_4pairIiNS_12basic_stringIcNS_11char_traitsIcEENS_9allocatorIcEEEEEEJRS8_EPS8_EEPT_SC_DpOT0_, symObjAddr: 0x24448, symBinAddr: 0x1000272D0, symSize: 0x3C }
  - { offsetInCU: 0xF63B, offset: 0xF63B, size: 0x8, addend: 0x0, symName: __ZNSt3__119__allocator_destroyB7v160006INS_9allocatorINS_4pairIiNS_12basic_stringIcNS_11char_traitsIcEENS1_IcEEEEEEEENS_16reverse_iteratorIPS8_EESC_EEvRT_T0_T1_, symObjAddr: 0x24A24, symBinAddr: 0x1000278AC, symSize: 0x2B8 }
  - { offsetInCU: 0xF6A7, offset: 0xF6A7, size: 0x8, addend: 0x0, symName: __ZNSt3__1neB7v160006IPNS_4pairIiNS_12basic_stringIcNS_11char_traitsIcEENS_9allocatorIcEEEEEES9_EEbRKNS_16reverse_iteratorIT_EERKNSA_IT0_EE, symObjAddr: 0x24D10, symBinAddr: 0x100027B98, symSize: 0x48 }
  - { offsetInCU: 0xF6F3, offset: 0xF6F3, size: 0x8, addend: 0x0, symName: __ZNSt3__112__to_addressB7v160006INS_16reverse_iteratorIPNS_4pairIiNS_12basic_stringIcNS_11char_traitsIcEENS_9allocatorIcEEEEEEEEvEENS_5decayIDTclsr19__to_address_helperIT_EE6__callclsr3stdE7declvalIRKSD_EEEEE4typeESF_, symObjAddr: 0x24D80, symBinAddr: 0x100027C08, symSize: 0x24 }
  - { offsetInCU: 0xF729, offset: 0xF729, size: 0x8, addend: 0x0, symName: __ZNSt3__110destroy_atB7v160006INS_4pairIiNS_12basic_stringIcNS_11char_traitsIcEENS_9allocatorIcEEEEEELi0EEEvPT_, symObjAddr: 0x24E74, symBinAddr: 0x100027CFC, symSize: 0x24 }
  - { offsetInCU: 0xF760, offset: 0xF760, size: 0x8, addend: 0x0, symName: __ZNSt3__112__destroy_atB7v160006INS_4pairIiNS_12basic_stringIcNS_11char_traitsIcEENS_9allocatorIcEEEEEELi0EEEvPT_, symObjAddr: 0x24E98, symBinAddr: 0x100027D20, symSize: 0x24 }
  - { offsetInCU: 0xF7C0, offset: 0xF7C0, size: 0x8, addend: 0x0, symName: __ZNSt3__14prevB7v160006IPNS_4pairIiNS_12basic_stringIcNS_11char_traitsIcEENS_9allocatorIcEEEEEEEENS_9enable_ifIXsr25__is_cpp17_input_iteratorIT_EE5valueESB_E4typeESB_NS_15iterator_traitsISB_E15difference_typeE, symObjAddr: 0x24FC8, symBinAddr: 0x100027E50, symSize: 0x25C }
  - { offsetInCU: 0xF808, offset: 0xF808, size: 0x8, addend: 0x0, symName: __ZNSt3__19__advanceB7v160006IPNS_4pairIiNS_12basic_stringIcNS_11char_traitsIcEENS_9allocatorIcEEEEEEEEvRT_NS_15iterator_traitsISA_E15difference_typeENS_26random_access_iterator_tagE, symObjAddr: 0x25274, symBinAddr: 0x1000280FC, symSize: 0x78 }
  - { offsetInCU: 0xF851, offset: 0xF851, size: 0x8, addend: 0x0, symName: __ZNSt3__118__debug_db_erase_cB7v160006INS_6vectorINS_4pairIiNS_12basic_stringIcNS_11char_traitsIcEENS_9allocatorIcEEEEEENS6_IS9_EEEEEEvPT_, symObjAddr: 0x25AD0, symBinAddr: 0x100028958, symSize: 0x10 }
  - { offsetInCU: 0xF882, offset: 0xF882, size: 0x8, addend: 0x0, symName: __ZNSt3__112construct_atB7v160006INS_4pairIiNS_12basic_stringIcNS_11char_traitsIcEENS_9allocatorIcEEEEEEJRiRKS7_EPS8_EEPT_SE_DpOT0_, symObjAddr: 0x26614, symBinAddr: 0x10002949C, symSize: 0x44 }
  - { offsetInCU: 0xF905, offset: 0xF905, size: 0x8, addend: 0x0, symName: __ZNSt3__142__uninitialized_allocator_move_if_noexceptB7v160006INS_9allocatorINS_4pairIiNS_12basic_stringIcNS_11char_traitsIcEENS1_IcEEEEEEEENS_16reverse_iteratorIPS8_EESC_SC_EET2_RT_T0_T1_SD_, symObjAddr: 0x27820, symBinAddr: 0x10002A6A8, symSize: 0x53C }
  - { offsetInCU: 0xF9BA, offset: 0xF9BA, size: 0x8, addend: 0x0, symName: __ZNSt3__14swapB7v160006IPNS_4pairIiNS_12basic_stringIcNS_11char_traitsIcEENS_9allocatorIcEEEEEEEENS_9enable_ifIXaasr21is_move_constructibleIT_EE5valuesr18is_move_assignableISB_EE5valueEvE4typeERSB_SE_, symObjAddr: 0x27D5C, symBinAddr: 0x10002ABE4, symSize: 0x134 }
  - { offsetInCU: 0xFA0B, offset: 0xFA0B, size: 0x8, addend: 0x0, symName: __ZNSt3__125__debug_db_invalidate_allB7v160006INS_6vectorINS_4pairIiNS_12basic_stringIcNS_11char_traitsIcEENS_9allocatorIcEEEEEENS6_IS9_EEEEEEvPT_, symObjAddr: 0x27E90, symBinAddr: 0x10002AD18, symSize: 0x10 }
  - { offsetInCU: 0xFA3C, offset: 0xFA3C, size: 0x8, addend: 0x0, symName: __ZNSt3__122__make_exception_guardB7v160006INS_29_AllocatorDestroyRangeReverseINS_9allocatorINS_4pairIiNS_12basic_stringIcNS_11char_traitsIcEENS2_IcEEEEEEEENS_16reverse_iteratorIPS9_EEEEEENS_28__exception_guard_exceptionsIT_EESG_, symObjAddr: 0x27EA0, symBinAddr: 0x10002AD28, symSize: 0x1F8 }
  - { offsetInCU: 0xFA73, offset: 0xFA73, size: 0x8, addend: 0x0, symName: __ZNSt3__112construct_atB7v160006INS_4pairIiNS_12basic_stringIcNS_11char_traitsIcEENS_9allocatorIcEEEEEEJS8_EPS8_EEPT_SB_DpOT0_, symObjAddr: 0x28414, symBinAddr: 0x10002B29C, symSize: 0x3C }
  - { offsetInCU: 0xFAE3, offset: 0xFAE3, size: 0x8, addend: 0x0, symName: __ZNSt3__119__allocator_destroyB7v160006INS_9allocatorINS_4pairIiNS_12basic_stringIcNS_11char_traitsIcEENS1_IcEEEEEEEENS_16reverse_iteratorINSA_IPS8_EEEESD_EEvRT_T0_T1_, symObjAddr: 0x289FC, symBinAddr: 0x10002B884, symSize: 0x70 }
  - { offsetInCU: 0xFB48, offset: 0xFB48, size: 0x8, addend: 0x0, symName: __ZNSt3__1neB7v160006INS_16reverse_iteratorIPNS_4pairIiNS_12basic_stringIcNS_11char_traitsIcEENS_9allocatorIcEEEEEEEESB_EEbRKNS1_IT_EERKNS1_IT0_EE, symObjAddr: 0x28CB4, symBinAddr: 0x10002BB3C, symSize: 0x2CC }
  - { offsetInCU: 0xFB96, offset: 0xFB96, size: 0x8, addend: 0x0, symName: __ZNSt3__112__to_addressB7v160006INS_16reverse_iteratorINS1_IPNS_4pairIiNS_12basic_stringIcNS_11char_traitsIcEENS_9allocatorIcEEEEEEEEEEvEENS_5decayIDTclsr19__to_address_helperIT_EE6__callclsr3stdE7declvalIRKSE_EEEEE4typeESG_, symObjAddr: 0x28F80, symBinAddr: 0x10002BE08, symSize: 0x24 }
  - { offsetInCU: 0xFBF5, offset: 0xFBF5, size: 0x8, addend: 0x0, symName: __ZNSt3__14prevB7v160006INS_16reverse_iteratorIPNS_4pairIiNS_12basic_stringIcNS_11char_traitsIcEENS_9allocatorIcEEEEEEEEEENS_9enable_ifIXsr25__is_cpp17_input_iteratorIT_EE5valueESD_E4typeESD_NS_15iterator_traitsISD_E15difference_typeE, symObjAddr: 0x294C4, symBinAddr: 0x10002C34C, symSize: 0x2B0 }
  - { offsetInCU: 0xFC3D, offset: 0xFC3D, size: 0x8, addend: 0x0, symName: __ZNSt3__19__advanceB7v160006INS_16reverse_iteratorIPNS_4pairIiNS_12basic_stringIcNS_11char_traitsIcEENS_9allocatorIcEEEEEEEEEEvRT_NS_15iterator_traitsISC_E15difference_typeENS_26random_access_iterator_tagE, symObjAddr: 0x297C4, symBinAddr: 0x10002C64C, symSize: 0x2C }
  - { offsetInCU: 0xFC86, offset: 0xFC86, size: 0x8, addend: 0x0, symName: __ZNSt3__1neB7v160006IPP10CComponentEEbRKNS_11__wrap_iterIT_EES8_, symObjAddr: 0x2ABCC, symBinAddr: 0x10002DA54, symSize: 0x34 }
  - { offsetInCU: 0xFCC9, offset: 0xFCC9, size: 0x8, addend: 0x0, symName: __ZNSt3__1eqB7v160006IPP10CComponentEEbRKNS_11__wrap_iterIT_EES8_, symObjAddr: 0x2AF78, symBinAddr: 0x10002DE00, symSize: 0x48 }
  - { offsetInCU: 0xFD0C, offset: 0xFD0C, size: 0x8, addend: 0x0, symName: __ZNSt3__1eqB7v160006IcNS_11char_traitsIcEEEEbNS_17basic_string_viewIT_T0_EES6_, symObjAddr: 0x2B2CC, symBinAddr: 0x10002E154, symSize: 0x348 }
  - { offsetInCU: 0xFD63, offset: 0xFD63, size: 0x8, addend: 0x0, symName: __ZNSt3__118__constexpr_memcmpB7v160006IcEEiPKT_S3_m, symObjAddr: 0x2BDE0, symBinAddr: 0x10002EC68, symSize: 0x34 }
  - { offsetInCU: 0xFDB4, offset: 0xFDB4, size: 0x8, addend: 0x0, symName: __ZNSt3__128__char_traits_length_checkedB7v160006INS_11char_traitsIcEEEEmPKNT_9char_typeE, symObjAddr: 0x2BFF4, symBinAddr: 0x10002EE7C, symSize: 0x24 }
  - { offsetInCU: 0xFDE9, offset: 0xFDE9, size: 0x8, addend: 0x0, symName: __ZNSt3__1neB7v160006IPKP9CComputerEEbRKNS_11__wrap_iterIT_EES9_, symObjAddr: 0x2C9B8, symBinAddr: 0x10002F840, symSize: 0x34 }
  - { offsetInCU: 0xFE2C, offset: 0xFE2C, size: 0x8, addend: 0x0, symName: __ZNSt3__1eqB7v160006IPKP9CComputerEEbRKNS_11__wrap_iterIT_EES9_, symObjAddr: 0x2CD90, symBinAddr: 0x10002FC18, symSize: 0x48 }
  - { offsetInCU: 0xFE6F, offset: 0xFE6F, size: 0x8, addend: 0x0, symName: __ZNSt3__118__debug_db_erase_cB7v160006INS_6vectorIP9CComputerNS_9allocatorIS3_EEEEEEvPT_, symObjAddr: 0x2D338, symBinAddr: 0x1000301C0, symSize: 0x10 }
  - { offsetInCU: 0xFEA0, offset: 0xFEA0, size: 0x8, addend: 0x0, symName: __ZNSt3__1eqB7v160006INS_9allocatorIcEEEEbRKNS_12basic_stringIcNS_11char_traitsIcEET_EES9_, symObjAddr: 0x2D4C0, symBinAddr: 0x100030348, symSize: 0x234 }
  - { offsetInCU: 0xFF13, offset: 0xFF13, size: 0x8, addend: 0x0, symName: __ZNSt3__1neB7v160006IPP9CComputerEEbRKNS_11__wrap_iterIT_EES8_, symObjAddr: 0x2DF6C, symBinAddr: 0x100030DF4, symSize: 0x34 }
  - { offsetInCU: 0xFF56, offset: 0xFF56, size: 0x8, addend: 0x0, symName: __ZNSt3__1eqB7v160006IPP9CComputerEEbRKNS_11__wrap_iterIT_EES8_, symObjAddr: 0x2E318, symBinAddr: 0x1000311A0, symSize: 0x48 }
  - { offsetInCU: 0x10908, offset: 0x10908, size: 0x8, addend: 0x0, symName: __ZSt28__throw_bad_array_new_lengthB7v160006v, symObjAddr: 0xA7E0, symBinAddr: 0x10000D668, symSize: 0x38 }
  - { offsetInCU: 0x1187E, offset: 0x1187E, size: 0x8, addend: 0x0, symName: __ZNSt3__16vectorIP9CComputerNS_9allocatorIS2_EEE26__swap_out_circular_bufferERNS_14__split_bufferIS2_RS4_EE, symObjAddr: 0x8F0C, symBinAddr: 0x10000BD94, symSize: 0x574 }
  - { offsetInCU: 0x11948, offset: 0x11948, size: 0x8, addend: 0x0, symName: __ZNSt3__16vectorIP10CComponentNS_9allocatorIS2_EEE26__swap_out_circular_bufferERNS_14__split_bufferIS2_RS4_EE, symObjAddr: 0x15D08, symBinAddr: 0x100018B90, symSize: 0x574 }
  - { offsetInCU: 0x119AA, offset: 0x119AA, size: 0x8, addend: 0x0, symName: __ZNSt3__16vectorINS_12basic_stringIcNS_11char_traitsIcEENS_9allocatorIcEEEENS4_IS6_EEE26__swap_out_circular_bufferERNS_14__split_bufferIS6_RS7_EE, symObjAddr: 0x1CD54, symBinAddr: 0x10001FBDC, symSize: 0x574 }
  - { offsetInCU: 0x11A9C, offset: 0x11A9C, size: 0x8, addend: 0x0, symName: __ZNSt3__16vectorINS_4pairIiNS_12basic_stringIcNS_11char_traitsIcEENS_9allocatorIcEEEEEENS5_IS8_EEE26__swap_out_circular_bufferERNS_14__split_bufferIS8_RS9_EE, symObjAddr: 0x26B70, symBinAddr: 0x1000299F8, symSize: 0x574 }
  - { offsetInCU: 0x13D63, offset: 0x13D63, size: 0x8, addend: 0x0, symName: __ZlsRNSt3__113basic_ostreamIcNS_11char_traitsIcEEEERK8CNetwork, symObjAddr: 0x0, symBinAddr: 0x100002E88, symSize: 0x30 }
  - { offsetInCU: 0x13E79, offset: 0x13E79, size: 0x8, addend: 0x0, symName: __ZNK8CNetwork5printERNSt3__113basic_ostreamIcNS0_11char_traitsIcEEEE, symObjAddr: 0x30, symBinAddr: 0x100002EB8, symSize: 0x154 }
  - { offsetInCU: 0x13ED6, offset: 0x13ED6, size: 0x8, addend: 0x0, symName: __ZlsRNSt3__113basic_ostreamIcNS_11char_traitsIcEEEERK9CComputer, symObjAddr: 0x184, symBinAddr: 0x10000300C, symSize: 0x40 }
  - { offsetInCU: 0x13F11, offset: 0x13F11, size: 0x8, addend: 0x0, symName: __ZNK9CComputer5printERNSt3__113basic_ostreamIcNS0_11char_traitsIcEEEEbb, symObjAddr: 0x1C4, symBinAddr: 0x10000304C, symSize: 0x458 }
  - { offsetInCU: 0x13FB5, offset: 0x13FB5, size: 0x8, addend: 0x0, symName: _main, symObjAddr: 0x61C, symBinAddr: 0x1000034A4, symSize: 0x2D78 }
  - { offsetInCU: 0x14020, offset: 0x14020, size: 0x8, addend: 0x0, symName: __ZNSt3__112basic_stringIcNS_11char_traitsIcEENS_9allocatorIcEEEC1B7v160006IDnEEPKc, symObjAddr: 0x3394, symBinAddr: 0x10000621C, symSize: 0x34 }
  - { offsetInCU: 0x1405E, offset: 0x1405E, size: 0x8, addend: 0x0, symName: __ZN8CNetworkC1ERKNSt3__112basic_stringIcNS0_11char_traitsIcEENS0_9allocatorIcEEEE, symObjAddr: 0x33C8, symBinAddr: 0x100006250, symSize: 0x34 }
  - { offsetInCU: 0x14096, offset: 0x14096, size: 0x8, addend: 0x0, symName: __ZN8CNetwork11addComputerERK9CComputer, symObjAddr: 0x33FC, symBinAddr: 0x100006284, symSize: 0x2D8 }
  - { offsetInCU: 0x140CC, offset: 0x140CC, size: 0x8, addend: 0x0, symName: __ZN9CComputerC1ERKNSt3__112basic_stringIcNS0_11char_traitsIcEENS0_9allocatorIcEEEE, symObjAddr: 0x36D4, symBinAddr: 0x10000655C, symSize: 0x34 }
  - { offsetInCU: 0x14104, offset: 0x14104, size: 0x8, addend: 0x0, symName: __ZN9CComputer10addAddressERKNSt3__112basic_stringIcNS0_11char_traitsIcEENS0_9allocatorIcEEEE, symObjAddr: 0x3708, symBinAddr: 0x100006590, symSize: 0x38 }
  - { offsetInCU: 0x14138, offset: 0x14138, size: 0x8, addend: 0x0, symName: __ZN9CComputer12addComponentERK10CComponent, symObjAddr: 0x3740, symBinAddr: 0x1000065C8, symSize: 0x2A4 }
  - { offsetInCU: 0x1423D, offset: 0x1423D, size: 0x8, addend: 0x0, symName: __ZN4CCPUC1Eii, symObjAddr: 0x39E4, symBinAddr: 0x10000686C, symSize: 0x3C }
  - { offsetInCU: 0x14283, offset: 0x14283, size: 0x8, addend: 0x0, symName: __ZN5CDiskC1ENS_4TypeEi, symObjAddr: 0x3A20, symBinAddr: 0x1000068A8, symSize: 0x3C }
  - { offsetInCU: 0x142C9, offset: 0x142C9, size: 0x8, addend: 0x0, symName: __ZN5CDisk12addPartitionEiRKNSt3__112basic_stringIcNS0_11char_traitsIcEENS0_9allocatorIcEEEE, symObjAddr: 0x3A5C, symBinAddr: 0x1000068E4, symSize: 0x234 }
  - { offsetInCU: 0x14311, offset: 0x14311, size: 0x8, addend: 0x0, symName: __ZN7CMemoryC1Ei, symObjAddr: 0x3C90, symBinAddr: 0x100006B18, symSize: 0x34 }
  - { offsetInCU: 0x14349, offset: 0x14349, size: 0x8, addend: 0x0, symName: __ZN7CMemoryD1Ev, symObjAddr: 0x3CC4, symBinAddr: 0x100006B4C, symSize: 0x2C }
  - { offsetInCU: 0x14375, offset: 0x14375, size: 0x8, addend: 0x0, symName: __ZN4CCPUD1Ev, symObjAddr: 0x3CF0, symBinAddr: 0x100006B78, symSize: 0x2C }
  - { offsetInCU: 0x143A1, offset: 0x143A1, size: 0x8, addend: 0x0, symName: __ZN9CComputerD1Ev, symObjAddr: 0x3D1C, symBinAddr: 0x100006BA4, symSize: 0x2C }
  - { offsetInCU: 0x143CB, offset: 0x143CB, size: 0x8, addend: 0x0, symName: __ZN5CDiskD1Ev, symObjAddr: 0x3D48, symBinAddr: 0x100006BD0, symSize: 0x2C }
  - { offsetInCU: 0x143F6, offset: 0x143F6, size: 0x8, addend: 0x0, symName: __Z8toStringI8CNetworkENSt3__112basic_stringIcNS1_11char_traitsIcEENS1_9allocatorIcEEEERKT_, symObjAddr: 0x4060, symBinAddr: 0x100006EE8, symSize: 0x378 }
  - { offsetInCU: 0x1443F, offset: 0x1443F, size: 0x8, addend: 0x0, symName: __ZN8CNetworkC1ERKS_, symObjAddr: 0x43D8, symBinAddr: 0x100007260, symSize: 0x34 }
  - { offsetInCU: 0x14477, offset: 0x14477, size: 0x8, addend: 0x0, symName: __ZNK8CNetwork12findComputerERKNSt3__112basic_stringIcNS0_11char_traitsIcEENS0_9allocatorIcEEEE, symObjAddr: 0x440C, symBinAddr: 0x100007294, symSize: 0x418 }
  - { offsetInCU: 0x14507, offset: 0x14507, size: 0x8, addend: 0x0, symName: __Z8toStringI9CComputerENSt3__112basic_stringIcNS1_11char_traitsIcEENS1_9allocatorIcEEEERKT_, symObjAddr: 0x4824, symBinAddr: 0x1000076AC, symSize: 0x378 }
  - { offsetInCU: 0x14550, offset: 0x14550, size: 0x8, addend: 0x0, symName: __ZN8CNetworkD1Ev, symObjAddr: 0x4B9C, symBinAddr: 0x100007A24, symSize: 0x2C }
  - { offsetInCU: 0x1457A, offset: 0x1457A, size: 0x8, addend: 0x0, symName: __ZNKSt3__16vectorIP9CComputerNS_9allocatorIS2_EEE4sizeB7v160006Ev, symObjAddr: 0x4C5C, symBinAddr: 0x100007AE4, symSize: 0xB0 }
  - { offsetInCU: 0x145A0, offset: 0x145A0, size: 0x8, addend: 0x0, symName: __ZNKSt3__16vectorIP9CComputerNS_9allocatorIS2_EEEixB7v160006Em, symObjAddr: 0x4D0C, symBinAddr: 0x100007B94, symSize: 0x6C }
  - { offsetInCU: 0x145D7, offset: 0x145D7, size: 0x8, addend: 0x0, symName: __ZNSt3__111char_traitsIcE6lengthEPKc, symObjAddr: 0x54BC, symBinAddr: 0x100008344, symSize: 0x40 }
  - { offsetInCU: 0x1461D, offset: 0x1461D, size: 0x8, addend: 0x0, symName: __ZNKSt3__113basic_ostreamIcNS_11char_traitsIcEEE6sentrycvbB7v160006Ev, symObjAddr: 0x54FC, symBinAddr: 0x100008384, symSize: 0x88 }
  - { offsetInCU: 0x14643, offset: 0x14643, size: 0x8, addend: 0x0, symName: __ZNSt3__119ostreambuf_iteratorIcNS_11char_traitsIcEEEC1B7v160006ERNS_13basic_ostreamIcS2_EE, symObjAddr: 0x5CE4, symBinAddr: 0x100008B6C, symSize: 0x34 }
  - { offsetInCU: 0x1467B, offset: 0x1467B, size: 0x8, addend: 0x0, symName: __ZNKSt3__18ios_base5flagsB7v160006Ev, symObjAddr: 0x5D18, symBinAddr: 0x100008BA0, symSize: 0x8C }
  - { offsetInCU: 0x146A3, offset: 0x146A3, size: 0x8, addend: 0x0, symName: __ZNKSt3__19basic_iosIcNS_11char_traitsIcEEE4fillB7v160006Ev, symObjAddr: 0x5DA4, symBinAddr: 0x100008C2C, symSize: 0x198 }
  - { offsetInCU: 0x146CB, offset: 0x146CB, size: 0x8, addend: 0x0, symName: __ZNKSt3__119ostreambuf_iteratorIcNS_11char_traitsIcEEE6failedB7v160006Ev, symObjAddr: 0x5F3C, symBinAddr: 0x100008DC4, symSize: 0x6C }
  - { offsetInCU: 0x146F1, offset: 0x146F1, size: 0x8, addend: 0x0, symName: __ZNSt3__19basic_iosIcNS_11char_traitsIcEEE8setstateB7v160006Ej, symObjAddr: 0x5FA8, symBinAddr: 0x100008E30, symSize: 0x2C }
  - { offsetInCU: 0x14726, offset: 0x14726, size: 0x8, addend: 0x0, symName: __ZNKSt3__18ios_base5widthB7v160006Ev, symObjAddr: 0x5FE0, symBinAddr: 0x100008E68, symSize: 0x64 }
  - { offsetInCU: 0x1474E, offset: 0x1474E, size: 0x8, addend: 0x0, symName: __ZNSt3__115basic_streambufIcNS_11char_traitsIcEEE5sputnB7v160006EPKcl, symObjAddr: 0x6044, symBinAddr: 0x100008ECC, symSize: 0xC8 }
  - { offsetInCU: 0x14790, offset: 0x14790, size: 0x8, addend: 0x0, symName: __ZNSt3__112basic_stringIcNS_11char_traitsIcEENS_9allocatorIcEEEC1B7v160006Emc, symObjAddr: 0x610C, symBinAddr: 0x100008F94, symSize: 0x3C }
  - { offsetInCU: 0x147D8, offset: 0x147D8, size: 0x8, addend: 0x0, symName: __ZNSt3__112basic_stringIcNS_11char_traitsIcEENS_9allocatorIcEEE4dataB7v160006Ev, symObjAddr: 0x6148, symBinAddr: 0x100008FD0, symSize: 0x28 }
  - { offsetInCU: 0x147FE, offset: 0x147FE, size: 0x8, addend: 0x0, symName: __ZNSt3__18ios_base5widthB7v160006El, symObjAddr: 0x6170, symBinAddr: 0x100008FF8, symSize: 0xB8 }
  - { offsetInCU: 0x14844, offset: 0x14844, size: 0x8, addend: 0x0, symName: __ZNSt3__112basic_stringIcNS_11char_traitsIcEENS_9allocatorIcEEEC2B7v160006Emc, symObjAddr: 0x6228, symBinAddr: 0x1000090B0, symSize: 0x20C }
  - { offsetInCU: 0x14895, offset: 0x14895, size: 0x8, addend: 0x0, symName: __ZNSt3__117__compressed_pairINS_12basic_stringIcNS_11char_traitsIcEENS_9allocatorIcEEE5__repES5_EC1B7v160006INS_18__default_init_tagESA_EEOT_OT0_, symObjAddr: 0x6434, symBinAddr: 0x1000092BC, symSize: 0x3C }
  - { offsetInCU: 0x148ED, offset: 0x148ED, size: 0x8, addend: 0x0, symName: __ZNSt3__117__compressed_pairINS_12basic_stringIcNS_11char_traitsIcEENS_9allocatorIcEEE5__repES5_EC2B7v160006INS_18__default_init_tagESA_EEOT_OT0_, symObjAddr: 0x6480, symBinAddr: 0x100009308, symSize: 0x3C }
  - { offsetInCU: 0x14945, offset: 0x14945, size: 0x8, addend: 0x0, symName: __ZNSt3__122__compressed_pair_elemINS_12basic_stringIcNS_11char_traitsIcEENS_9allocatorIcEEE5__repELi0ELb0EEC2B7v160006ENS_18__default_init_tagE, symObjAddr: 0x64BC, symBinAddr: 0x100009344, symSize: 0x14 }
  - { offsetInCU: 0x14979, offset: 0x14979, size: 0x8, addend: 0x0, symName: __ZNSt3__122__compressed_pair_elemINS_9allocatorIcEELi1ELb1EEC2B7v160006ENS_18__default_init_tagE, symObjAddr: 0x64D0, symBinAddr: 0x100009358, symSize: 0x2C }
  - { offsetInCU: 0x149AD, offset: 0x149AD, size: 0x8, addend: 0x0, symName: __ZNSt3__19allocatorIcEC2B7v160006Ev, symObjAddr: 0x64FC, symBinAddr: 0x100009384, symSize: 0x2C }
  - { offsetInCU: 0x149D7, offset: 0x149D7, size: 0x8, addend: 0x0, symName: __ZNSt3__116__non_trivial_ifILb1ENS_9allocatorIcEEEC2B7v160006Ev, symObjAddr: 0x6528, symBinAddr: 0x1000093B0, symSize: 0x14 }
  - { offsetInCU: 0x14A01, offset: 0x14A01, size: 0x8, addend: 0x0, symName: __ZNSt3__112basic_stringIcNS_11char_traitsIcEENS_9allocatorIcEEE13__get_pointerB7v160006Ev, symObjAddr: 0x6550, symBinAddr: 0x1000093D8, symSize: 0x54 }
  - { offsetInCU: 0x14A27, offset: 0x14A27, size: 0x8, addend: 0x0, symName: __ZNKSt3__112basic_stringIcNS_11char_traitsIcEENS_9allocatorIcEEE9__is_longB7v160006Ev, symObjAddr: 0x65A4, symBinAddr: 0x10000942C, symSize: 0xA4 }
  - { offsetInCU: 0x14A4D, offset: 0x14A4D, size: 0x8, addend: 0x0, symName: __ZNSt3__112basic_stringIcNS_11char_traitsIcEENS_9allocatorIcEEE18__get_long_pointerB7v160006Ev, symObjAddr: 0x6648, symBinAddr: 0x1000094D0, symSize: 0x6C }
  - { offsetInCU: 0x14A73, offset: 0x14A73, size: 0x8, addend: 0x0, symName: __ZNSt3__112basic_stringIcNS_11char_traitsIcEENS_9allocatorIcEEE19__get_short_pointerB7v160006Ev, symObjAddr: 0x66B4, symBinAddr: 0x10000953C, symSize: 0x28 }
  - { offsetInCU: 0x14A99, offset: 0x14A99, size: 0x8, addend: 0x0, symName: __ZNKSt3__117__compressed_pairINS_12basic_stringIcNS_11char_traitsIcEENS_9allocatorIcEEE5__repES5_E5firstB7v160006Ev, symObjAddr: 0x66DC, symBinAddr: 0x100009564, symSize: 0x24 }
  - { offsetInCU: 0x14ABF, offset: 0x14ABF, size: 0x8, addend: 0x0, symName: __ZNKSt3__122__compressed_pair_elemINS_12basic_stringIcNS_11char_traitsIcEENS_9allocatorIcEEE5__repELi0ELb0EE5__getB7v160006Ev, symObjAddr: 0x6700, symBinAddr: 0x100009588, symSize: 0x14 }
  - { offsetInCU: 0x14AE5, offset: 0x14AE5, size: 0x8, addend: 0x0, symName: __ZNSt3__117__compressed_pairINS_12basic_stringIcNS_11char_traitsIcEENS_9allocatorIcEEE5__repES5_E5firstB7v160006Ev, symObjAddr: 0x6714, symBinAddr: 0x10000959C, symSize: 0x24 }
  - { offsetInCU: 0x14B0B, offset: 0x14B0B, size: 0x8, addend: 0x0, symName: __ZNSt3__122__compressed_pair_elemINS_12basic_stringIcNS_11char_traitsIcEENS_9allocatorIcEEE5__repELi0ELb0EE5__getB7v160006Ev, symObjAddr: 0x6738, symBinAddr: 0x1000095C0, symSize: 0x14 }
  - { offsetInCU: 0x14B31, offset: 0x14B31, size: 0x8, addend: 0x0, symName: __ZNSt3__114pointer_traitsIPcE10pointer_toB7v160006ERc, symObjAddr: 0x674C, symBinAddr: 0x1000095D4, symSize: 0x14 }
  - { offsetInCU: 0x14B54, offset: 0x14B54, size: 0x8, addend: 0x0, symName: __ZNSt3__119ostreambuf_iteratorIcNS_11char_traitsIcEEEC2B7v160006ERNS_13basic_ostreamIcS2_EE, symObjAddr: 0x6760, symBinAddr: 0x1000095E8, symSize: 0x10C }
  - { offsetInCU: 0x14B8C, offset: 0x14B8C, size: 0x8, addend: 0x0, symName: __ZNKSt3__19basic_iosIcNS_11char_traitsIcEEE5rdbufB7v160006Ev, symObjAddr: 0x686C, symBinAddr: 0x1000096F4, symSize: 0x24 }
  - { offsetInCU: 0x14BB4, offset: 0x14BB4, size: 0x8, addend: 0x0, symName: __ZNKSt3__18ios_base5rdbufB7v160006Ev, symObjAddr: 0x6890, symBinAddr: 0x100009718, symSize: 0x64 }
  - { offsetInCU: 0x14BDA, offset: 0x14BDA, size: 0x8, addend: 0x0, symName: __ZNSt3__111char_traitsIcE11eq_int_typeEii, symObjAddr: 0x68F4, symBinAddr: 0x10000977C, symSize: 0x28 }
  - { offsetInCU: 0x14C0B, offset: 0x14C0B, size: 0x8, addend: 0x0, symName: __ZNSt3__111char_traitsIcE3eofEv, symObjAddr: 0x691C, symBinAddr: 0x1000097A4, symSize: 0x8 }
  - { offsetInCU: 0x14C1F, offset: 0x14C1F, size: 0x8, addend: 0x0, symName: __ZNKSt3__19basic_iosIcNS_11char_traitsIcEEE5widenB7v160006Ec, symObjAddr: 0x6924, symBinAddr: 0x1000097AC, symSize: 0x2A4 }
  - { offsetInCU: 0x14C96, offset: 0x14C96, size: 0x8, addend: 0x0, symName: __ZNKSt3__15ctypeIcE5widenB7v160006Ec, symObjAddr: 0x6BF4, symBinAddr: 0x100009A7C, symSize: 0xBC }
  - { offsetInCU: 0x14CCB, offset: 0x14CCB, size: 0x8, addend: 0x0, symName: __ZNSt3__18ios_base8setstateB7v160006Ej, symObjAddr: 0x6CB0, symBinAddr: 0x100009B38, symSize: 0x9C }
  - { offsetInCU: 0x14D02, offset: 0x14D02, size: 0x8, addend: 0x0, symName: __ZNKSt3__112basic_stringIcNS_11char_traitsIcEENS_9allocatorIcEEE4dataB7v160006Ev, symObjAddr: 0x6D70, symBinAddr: 0x100009BF8, symSize: 0x28 }
  - { offsetInCU: 0x14D28, offset: 0x14D28, size: 0x8, addend: 0x0, symName: __ZNKSt3__112basic_stringIcNS_11char_traitsIcEENS_9allocatorIcEEE4sizeB7v160006Ev, symObjAddr: 0x6D98, symBinAddr: 0x100009C20, symSize: 0x54 }
  - { offsetInCU: 0x14D4E, offset: 0x14D4E, size: 0x8, addend: 0x0, symName: __ZNKSt3__112basic_stringIcNS_11char_traitsIcEENS_9allocatorIcEEE13__get_pointerB7v160006Ev, symObjAddr: 0x6E00, symBinAddr: 0x100009C88, symSize: 0x54 }
  - { offsetInCU: 0x14D74, offset: 0x14D74, size: 0x8, addend: 0x0, symName: __ZNKSt3__112basic_stringIcNS_11char_traitsIcEENS_9allocatorIcEEE18__get_long_pointerB7v160006Ev, symObjAddr: 0x6E54, symBinAddr: 0x100009CDC, symSize: 0x6C }
  - { offsetInCU: 0x14D9A, offset: 0x14D9A, size: 0x8, addend: 0x0, symName: __ZNKSt3__112basic_stringIcNS_11char_traitsIcEENS_9allocatorIcEEE19__get_short_pointerB7v160006Ev, symObjAddr: 0x6EC0, symBinAddr: 0x100009D48, symSize: 0x28 }
  - { offsetInCU: 0x14DC0, offset: 0x14DC0, size: 0x8, addend: 0x0, symName: __ZNSt3__114pointer_traitsIPKcE10pointer_toB7v160006ERS1_, symObjAddr: 0x6EE8, symBinAddr: 0x100009D70, symSize: 0x14 }
  - { offsetInCU: 0x14DE3, offset: 0x14DE3, size: 0x8, addend: 0x0, symName: __ZNKSt3__112basic_stringIcNS_11char_traitsIcEENS_9allocatorIcEEE15__get_long_sizeB7v160006Ev, symObjAddr: 0x6EFC, symBinAddr: 0x100009D84, symSize: 0x70 }
  - { offsetInCU: 0x14E09, offset: 0x14E09, size: 0x8, addend: 0x0, symName: __ZNKSt3__112basic_stringIcNS_11char_traitsIcEENS_9allocatorIcEEE16__get_short_sizeB7v160006Ev, symObjAddr: 0x6F6C, symBinAddr: 0x100009DF4, symSize: 0xA0 }
  - { offsetInCU: 0x14E2F, offset: 0x14E2F, size: 0x8, addend: 0x0, symName: __ZNKSt3__16vectorINS_12basic_stringIcNS_11char_traitsIcEENS_9allocatorIcEEEENS4_IS6_EEE4sizeB7v160006Ev, symObjAddr: 0x700C, symBinAddr: 0x100009E94, symSize: 0xB0 }
  - { offsetInCU: 0x14E55, offset: 0x14E55, size: 0x8, addend: 0x0, symName: __ZNKSt3__16vectorINS_12basic_stringIcNS_11char_traitsIcEENS_9allocatorIcEEEENS4_IS6_EEEixB7v160006Em, symObjAddr: 0x70BC, symBinAddr: 0x100009F44, symSize: 0x74 }
  - { offsetInCU: 0x14E8C, offset: 0x14E8C, size: 0x8, addend: 0x0, symName: __ZNKSt3__16vectorIP10CComponentNS_9allocatorIS2_EEE4sizeB7v160006Ev, symObjAddr: 0x7130, symBinAddr: 0x100009FB8, symSize: 0xB0 }
  - { offsetInCU: 0x14EB2, offset: 0x14EB2, size: 0x8, addend: 0x0, symName: __ZNKSt3__16vectorIP10CComponentNS_9allocatorIS2_EEEixB7v160006Em, symObjAddr: 0x71E0, symBinAddr: 0x10000A068, symSize: 0x6C }
  - { offsetInCU: 0x14EE9, offset: 0x14EE9, size: 0x8, addend: 0x0, symName: __ZNSt3__112basic_stringIcNS_11char_traitsIcEENS_9allocatorIcEEEC2B7v160006IDnEEPKc, symObjAddr: 0x724C, symBinAddr: 0x10000A0D4, symSize: 0x218 }
  - { offsetInCU: 0x14F29, offset: 0x14F29, size: 0x8, addend: 0x0, symName: __ZN8CNetworkC2ERKNSt3__112basic_stringIcNS0_11char_traitsIcEENS0_9allocatorIcEEEE, symObjAddr: 0x7464, symBinAddr: 0x10000A2EC, symSize: 0x40 }
  - { offsetInCU: 0x14F61, offset: 0x14F61, size: 0x8, addend: 0x0, symName: __ZNSt3__16vectorIP9CComputerNS_9allocatorIS2_EEEC1B7v160006Ev, symObjAddr: 0x74A4, symBinAddr: 0x10000A32C, symSize: 0x2C }
  - { offsetInCU: 0x14F8B, offset: 0x14F8B, size: 0x8, addend: 0x0, symName: __ZNSt3__16vectorIP9CComputerNS_9allocatorIS2_EEEC2B7v160006Ev, symObjAddr: 0x74D0, symBinAddr: 0x10000A358, symSize: 0x2F4 }
  - { offsetInCU: 0x14FBC, offset: 0x14FBC, size: 0x8, addend: 0x0, symName: __ZNSt3__117__compressed_pairIPP9CComputerNS_9allocatorIS2_EEEC1B7v160006IDnNS_18__default_init_tagEEEOT_OT0_, symObjAddr: 0x77C4, symBinAddr: 0x10000A64C, symSize: 0x3C }
  - { offsetInCU: 0x15014, offset: 0x15014, size: 0x8, addend: 0x0, symName: __ZNSt3__117__compressed_pairIPP9CComputerNS_9allocatorIS2_EEEC2B7v160006IDnNS_18__default_init_tagEEEOT_OT0_, symObjAddr: 0x7810, symBinAddr: 0x10000A698, symSize: 0x40 }
  - { offsetInCU: 0x1506C, offset: 0x1506C, size: 0x8, addend: 0x0, symName: __ZNSt3__122__compressed_pair_elemIPP9CComputerLi0ELb0EEC2B7v160006IDnvEEOT_, symObjAddr: 0x7850, symBinAddr: 0x10000A6D8, symSize: 0x64 }
  - { offsetInCU: 0x150AE, offset: 0x150AE, size: 0x8, addend: 0x0, symName: __ZNSt3__122__compressed_pair_elemINS_9allocatorIP9CComputerEELi1ELb1EEC2B7v160006ENS_18__default_init_tagE, symObjAddr: 0x78B4, symBinAddr: 0x10000A73C, symSize: 0x2C }
  - { offsetInCU: 0x150E2, offset: 0x150E2, size: 0x8, addend: 0x0, symName: __ZNSt3__19allocatorIP9CComputerEC2B7v160006Ev, symObjAddr: 0x78E0, symBinAddr: 0x10000A768, symSize: 0x2C }
  - { offsetInCU: 0x1510C, offset: 0x1510C, size: 0x8, addend: 0x0, symName: __ZNSt3__116__non_trivial_ifILb1ENS_9allocatorIP9CComputerEEEC2B7v160006Ev, symObjAddr: 0x790C, symBinAddr: 0x10000A794, symSize: 0x14 }
  - { offsetInCU: 0x15136, offset: 0x15136, size: 0x8, addend: 0x0, symName: __ZNSt3__16vectorIP9CComputerNS_9allocatorIS2_EEE9push_backB7v160006EOS2_, symObjAddr: 0x7920, symBinAddr: 0x10000A7A8, symSize: 0xE0 }
  - { offsetInCU: 0x1516D, offset: 0x1516D, size: 0x8, addend: 0x0, symName: __ZN9CComputerC1ERKS_, symObjAddr: 0x7A00, symBinAddr: 0x10000A888, symSize: 0x34 }
  - { offsetInCU: 0x151A5, offset: 0x151A5, size: 0x8, addend: 0x0, symName: __ZNSt3__16vectorIP9CComputerNS_9allocatorIS2_EEE9__end_capB7v160006Ev, symObjAddr: 0x7A34, symBinAddr: 0x10000A8BC, symSize: 0x28 }
  - { offsetInCU: 0x151D1, offset: 0x151D1, size: 0x8, addend: 0x0, symName: __ZNSt3__16vectorIP9CComputerNS_9allocatorIS2_EEE22__construct_one_at_endB7v160006IJS2_EEEvDpOT_, symObjAddr: 0x7A5C, symBinAddr: 0x10000A8E4, symSize: 0x36C }
  - { offsetInCU: 0x15226, offset: 0x15226, size: 0x8, addend: 0x0, symName: __ZNSt3__16vectorIP9CComputerNS_9allocatorIS2_EEE21__push_back_slow_pathIS2_EEvOT_, symObjAddr: 0x7DC8, symBinAddr: 0x10000AC50, symSize: 0x3C0 }
  - { offsetInCU: 0x1528B, offset: 0x1528B, size: 0x8, addend: 0x0, symName: __ZNSt3__117__compressed_pairIPP9CComputerNS_9allocatorIS2_EEE5firstB7v160006Ev, symObjAddr: 0x8188, symBinAddr: 0x10000B010, symSize: 0x24 }
  - { offsetInCU: 0x152B1, offset: 0x152B1, size: 0x8, addend: 0x0, symName: __ZNSt3__122__compressed_pair_elemIPP9CComputerLi0ELb0EE5__getB7v160006Ev, symObjAddr: 0x81AC, symBinAddr: 0x10000B034, symSize: 0x14 }
  - { offsetInCU: 0x152F3, offset: 0x152F3, size: 0x8, addend: 0x0, symName: __ZNSt3__16vectorIP9CComputerNS_9allocatorIS2_EEE21_ConstructTransactionC1B7v160006ERS5_m, symObjAddr: 0x81C0, symBinAddr: 0x10000B048, symSize: 0x3C }
  - { offsetInCU: 0x1533B, offset: 0x1533B, size: 0x8, addend: 0x0, symName: __ZNSt3__116allocator_traitsINS_9allocatorIP9CComputerEEE9constructB7v160006IS3_JS3_EvvEEvRS4_PT_DpOT0_, symObjAddr: 0x81FC, symBinAddr: 0x10000B084, symSize: 0x30 }
  - { offsetInCU: 0x1538F, offset: 0x1538F, size: 0x8, addend: 0x0, symName: __ZNSt3__16vectorIP9CComputerNS_9allocatorIS2_EEE7__allocB7v160006Ev, symObjAddr: 0x822C, symBinAddr: 0x10000B0B4, symSize: 0x28 }
  - { offsetInCU: 0x153B5, offset: 0x153B5, size: 0x8, addend: 0x0, symName: __ZNSt3__16vectorIP9CComputerNS_9allocatorIS2_EEE21_ConstructTransactionD1B7v160006Ev, symObjAddr: 0x8268, symBinAddr: 0x10000B0F0, symSize: 0x2C }
  - { offsetInCU: 0x153DF, offset: 0x153DF, size: 0x8, addend: 0x0, symName: __ZNSt3__16vectorIP9CComputerNS_9allocatorIS2_EEE21_ConstructTransactionC2B7v160006ERS5_m, symObjAddr: 0x8294, symBinAddr: 0x10000B11C, symSize: 0x1D0 }
  - { offsetInCU: 0x15427, offset: 0x15427, size: 0x8, addend: 0x0, symName: __ZNKSt3__16vectorIP9CComputerNS_9allocatorIS2_EEE19__annotate_increaseB7v160006Em, symObjAddr: 0x8464, symBinAddr: 0x10000B2EC, symSize: 0xD8 }
  - { offsetInCU: 0x1545C, offset: 0x1545C, size: 0x8, addend: 0x0, symName: __ZNKSt3__16vectorIP9CComputerNS_9allocatorIS2_EEE31__annotate_contiguous_containerEPKvS7_S7_S7_, symObjAddr: 0x853C, symBinAddr: 0x10000B3C4, symSize: 0x58 }
  - { offsetInCU: 0x154BE, offset: 0x154BE, size: 0x8, addend: 0x0, symName: __ZNKSt3__16vectorIP9CComputerNS_9allocatorIS2_EEE4dataB7v160006Ev, symObjAddr: 0x8594, symBinAddr: 0x10000B41C, symSize: 0x64 }
  - { offsetInCU: 0x154E4, offset: 0x154E4, size: 0x8, addend: 0x0, symName: __ZNKSt3__16vectorIP9CComputerNS_9allocatorIS2_EEE8capacityB7v160006Ev, symObjAddr: 0x85F8, symBinAddr: 0x10000B480, symSize: 0xBC }
  - { offsetInCU: 0x1550A, offset: 0x1550A, size: 0x8, addend: 0x0, symName: __ZNKSt3__16vectorIP9CComputerNS_9allocatorIS2_EEE9__end_capB7v160006Ev, symObjAddr: 0x86B4, symBinAddr: 0x10000B53C, symSize: 0x28 }
  - { offsetInCU: 0x15530, offset: 0x15530, size: 0x8, addend: 0x0, symName: __ZNKSt3__117__compressed_pairIPP9CComputerNS_9allocatorIS2_EEE5firstB7v160006Ev, symObjAddr: 0x86DC, symBinAddr: 0x10000B564, symSize: 0x24 }
  - { offsetInCU: 0x15556, offset: 0x15556, size: 0x8, addend: 0x0, symName: __ZNKSt3__122__compressed_pair_elemIPP9CComputerLi0ELb0EE5__getB7v160006Ev, symObjAddr: 0x8700, symBinAddr: 0x10000B588, symSize: 0x14 }
  - { offsetInCU: 0x1557C, offset: 0x1557C, size: 0x8, addend: 0x0, symName: __ZNSt3__117__compressed_pairIPP9CComputerNS_9allocatorIS2_EEE6secondB7v160006Ev, symObjAddr: 0x87CC, symBinAddr: 0x10000B654, symSize: 0x24 }
  - { offsetInCU: 0x155A2, offset: 0x155A2, size: 0x8, addend: 0x0, symName: __ZNSt3__122__compressed_pair_elemINS_9allocatorIP9CComputerEELi1ELb1EE5__getB7v160006Ev, symObjAddr: 0x87F0, symBinAddr: 0x10000B678, symSize: 0x14 }
  - { offsetInCU: 0x155C8, offset: 0x155C8, size: 0x8, addend: 0x0, symName: __ZNSt3__16vectorIP9CComputerNS_9allocatorIS2_EEE21_ConstructTransactionD2B7v160006Ev, symObjAddr: 0x8804, symBinAddr: 0x10000B68C, symSize: 0x278 }
  - { offsetInCU: 0x155F2, offset: 0x155F2, size: 0x8, addend: 0x0, symName: __ZNKSt3__16vectorIP9CComputerNS_9allocatorIS2_EEE17__annotate_shrinkB7v160006Em, symObjAddr: 0x8A7C, symBinAddr: 0x10000B904, symSize: 0xC8 }
  - { offsetInCU: 0x15627, offset: 0x15627, size: 0x8, addend: 0x0, symName: __ZNKSt3__16vectorIP9CComputerNS_9allocatorIS2_EEE11__recommendB7v160006Em, symObjAddr: 0x8B44, symBinAddr: 0x10000B9CC, symSize: 0x384 }
  - { offsetInCU: 0x15683, offset: 0x15683, size: 0x8, addend: 0x0, symName: __ZNSt3__114__split_bufferIP9CComputerRNS_9allocatorIS2_EEEC1EmmS5_, symObjAddr: 0x8EC8, symBinAddr: 0x10000BD50, symSize: 0x44 }
  - { offsetInCU: 0x156D9, offset: 0x156D9, size: 0x8, addend: 0x0, symName: __ZNSt3__114__split_bufferIP9CComputerRNS_9allocatorIS2_EEED1Ev, symObjAddr: 0x9480, symBinAddr: 0x10000C308, symSize: 0x2C }
  - { offsetInCU: 0x15705, offset: 0x15705, size: 0x8, addend: 0x0, symName: __ZNKSt3__16vectorIP9CComputerNS_9allocatorIS2_EEE8max_sizeEv, symObjAddr: 0x94AC, symBinAddr: 0x10000C334, symSize: 0x2FC }
  - { offsetInCU: 0x1572E, offset: 0x1572E, size: 0x8, addend: 0x0, symName: __ZNKSt3__16vectorIP9CComputerNS_9allocatorIS2_EEE20__throw_length_errorB7v160006Ev, symObjAddr: 0x97A8, symBinAddr: 0x10000C630, symSize: 0x20 }
  - { offsetInCU: 0x1575F, offset: 0x1575F, size: 0x8, addend: 0x0, symName: __ZNSt3__116allocator_traitsINS_9allocatorIP9CComputerEEE8max_sizeB7v160006IS4_vvEEmRKS4_, symObjAddr: 0x9820, symBinAddr: 0x10000C6A8, symSize: 0x28 }
  - { offsetInCU: 0x1578A, offset: 0x1578A, size: 0x8, addend: 0x0, symName: __ZNKSt3__16vectorIP9CComputerNS_9allocatorIS2_EEE7__allocB7v160006Ev, symObjAddr: 0x9848, symBinAddr: 0x10000C6D0, symSize: 0x28 }
  - { offsetInCU: 0x157B0, offset: 0x157B0, size: 0x8, addend: 0x0, symName: __ZNSt3__114numeric_limitsIlE3maxB7v160006Ev, symObjAddr: 0x9870, symBinAddr: 0x10000C6F8, symSize: 0x14 }
  - { offsetInCU: 0x157DA, offset: 0x157DA, size: 0x8, addend: 0x0, symName: __ZNKSt3__16__lessImmEclB7v160006ERKmS3_, symObjAddr: 0x9A6C, symBinAddr: 0x10000C8F4, symSize: 0xBC }
  - { offsetInCU: 0x1581C, offset: 0x1581C, size: 0x8, addend: 0x0, symName: __ZNSt3__114numeric_limitsImE3maxB7v160006Ev, symObjAddr: 0x9B28, symBinAddr: 0x10000C9B0, symSize: 0x14 }
  - { offsetInCU: 0x15830, offset: 0x15830, size: 0x8, addend: 0x0, symName: __ZNSt3__123__libcpp_numeric_limitsImLb1EE3maxB7v160006Ev, symObjAddr: 0x9B3C, symBinAddr: 0x10000C9C4, symSize: 0x8 }
  - { offsetInCU: 0x15844, offset: 0x15844, size: 0x8, addend: 0x0, symName: __ZNKSt3__117__compressed_pairIPP9CComputerNS_9allocatorIS2_EEE6secondB7v160006Ev, symObjAddr: 0x9B44, symBinAddr: 0x10000C9CC, symSize: 0x24 }
  - { offsetInCU: 0x1586A, offset: 0x1586A, size: 0x8, addend: 0x0, symName: __ZNKSt3__122__compressed_pair_elemINS_9allocatorIP9CComputerEELi1ELb1EE5__getB7v160006Ev, symObjAddr: 0x9B68, symBinAddr: 0x10000C9F0, symSize: 0x14 }
  - { offsetInCU: 0x15890, offset: 0x15890, size: 0x8, addend: 0x0, symName: __ZNSt3__123__libcpp_numeric_limitsIlLb1EE3maxB7v160006Ev, symObjAddr: 0x9B7C, symBinAddr: 0x10000CA04, symSize: 0x8 }
  - { offsetInCU: 0x158A4, offset: 0x158A4, size: 0x8, addend: 0x0, symName: __ZNSt12length_errorC1B7v160006EPKc, symObjAddr: 0x9BEC, symBinAddr: 0x10000CA74, symSize: 0x34 }
  - { offsetInCU: 0x158DC, offset: 0x158DC, size: 0x8, addend: 0x0, symName: __ZNSt12length_errorC2B7v160006EPKc, symObjAddr: 0x9C20, symBinAddr: 0x10000CAA8, symSize: 0x8C }
  - { offsetInCU: 0x15914, offset: 0x15914, size: 0x8, addend: 0x0, symName: __ZNSt3__114__split_bufferIP9CComputerRNS_9allocatorIS2_EEEC2EmmS5_, symObjAddr: 0x9E94, symBinAddr: 0x10000CD1C, symSize: 0x520 }
  - { offsetInCU: 0x1598F, offset: 0x1598F, size: 0x8, addend: 0x0, symName: __ZNSt3__117__compressed_pairIPP9CComputerRNS_9allocatorIS2_EEEC1B7v160006IDnS6_EEOT_OT0_, symObjAddr: 0xA3B4, symBinAddr: 0x10000D23C, symSize: 0x3C }
  - { offsetInCU: 0x159E7, offset: 0x159E7, size: 0x8, addend: 0x0, symName: __ZNSt3__114__split_bufferIP9CComputerRNS_9allocatorIS2_EEE7__allocB7v160006Ev, symObjAddr: 0xA67C, symBinAddr: 0x10000D504, symSize: 0x28 }
  - { offsetInCU: 0x15A0D, offset: 0x15A0D, size: 0x8, addend: 0x0, symName: __ZNSt3__114__split_bufferIP9CComputerRNS_9allocatorIS2_EEE9__end_capB7v160006Ev, symObjAddr: 0xA6A4, symBinAddr: 0x10000D52C, symSize: 0x28 }
  - { offsetInCU: 0x15A33, offset: 0x15A33, size: 0x8, addend: 0x0, symName: __ZNSt3__117__compressed_pairIPP9CComputerRNS_9allocatorIS2_EEEC2B7v160006IDnS6_EEOT_OT0_, symObjAddr: 0xA6CC, symBinAddr: 0x10000D554, symSize: 0x48 }
  - { offsetInCU: 0x15A8B, offset: 0x15A8B, size: 0x8, addend: 0x0, symName: __ZNSt3__122__compressed_pair_elemIRNS_9allocatorIP9CComputerEELi1ELb0EEC2B7v160006IS5_vEEOT_, symObjAddr: 0xA714, symBinAddr: 0x10000D59C, symSize: 0x70 }
  - { offsetInCU: 0x15ACD, offset: 0x15ACD, size: 0x8, addend: 0x0, symName: __ZNSt3__19allocatorIP9CComputerE8allocateB7v160006Em, symObjAddr: 0xA784, symBinAddr: 0x10000D60C, symSize: 0x5C }
  - { offsetInCU: 0x15B01, offset: 0x15B01, size: 0x8, addend: 0x0, symName: __ZNSt3__117__compressed_pairIPP9CComputerRNS_9allocatorIS2_EEE6secondB7v160006Ev, symObjAddr: 0xA8E8, symBinAddr: 0x10000D770, symSize: 0x28 }
  - { offsetInCU: 0x15B27, offset: 0x15B27, size: 0x8, addend: 0x0, symName: __ZNSt3__122__compressed_pair_elemIRNS_9allocatorIP9CComputerEELi1ELb0EE5__getB7v160006Ev, symObjAddr: 0xA910, symBinAddr: 0x10000D798, symSize: 0x60 }
  - { offsetInCU: 0x15B4D, offset: 0x15B4D, size: 0x8, addend: 0x0, symName: __ZNSt3__117__compressed_pairIPP9CComputerRNS_9allocatorIS2_EEE5firstB7v160006Ev, symObjAddr: 0xA970, symBinAddr: 0x10000D7F8, symSize: 0x24 }
  - { offsetInCU: 0x15B73, offset: 0x15B73, size: 0x8, addend: 0x0, symName: __ZNKSt3__16vectorIP9CComputerNS_9allocatorIS2_EEE17__annotate_deleteB7v160006Ev, symObjAddr: 0xA994, symBinAddr: 0x10000D81C, symSize: 0xCC }
  - { offsetInCU: 0x15B99, offset: 0x15B99, size: 0x8, addend: 0x0, symName: __ZNSt3__116reverse_iteratorIPP9CComputerEC1B7v160006ES3_, symObjAddr: 0xAF08, symBinAddr: 0x10000DD90, symSize: 0x34 }
  - { offsetInCU: 0x15BD1, offset: 0x15BD1, size: 0x8, addend: 0x0, symName: __ZNKSt3__116reverse_iteratorIPP9CComputerE4baseB7v160006Ev, symObjAddr: 0xAF3C, symBinAddr: 0x10000DDC4, symSize: 0x64 }
  - { offsetInCU: 0x15BF7, offset: 0x15BF7, size: 0x8, addend: 0x0, symName: __ZNKSt3__16vectorIP9CComputerNS_9allocatorIS2_EEE14__annotate_newB7v160006Em, symObjAddr: 0xB0D4, symBinAddr: 0x10000DF5C, symSize: 0xC0 }
  - { offsetInCU: 0x15C54, offset: 0x15C54, size: 0x8, addend: 0x0, symName: __ZNKSt3__111__move_loopINS_17_ClassicAlgPolicyEEclB7v160006INS_16reverse_iteratorIPP9CComputerEES8_S8_EENS_4pairIT_T1_EESA_T0_SB_, symObjAddr: 0xCA78, symBinAddr: 0x10000F900, symSize: 0x3A8 }
  - { offsetInCU: 0x15CCC, offset: 0x15CCC, size: 0x8, addend: 0x0, symName: __ZNSt3__119__unwrap_range_implINS_16reverse_iteratorIPP9CComputerEES5_E8__unwrapB7v160006ES5_S5_, symObjAddr: 0xD900, symBinAddr: 0x100010788, symSize: 0x448 }
  - { offsetInCU: 0x15D0B, offset: 0x15D0B, size: 0x8, addend: 0x0, symName: __ZNSt3__14pairINS_16reverse_iteratorIPP9CComputerEES5_EC1B7v160006IS5_S5_LPv0EEEOT_OT0_, symObjAddr: 0xDD48, symBinAddr: 0x100010BD0, symSize: 0x3C }
  - { offsetInCU: 0x15D69, offset: 0x15D69, size: 0x8, addend: 0x0, symName: __ZNSt3__14pairINS_16reverse_iteratorIPP9CComputerEES5_EC2B7v160006IS5_S5_LPv0EEEOT_OT0_, symObjAddr: 0xDD84, symBinAddr: 0x100010C0C, symSize: 0x54 }
  - { offsetInCU: 0x15DC7, offset: 0x15DC7, size: 0x8, addend: 0x0, symName: __ZNSt3__18_IterOpsINS_17_ClassicAlgPolicyEE11__iter_moveB7v160006IRNS_16reverse_iteratorIPP9CComputerEEEENS_9enable_ifIXsr12is_referenceIDTdeclsr3stdE7declvalIRT_EEEEE5valueEDTclsr3stdE4movedeclsr3stdE7declvalISC_EEEEE4typeEOSB_, symObjAddr: 0xDE20, symBinAddr: 0x100010CA8, symSize: 0x28 }
  - { offsetInCU: 0x15DF3, offset: 0x15DF3, size: 0x8, addend: 0x0, symName: __ZNKSt3__116reverse_iteratorIPP9CComputerEdeB7v160006Ev, symObjAddr: 0xDE48, symBinAddr: 0x100010CD0, symSize: 0x74 }
  - { offsetInCU: 0x15E27, offset: 0x15E27, size: 0x8, addend: 0x0, symName: __ZNSt3__116reverse_iteratorIPP9CComputerEppB7v160006Ev, symObjAddr: 0xDEBC, symBinAddr: 0x100010D44, symSize: 0x6C }
  - { offsetInCU: 0x15E4D, offset: 0x15E4D, size: 0x8, addend: 0x0, symName: __ZNSt3__18_IterOpsINS_17_ClassicAlgPolicyEE25__validate_iter_referenceB7v160006IRNS_16reverse_iteratorIPP9CComputerEEEEvv, symObjAddr: 0xDF28, symBinAddr: 0x100010DB0, symSize: 0x4 }
  - { offsetInCU: 0x15E6B, offset: 0x15E6B, size: 0x8, addend: 0x0, symName: __ZNSt3__118__unwrap_iter_implINS_16reverse_iteratorIPP9CComputerEELb0EE8__unwrapB7v160006ES5_, symObjAddr: 0xDF2C, symBinAddr: 0x100010DB4, symSize: 0x274 }
  - { offsetInCU: 0x15E92, offset: 0x15E92, size: 0x8, addend: 0x0, symName: __ZNSt3__119__unwrap_range_implINS_16reverse_iteratorIPP9CComputerEES5_E8__rewrapB7v160006ES5_S5_, symObjAddr: 0xE1A0, symBinAddr: 0x100011028, symSize: 0x3D4 }
  - { offsetInCU: 0x15ECB, offset: 0x15ECB, size: 0x8, addend: 0x0, symName: __ZNSt3__118__unwrap_iter_implINS_16reverse_iteratorIPP9CComputerEELb0EE8__rewrapB7v160006ES5_S5_, symObjAddr: 0xE574, symBinAddr: 0x1000113FC, symSize: 0x2E0 }
  - { offsetInCU: 0x15F00, offset: 0x15F00, size: 0x8, addend: 0x0, symName: __ZNSt3__116reverse_iteratorIPP9CComputerEC2B7v160006ES3_, symObjAddr: 0xE854, symBinAddr: 0x1000116DC, symSize: 0xB8 }
  - { offsetInCU: 0x15F38, offset: 0x15F38, size: 0x8, addend: 0x0, symName: __ZNSt3__114__split_bufferIP9CComputerRNS_9allocatorIS2_EEED2Ev, symObjAddr: 0xE90C, symBinAddr: 0x100011794, symSize: 0x104 }
  - { offsetInCU: 0x15F64, offset: 0x15F64, size: 0x8, addend: 0x0, symName: __ZNSt3__114__split_bufferIP9CComputerRNS_9allocatorIS2_EEE5clearB7v160006Ev, symObjAddr: 0xEA10, symBinAddr: 0x100011898, symSize: 0x68 }
  - { offsetInCU: 0x15F8A, offset: 0x15F8A, size: 0x8, addend: 0x0, symName: __ZNSt3__116allocator_traitsINS_9allocatorIP9CComputerEEE10deallocateB7v160006ERS4_PS3_m, symObjAddr: 0xEA78, symBinAddr: 0x100011900, symSize: 0x34 }
  - { offsetInCU: 0x15FCC, offset: 0x15FCC, size: 0x8, addend: 0x0, symName: __ZNKSt3__114__split_bufferIP9CComputerRNS_9allocatorIS2_EEE8capacityB7v160006Ev, symObjAddr: 0xEAAC, symBinAddr: 0x100011934, symSize: 0xBC }
  - { offsetInCU: 0x15FF2, offset: 0x15FF2, size: 0x8, addend: 0x0, symName: __ZNSt3__114__split_bufferIP9CComputerRNS_9allocatorIS2_EEE17__destruct_at_endB7v160006EPS2_, symObjAddr: 0xEB68, symBinAddr: 0x1000119F0, symSize: 0x2C }
  - { offsetInCU: 0x16026, offset: 0x16026, size: 0x8, addend: 0x0, symName: __ZNSt3__114__split_bufferIP9CComputerRNS_9allocatorIS2_EEE17__destruct_at_endB7v160006EPS2_NS_17integral_constantIbLb0EEE, symObjAddr: 0xEB94, symBinAddr: 0x100011A1C, symSize: 0x10C }
  - { offsetInCU: 0x16066, offset: 0x16066, size: 0x8, addend: 0x0, symName: __ZNSt3__116allocator_traitsINS_9allocatorIP9CComputerEEE7destroyB7v160006IS3_vvEEvRS4_PT_, symObjAddr: 0xECA0, symBinAddr: 0x100011B28, symSize: 0x28 }
  - { offsetInCU: 0x160A0, offset: 0x160A0, size: 0x8, addend: 0x0, symName: __ZNSt3__19allocatorIP9CComputerE10deallocateB7v160006EPS2_m, symObjAddr: 0xECFC, symBinAddr: 0x100011B84, symSize: 0x4C }
  - { offsetInCU: 0x160E2, offset: 0x160E2, size: 0x8, addend: 0x0, symName: __ZNKSt3__114__split_bufferIP9CComputerRNS_9allocatorIS2_EEE9__end_capB7v160006Ev, symObjAddr: 0xEE50, symBinAddr: 0x100011CD8, symSize: 0x28 }
  - { offsetInCU: 0x16108, offset: 0x16108, size: 0x8, addend: 0x0, symName: __ZNKSt3__117__compressed_pairIPP9CComputerRNS_9allocatorIS2_EEE5firstB7v160006Ev, symObjAddr: 0xEE78, symBinAddr: 0x100011D00, symSize: 0x24 }
  - { offsetInCU: 0x1612E, offset: 0x1612E, size: 0x8, addend: 0x0, symName: __ZN9CComputerC2ERKS_, symObjAddr: 0xEE9C, symBinAddr: 0x100011D24, symSize: 0x550 }
  - { offsetInCU: 0x161B3, offset: 0x161B3, size: 0x8, addend: 0x0, symName: __ZNSt3__16vectorINS_12basic_stringIcNS_11char_traitsIcEENS_9allocatorIcEEEENS4_IS6_EEEC1ERKS8_, symObjAddr: 0xF3EC, symBinAddr: 0x100012274, symSize: 0x34 }
  - { offsetInCU: 0x161EE, offset: 0x161EE, size: 0x8, addend: 0x0, symName: __ZNSt3__16vectorIP10CComponentNS_9allocatorIS2_EEEC1B7v160006Ev, symObjAddr: 0xF420, symBinAddr: 0x1000122A8, symSize: 0x2C }
  - { offsetInCU: 0x16218, offset: 0x16218, size: 0x8, addend: 0x0, symName: __ZNKSt3__16vectorIP10CComponentNS_9allocatorIS2_EEE5beginB7v160006Ev, symObjAddr: 0xF44C, symBinAddr: 0x1000122D4, symSize: 0x268 }
  - { offsetInCU: 0x16241, offset: 0x16241, size: 0x8, addend: 0x0, symName: __ZNKSt3__16vectorIP10CComponentNS_9allocatorIS2_EEE3endB7v160006Ev, symObjAddr: 0xF6B4, symBinAddr: 0x10001253C, symSize: 0x26C }
  - { offsetInCU: 0x1626A, offset: 0x1626A, size: 0x8, addend: 0x0, symName: __ZNKSt3__111__wrap_iterIPKP10CComponentEdeB7v160006Ev, symObjAddr: 0xF954, symBinAddr: 0x1000127DC, symSize: 0x60 }
  - { offsetInCU: 0x16290, offset: 0x16290, size: 0x8, addend: 0x0, symName: __ZNSt3__16vectorIP10CComponentNS_9allocatorIS2_EEE9push_backB7v160006EOS2_, symObjAddr: 0xF9B4, symBinAddr: 0x10001283C, symSize: 0xE0 }
  - { offsetInCU: 0x162C7, offset: 0x162C7, size: 0x8, addend: 0x0, symName: __ZNSt3__111__wrap_iterIPKP10CComponentEppB7v160006Ev, symObjAddr: 0xFA94, symBinAddr: 0x10001291C, symSize: 0x68 }
  - { offsetInCU: 0x162ED, offset: 0x162ED, size: 0x8, addend: 0x0, symName: __ZNSt3__16vectorIP10CComponentNS_9allocatorIS2_EEED1B7v160006Ev, symObjAddr: 0xFAFC, symBinAddr: 0x100012984, symSize: 0x2C }
  - { offsetInCU: 0x16317, offset: 0x16317, size: 0x8, addend: 0x0, symName: __ZNSt3__16vectorINS_12basic_stringIcNS_11char_traitsIcEENS_9allocatorIcEEEENS4_IS6_EEED1B7v160006Ev, symObjAddr: 0xFB28, symBinAddr: 0x1000129B0, symSize: 0x2C }
  - { offsetInCU: 0x16341, offset: 0x16341, size: 0x8, addend: 0x0, symName: __ZNSt3__16vectorINS_12basic_stringIcNS_11char_traitsIcEENS_9allocatorIcEEEENS4_IS6_EEEC2ERKS8_, symObjAddr: 0xFB54, symBinAddr: 0x1000129DC, symSize: 0x54C }
  - { offsetInCU: 0x163B2, offset: 0x163B2, size: 0x8, addend: 0x0, symName: __ZNSt3__116allocator_traitsINS_9allocatorINS_12basic_stringIcNS_11char_traitsIcEENS1_IcEEEEEEE37select_on_container_copy_constructionB7v160006IS7_vvEES7_RKS7_, symObjAddr: 0x100A0, symBinAddr: 0x100012F28, symSize: 0x10 }
  - { offsetInCU: 0x163E1, offset: 0x163E1, size: 0x8, addend: 0x0, symName: __ZNKSt3__16vectorINS_12basic_stringIcNS_11char_traitsIcEENS_9allocatorIcEEEENS4_IS6_EEE7__allocB7v160006Ev, symObjAddr: 0x100B0, symBinAddr: 0x100012F38, symSize: 0x28 }
  - { offsetInCU: 0x1640D, offset: 0x1640D, size: 0x8, addend: 0x0, symName: __ZNSt3__117__compressed_pairIPNS_12basic_stringIcNS_11char_traitsIcEENS_9allocatorIcEEEENS4_IS6_EEEC1B7v160006IDnS8_EEOT_OT0_, symObjAddr: 0x100D8, symBinAddr: 0x100012F60, symSize: 0x3C }
  - { offsetInCU: 0x16465, offset: 0x16465, size: 0x8, addend: 0x0, symName: __ZNSt3__16vectorINS_12basic_stringIcNS_11char_traitsIcEENS_9allocatorIcEEEENS4_IS6_EEE16__destroy_vectorC1ERS8_, symObjAddr: 0x1038C, symBinAddr: 0x100013214, symSize: 0x34 }
  - { offsetInCU: 0x1649E, offset: 0x1649E, size: 0x8, addend: 0x0, symName: __ZNSt3__16vectorINS_12basic_stringIcNS_11char_traitsIcEENS_9allocatorIcEEEENS4_IS6_EEE11__vallocateB7v160006Em, symObjAddr: 0x103D0, symBinAddr: 0x100013258, symSize: 0x428 }
  - { offsetInCU: 0x164E8, offset: 0x164E8, size: 0x8, addend: 0x0, symName: __ZNSt3__16vectorINS_12basic_stringIcNS_11char_traitsIcEENS_9allocatorIcEEEENS4_IS6_EEE18__construct_at_endIPS6_Li0EEEvT_SB_m, symObjAddr: 0x107F8, symBinAddr: 0x100013680, symSize: 0x380 }
  - { offsetInCU: 0x16563, offset: 0x16563, size: 0x8, addend: 0x0, symName: __ZNSt3__128__exception_guard_exceptionsINS_6vectorINS_12basic_stringIcNS_11char_traitsIcEENS_9allocatorIcEEEENS5_IS7_EEE16__destroy_vectorEE10__completeB7v160006Ev, symObjAddr: 0x10B78, symBinAddr: 0x100013A00, symSize: 0x8C }
  - { offsetInCU: 0x16589, offset: 0x16589, size: 0x8, addend: 0x0, symName: __ZNSt3__128__exception_guard_exceptionsINS_6vectorINS_12basic_stringIcNS_11char_traitsIcEENS_9allocatorIcEEEENS5_IS7_EEE16__destroy_vectorEED1B7v160006Ev, symObjAddr: 0x10C04, symBinAddr: 0x100013A8C, symSize: 0x2C }
  - { offsetInCU: 0x165B3, offset: 0x165B3, size: 0x8, addend: 0x0, symName: __ZNKSt3__117__compressed_pairIPNS_12basic_stringIcNS_11char_traitsIcEENS_9allocatorIcEEEENS4_IS6_EEE6secondB7v160006Ev, symObjAddr: 0x10C30, symBinAddr: 0x100013AB8, symSize: 0x24 }
  - { offsetInCU: 0x165D9, offset: 0x165D9, size: 0x8, addend: 0x0, symName: __ZNKSt3__122__compressed_pair_elemINS_9allocatorINS_12basic_stringIcNS_11char_traitsIcEENS1_IcEEEEEELi1ELb1EE5__getB7v160006Ev, symObjAddr: 0x10C54, symBinAddr: 0x100013ADC, symSize: 0x14 }
  - { offsetInCU: 0x165FF, offset: 0x165FF, size: 0x8, addend: 0x0, symName: __ZNSt3__117__compressed_pairIPNS_12basic_stringIcNS_11char_traitsIcEENS_9allocatorIcEEEENS4_IS6_EEEC2B7v160006IDnS8_EEOT_OT0_, symObjAddr: 0x10C68, symBinAddr: 0x100013AF0, symSize: 0x44 }
  - { offsetInCU: 0x16657, offset: 0x16657, size: 0x8, addend: 0x0, symName: __ZNSt3__122__compressed_pair_elemIPNS_12basic_stringIcNS_11char_traitsIcEENS_9allocatorIcEEEELi0ELb0EEC2B7v160006IDnvEEOT_, symObjAddr: 0x10CAC, symBinAddr: 0x100013B34, symSize: 0x64 }
  - { offsetInCU: 0x16699, offset: 0x16699, size: 0x8, addend: 0x0, symName: __ZNSt3__122__compressed_pair_elemINS_9allocatorINS_12basic_stringIcNS_11char_traitsIcEENS1_IcEEEEEELi1ELb1EEC2B7v160006IS7_vEEOT_, symObjAddr: 0x10D10, symBinAddr: 0x100013B98, symSize: 0x18 }
  - { offsetInCU: 0x166DB, offset: 0x166DB, size: 0x8, addend: 0x0, symName: __ZNSt3__128__exception_guard_exceptionsINS_6vectorINS_12basic_stringIcNS_11char_traitsIcEENS_9allocatorIcEEEENS5_IS7_EEE16__destroy_vectorEEC1B7v160006ESA_, symObjAddr: 0x10D28, symBinAddr: 0x100013BB0, symSize: 0x238 }
  - { offsetInCU: 0x16718, offset: 0x16718, size: 0x8, addend: 0x0, symName: __ZNSt3__128__exception_guard_exceptionsINS_6vectorINS_12basic_stringIcNS_11char_traitsIcEENS_9allocatorIcEEEENS5_IS7_EEE16__destroy_vectorEEC2B7v160006ESA_, symObjAddr: 0x10F60, symBinAddr: 0x100013DE8, symSize: 0x264 }
  - { offsetInCU: 0x16755, offset: 0x16755, size: 0x8, addend: 0x0, symName: __ZNSt3__16vectorINS_12basic_stringIcNS_11char_traitsIcEENS_9allocatorIcEEEENS4_IS6_EEE16__destroy_vectorC2ERS8_, symObjAddr: 0x111C4, symBinAddr: 0x10001404C, symSize: 0x70 }
  - { offsetInCU: 0x1678E, offset: 0x1678E, size: 0x8, addend: 0x0, symName: __ZNKSt3__16vectorINS_12basic_stringIcNS_11char_traitsIcEENS_9allocatorIcEEEENS4_IS6_EEE8max_sizeEv, symObjAddr: 0x11234, symBinAddr: 0x1000140BC, symSize: 0x2FC }
  - { offsetInCU: 0x167B7, offset: 0x167B7, size: 0x8, addend: 0x0, symName: __ZNKSt3__16vectorINS_12basic_stringIcNS_11char_traitsIcEENS_9allocatorIcEEEENS4_IS6_EEE20__throw_length_errorB7v160006Ev, symObjAddr: 0x11530, symBinAddr: 0x1000143B8, symSize: 0x20 }
  - { offsetInCU: 0x167DD, offset: 0x167DD, size: 0x8, addend: 0x0, symName: __ZNSt3__16vectorINS_12basic_stringIcNS_11char_traitsIcEENS_9allocatorIcEEEENS4_IS6_EEE7__allocB7v160006Ev, symObjAddr: 0x117DC, symBinAddr: 0x100014664, symSize: 0x28 }
  - { offsetInCU: 0x16803, offset: 0x16803, size: 0x8, addend: 0x0, symName: __ZNSt3__16vectorINS_12basic_stringIcNS_11char_traitsIcEENS_9allocatorIcEEEENS4_IS6_EEE9__end_capB7v160006Ev, symObjAddr: 0x11804, symBinAddr: 0x10001468C, symSize: 0x28 }
  - { offsetInCU: 0x16829, offset: 0x16829, size: 0x8, addend: 0x0, symName: __ZNKSt3__16vectorINS_12basic_stringIcNS_11char_traitsIcEENS_9allocatorIcEEEENS4_IS6_EEE14__annotate_newB7v160006Em, symObjAddr: 0x1182C, symBinAddr: 0x1000146B4, symSize: 0xDC }
  - { offsetInCU: 0x1685E, offset: 0x1685E, size: 0x8, addend: 0x0, symName: __ZNSt3__116allocator_traitsINS_9allocatorINS_12basic_stringIcNS_11char_traitsIcEENS1_IcEEEEEEE8max_sizeB7v160006IS7_vvEEmRKS7_, symObjAddr: 0x11908, symBinAddr: 0x100014790, symSize: 0x28 }
  - { offsetInCU: 0x16889, offset: 0x16889, size: 0x8, addend: 0x0, symName: __ZNSt3__19allocatorINS_12basic_stringIcNS_11char_traitsIcEENS0_IcEEEEE8allocateB7v160006Em, symObjAddr: 0x11930, symBinAddr: 0x1000147B8, symSize: 0x60 }
  - { offsetInCU: 0x168BD, offset: 0x168BD, size: 0x8, addend: 0x0, symName: __ZNSt3__117__compressed_pairIPNS_12basic_stringIcNS_11char_traitsIcEENS_9allocatorIcEEEENS4_IS6_EEE6secondB7v160006Ev, symObjAddr: 0x11990, symBinAddr: 0x100014818, symSize: 0x24 }
  - { offsetInCU: 0x168E3, offset: 0x168E3, size: 0x8, addend: 0x0, symName: __ZNSt3__122__compressed_pair_elemINS_9allocatorINS_12basic_stringIcNS_11char_traitsIcEENS1_IcEEEEEELi1ELb1EE5__getB7v160006Ev, symObjAddr: 0x119B4, symBinAddr: 0x10001483C, symSize: 0x14 }
  - { offsetInCU: 0x16909, offset: 0x16909, size: 0x8, addend: 0x0, symName: __ZNSt3__117__compressed_pairIPNS_12basic_stringIcNS_11char_traitsIcEENS_9allocatorIcEEEENS4_IS6_EEE5firstB7v160006Ev, symObjAddr: 0x119C8, symBinAddr: 0x100014850, symSize: 0x24 }
  - { offsetInCU: 0x1692F, offset: 0x1692F, size: 0x8, addend: 0x0, symName: __ZNSt3__122__compressed_pair_elemIPNS_12basic_stringIcNS_11char_traitsIcEENS_9allocatorIcEEEELi0ELb0EE5__getB7v160006Ev, symObjAddr: 0x119EC, symBinAddr: 0x100014874, symSize: 0x14 }
  - { offsetInCU: 0x16955, offset: 0x16955, size: 0x8, addend: 0x0, symName: __ZNKSt3__16vectorINS_12basic_stringIcNS_11char_traitsIcEENS_9allocatorIcEEEENS4_IS6_EEE31__annotate_contiguous_containerEPKvSA_SA_SA_, symObjAddr: 0x11A00, symBinAddr: 0x100014888, symSize: 0x58 }
  - { offsetInCU: 0x169B7, offset: 0x169B7, size: 0x8, addend: 0x0, symName: __ZNKSt3__16vectorINS_12basic_stringIcNS_11char_traitsIcEENS_9allocatorIcEEEENS4_IS6_EEE4dataB7v160006Ev, symObjAddr: 0x11A58, symBinAddr: 0x1000148E0, symSize: 0x64 }
  - { offsetInCU: 0x169DD, offset: 0x169DD, size: 0x8, addend: 0x0, symName: __ZNKSt3__16vectorINS_12basic_stringIcNS_11char_traitsIcEENS_9allocatorIcEEEENS4_IS6_EEE8capacityB7v160006Ev, symObjAddr: 0x11ABC, symBinAddr: 0x100014944, symSize: 0xBC }
  - { offsetInCU: 0x16A03, offset: 0x16A03, size: 0x8, addend: 0x0, symName: __ZNKSt3__16vectorINS_12basic_stringIcNS_11char_traitsIcEENS_9allocatorIcEEEENS4_IS6_EEE9__end_capB7v160006Ev, symObjAddr: 0x11B8C, symBinAddr: 0x100014A14, symSize: 0x28 }
  - { offsetInCU: 0x16A29, offset: 0x16A29, size: 0x8, addend: 0x0, symName: __ZNKSt3__117__compressed_pairIPNS_12basic_stringIcNS_11char_traitsIcEENS_9allocatorIcEEEENS4_IS6_EEE5firstB7v160006Ev, symObjAddr: 0x11BB4, symBinAddr: 0x100014A3C, symSize: 0x24 }
  - { offsetInCU: 0x16A4F, offset: 0x16A4F, size: 0x8, addend: 0x0, symName: __ZNKSt3__122__compressed_pair_elemIPNS_12basic_stringIcNS_11char_traitsIcEENS_9allocatorIcEEEELi0ELb0EE5__getB7v160006Ev, symObjAddr: 0x11BD8, symBinAddr: 0x100014A60, symSize: 0x14 }
  - { offsetInCU: 0x16A91, offset: 0x16A91, size: 0x8, addend: 0x0, symName: __ZNSt3__16vectorINS_12basic_stringIcNS_11char_traitsIcEENS_9allocatorIcEEEENS4_IS6_EEE21_ConstructTransactionC1B7v160006ERS8_m, symObjAddr: 0x11BEC, symBinAddr: 0x100014A74, symSize: 0x3C }
  - { offsetInCU: 0x16AD9, offset: 0x16AD9, size: 0x8, addend: 0x0, symName: __ZNSt3__16vectorINS_12basic_stringIcNS_11char_traitsIcEENS_9allocatorIcEEEENS4_IS6_EEE21_ConstructTransactionD1B7v160006Ev, symObjAddr: 0x12148, symBinAddr: 0x100014FD0, symSize: 0x2C }
  - { offsetInCU: 0x16B03, offset: 0x16B03, size: 0x8, addend: 0x0, symName: __ZNSt3__16vectorINS_12basic_stringIcNS_11char_traitsIcEENS_9allocatorIcEEEENS4_IS6_EEE21_ConstructTransactionC2B7v160006ERS8_m, symObjAddr: 0x12174, symBinAddr: 0x100014FFC, symSize: 0x1D8 }
  - { offsetInCU: 0x16B4B, offset: 0x16B4B, size: 0x8, addend: 0x0, symName: __ZNKSt3__16vectorINS_12basic_stringIcNS_11char_traitsIcEENS_9allocatorIcEEEENS4_IS6_EEE19__annotate_increaseB7v160006Em, symObjAddr: 0x1234C, symBinAddr: 0x1000151D4, symSize: 0xF8 }
  - { offsetInCU: 0x16B80, offset: 0x16B80, size: 0x8, addend: 0x0, symName: __ZNSt3__129_AllocatorDestroyRangeReverseINS_9allocatorINS_12basic_stringIcNS_11char_traitsIcEENS1_IcEEEEEEPS6_EC1B7v160006ERS7_RS8_SB_, symObjAddr: 0x1263C, symBinAddr: 0x1000154C4, symSize: 0x44 }
  - { offsetInCU: 0x16BD7, offset: 0x16BD7, size: 0x8, addend: 0x0, symName: __ZNSt3__116allocator_traitsINS_9allocatorINS_12basic_stringIcNS_11char_traitsIcEENS1_IcEEEEEEE9constructB7v160006IS6_JRS6_EvvEEvRS7_PT_DpOT0_, symObjAddr: 0x12680, symBinAddr: 0x100015508, symSize: 0x30 }
  - { offsetInCU: 0x16C2B, offset: 0x16C2B, size: 0x8, addend: 0x0, symName: __ZNSt3__128__exception_guard_exceptionsINS_29_AllocatorDestroyRangeReverseINS_9allocatorINS_12basic_stringIcNS_11char_traitsIcEENS2_IcEEEEEEPS7_EEE10__completeB7v160006Ev, symObjAddr: 0x126B0, symBinAddr: 0x100015538, symSize: 0x8C }
  - { offsetInCU: 0x16C51, offset: 0x16C51, size: 0x8, addend: 0x0, symName: __ZNSt3__128__exception_guard_exceptionsINS_29_AllocatorDestroyRangeReverseINS_9allocatorINS_12basic_stringIcNS_11char_traitsIcEENS2_IcEEEEEEPS7_EEED1B7v160006Ev, symObjAddr: 0x1273C, symBinAddr: 0x1000155C4, symSize: 0x2C }
  - { offsetInCU: 0x16C7B, offset: 0x16C7B, size: 0x8, addend: 0x0, symName: __ZNSt3__128__exception_guard_exceptionsINS_29_AllocatorDestroyRangeReverseINS_9allocatorINS_12basic_stringIcNS_11char_traitsIcEENS2_IcEEEEEEPS7_EEEC1B7v160006ESA_, symObjAddr: 0x12768, symBinAddr: 0x1000155F0, symSize: 0x34 }
  - { offsetInCU: 0x16CB4, offset: 0x16CB4, size: 0x8, addend: 0x0, symName: __ZNSt3__128__exception_guard_exceptionsINS_29_AllocatorDestroyRangeReverseINS_9allocatorINS_12basic_stringIcNS_11char_traitsIcEENS2_IcEEEEEEPS7_EEEC2B7v160006ESA_, symObjAddr: 0x1279C, symBinAddr: 0x100015624, symSize: 0xA4 }
  - { offsetInCU: 0x16CED, offset: 0x16CED, size: 0x8, addend: 0x0, symName: __ZNSt3__129_AllocatorDestroyRangeReverseINS_9allocatorINS_12basic_stringIcNS_11char_traitsIcEENS1_IcEEEEEEPS6_EC2B7v160006ERS7_RS8_SB_, symObjAddr: 0x12840, symBinAddr: 0x1000156C8, symSize: 0x104 }
  - { offsetInCU: 0x16D44, offset: 0x16D44, size: 0x8, addend: 0x0, symName: __ZNSt3__128__exception_guard_exceptionsINS_29_AllocatorDestroyRangeReverseINS_9allocatorINS_12basic_stringIcNS_11char_traitsIcEENS2_IcEEEEEEPS7_EEED2B7v160006Ev, symObjAddr: 0x12980, symBinAddr: 0x100015808, symSize: 0xBC }
  - { offsetInCU: 0x16D6E, offset: 0x16D6E, size: 0x8, addend: 0x0, symName: __ZNKSt3__129_AllocatorDestroyRangeReverseINS_9allocatorINS_12basic_stringIcNS_11char_traitsIcEENS1_IcEEEEEEPS6_EclB7v160006Ev, symObjAddr: 0x12A3C, symBinAddr: 0x1000158C4, symSize: 0x39C }
  - { offsetInCU: 0x16D95, offset: 0x16D95, size: 0x8, addend: 0x0, symName: __ZNSt3__116reverse_iteratorIPNS_12basic_stringIcNS_11char_traitsIcEENS_9allocatorIcEEEEEC1B7v160006ES7_, symObjAddr: 0x13090, symBinAddr: 0x100015F18, symSize: 0x34 }
  - { offsetInCU: 0x16DCD, offset: 0x16DCD, size: 0x8, addend: 0x0, symName: __ZNSt3__116allocator_traitsINS_9allocatorINS_12basic_stringIcNS_11char_traitsIcEENS1_IcEEEEEEE7destroyB7v160006IS6_vvEEvRS7_PT_, symObjAddr: 0x1310C, symBinAddr: 0x100015F94, symSize: 0x28 }
  - { offsetInCU: 0x16E07, offset: 0x16E07, size: 0x8, addend: 0x0, symName: __ZNSt3__116reverse_iteratorIPNS_12basic_stringIcNS_11char_traitsIcEENS_9allocatorIcEEEEEppB7v160006Ev, symObjAddr: 0x13158, symBinAddr: 0x100015FE0, symSize: 0x6C }
  - { offsetInCU: 0x16E2D, offset: 0x16E2D, size: 0x8, addend: 0x0, symName: __ZNKSt3__116reverse_iteratorIPNS_12basic_stringIcNS_11char_traitsIcEENS_9allocatorIcEEEEE4baseB7v160006Ev, symObjAddr: 0x131C4, symBinAddr: 0x10001604C, symSize: 0x64 }
  - { offsetInCU: 0x16E59, offset: 0x16E59, size: 0x8, addend: 0x0, symName: __ZNSt3__119__to_address_helperINS_16reverse_iteratorIPNS_12basic_stringIcNS_11char_traitsIcEENS_9allocatorIcEEEEEEvE6__callB7v160006ERKS9_, symObjAddr: 0x13270, symBinAddr: 0x1000160F8, symSize: 0x44 }
  - { offsetInCU: 0x16E7C, offset: 0x16E7C, size: 0x8, addend: 0x0, symName: __ZNKSt3__116reverse_iteratorIPNS_12basic_stringIcNS_11char_traitsIcEENS_9allocatorIcEEEEEptB7v160006Ev, symObjAddr: 0x132B4, symBinAddr: 0x10001613C, symSize: 0x6C }
  - { offsetInCU: 0x16EA2, offset: 0x16EA2, size: 0x8, addend: 0x0, symName: __ZNSt3__116reverse_iteratorIPNS_12basic_stringIcNS_11char_traitsIcEENS_9allocatorIcEEEEEC2B7v160006ES7_, symObjAddr: 0x13660, symBinAddr: 0x1000164E8, symSize: 0xB8 }
  - { offsetInCU: 0x16EDA, offset: 0x16EDA, size: 0x8, addend: 0x0, symName: __ZNSt3__16vectorINS_12basic_stringIcNS_11char_traitsIcEENS_9allocatorIcEEEENS4_IS6_EEE21_ConstructTransactionD2B7v160006Ev, symObjAddr: 0x13718, symBinAddr: 0x1000165A0, symSize: 0x278 }
  - { offsetInCU: 0x16F04, offset: 0x16F04, size: 0x8, addend: 0x0, symName: __ZNKSt3__16vectorINS_12basic_stringIcNS_11char_traitsIcEENS_9allocatorIcEEEENS4_IS6_EEE17__annotate_shrinkB7v160006Em, symObjAddr: 0x13990, symBinAddr: 0x100016818, symSize: 0xE4 }
  - { offsetInCU: 0x16F39, offset: 0x16F39, size: 0x8, addend: 0x0, symName: __ZNSt3__128__exception_guard_exceptionsINS_6vectorINS_12basic_stringIcNS_11char_traitsIcEENS_9allocatorIcEEEENS5_IS7_EEE16__destroy_vectorEED2B7v160006Ev, symObjAddr: 0x13A74, symBinAddr: 0x1000168FC, symSize: 0xBC }
  - { offsetInCU: 0x16F63, offset: 0x16F63, size: 0x8, addend: 0x0, symName: __ZNSt3__16vectorINS_12basic_stringIcNS_11char_traitsIcEENS_9allocatorIcEEEENS4_IS6_EEE16__destroy_vectorclB7v160006Ev, symObjAddr: 0x13B30, symBinAddr: 0x1000169B8, symSize: 0x264 }
  - { offsetInCU: 0x16F89, offset: 0x16F89, size: 0x8, addend: 0x0, symName: __ZNKSt3__16vectorINS_12basic_stringIcNS_11char_traitsIcEENS_9allocatorIcEEEENS4_IS6_EEE17__annotate_deleteB7v160006Ev, symObjAddr: 0x13D94, symBinAddr: 0x100016C1C, symSize: 0xE8 }
  - { offsetInCU: 0x16FAF, offset: 0x16FAF, size: 0x8, addend: 0x0, symName: __ZNSt3__16vectorINS_12basic_stringIcNS_11char_traitsIcEENS_9allocatorIcEEEENS4_IS6_EEE7__clearB7v160006Ev, symObjAddr: 0x13E8C, symBinAddr: 0x100016D14, symSize: 0x64 }
  - { offsetInCU: 0x16FD5, offset: 0x16FD5, size: 0x8, addend: 0x0, symName: __ZNSt3__116allocator_traitsINS_9allocatorINS_12basic_stringIcNS_11char_traitsIcEENS1_IcEEEEEEE10deallocateB7v160006ERS7_PS6_m, symObjAddr: 0x13EF0, symBinAddr: 0x100016D78, symSize: 0x34 }
  - { offsetInCU: 0x17017, offset: 0x17017, size: 0x8, addend: 0x0, symName: __ZNSt3__16vectorINS_12basic_stringIcNS_11char_traitsIcEENS_9allocatorIcEEEENS4_IS6_EEE22__base_destruct_at_endB7v160006EPS6_, symObjAddr: 0x13F24, symBinAddr: 0x100016DAC, symSize: 0x114 }
  - { offsetInCU: 0x1705B, offset: 0x1705B, size: 0x8, addend: 0x0, symName: __ZNSt3__19allocatorINS_12basic_stringIcNS_11char_traitsIcEENS0_IcEEEEE10deallocateB7v160006EPS5_m, symObjAddr: 0x14038, symBinAddr: 0x100016EC0, symSize: 0x50 }
  - { offsetInCU: 0x1709D, offset: 0x1709D, size: 0x8, addend: 0x0, symName: __ZNSt3__16vectorIP10CComponentNS_9allocatorIS2_EEEC2B7v160006Ev, symObjAddr: 0x14088, symBinAddr: 0x100016F10, symSize: 0x2F4 }
  - { offsetInCU: 0x170C8, offset: 0x170C8, size: 0x8, addend: 0x0, symName: __ZNSt3__117__compressed_pairIPP10CComponentNS_9allocatorIS2_EEEC1B7v160006IDnNS_18__default_init_tagEEEOT_OT0_, symObjAddr: 0x1437C, symBinAddr: 0x100017204, symSize: 0x3C }
  - { offsetInCU: 0x17120, offset: 0x17120, size: 0x8, addend: 0x0, symName: __ZNSt3__117__compressed_pairIPP10CComponentNS_9allocatorIS2_EEEC2B7v160006IDnNS_18__default_init_tagEEEOT_OT0_, symObjAddr: 0x143C8, symBinAddr: 0x100017250, symSize: 0x40 }
  - { offsetInCU: 0x17178, offset: 0x17178, size: 0x8, addend: 0x0, symName: __ZNSt3__122__compressed_pair_elemIPP10CComponentLi0ELb0EEC2B7v160006IDnvEEOT_, symObjAddr: 0x14408, symBinAddr: 0x100017290, symSize: 0x64 }
  - { offsetInCU: 0x171BA, offset: 0x171BA, size: 0x8, addend: 0x0, symName: __ZNSt3__122__compressed_pair_elemINS_9allocatorIP10CComponentEELi1ELb1EEC2B7v160006ENS_18__default_init_tagE, symObjAddr: 0x1446C, symBinAddr: 0x1000172F4, symSize: 0x2C }
  - { offsetInCU: 0x171EE, offset: 0x171EE, size: 0x8, addend: 0x0, symName: __ZNSt3__19allocatorIP10CComponentEC2B7v160006Ev, symObjAddr: 0x14498, symBinAddr: 0x100017320, symSize: 0x2C }
  - { offsetInCU: 0x17218, offset: 0x17218, size: 0x8, addend: 0x0, symName: __ZNSt3__116__non_trivial_ifILb1ENS_9allocatorIP10CComponentEEEC2B7v160006Ev, symObjAddr: 0x144C4, symBinAddr: 0x10001734C, symSize: 0x14 }
  - { offsetInCU: 0x17242, offset: 0x17242, size: 0x8, addend: 0x0, symName: __ZNKSt3__16vectorIP10CComponentNS_9allocatorIS2_EEE11__make_iterB7v160006EPKS2_, symObjAddr: 0x144D8, symBinAddr: 0x100017360, symSize: 0x200 }
  - { offsetInCU: 0x17279, offset: 0x17279, size: 0x8, addend: 0x0, symName: __ZNSt3__111__wrap_iterIPKP10CComponentEC1B7v160006EPKvS4_, symObjAddr: 0x146D8, symBinAddr: 0x100017560, symSize: 0x3C }
  - { offsetInCU: 0x172BF, offset: 0x172BF, size: 0x8, addend: 0x0, symName: __ZNSt3__111__wrap_iterIPKP10CComponentEC2B7v160006EPKvS4_, symObjAddr: 0x14714, symBinAddr: 0x10001759C, symSize: 0x74 }
  - { offsetInCU: 0x17305, offset: 0x17305, size: 0x8, addend: 0x0, symName: __ZNKSt3__111__wrap_iterIPKP10CComponentE4baseB7v160006Ev, symObjAddr: 0x147D0, symBinAddr: 0x100017658, symSize: 0x60 }
  - { offsetInCU: 0x1732B, offset: 0x1732B, size: 0x8, addend: 0x0, symName: __ZNSt3__16vectorIP10CComponentNS_9allocatorIS2_EEE9__end_capB7v160006Ev, symObjAddr: 0x14830, symBinAddr: 0x1000176B8, symSize: 0x28 }
  - { offsetInCU: 0x17357, offset: 0x17357, size: 0x8, addend: 0x0, symName: __ZNSt3__16vectorIP10CComponentNS_9allocatorIS2_EEE22__construct_one_at_endB7v160006IJS2_EEEvDpOT_, symObjAddr: 0x14858, symBinAddr: 0x1000176E0, symSize: 0x36C }
  - { offsetInCU: 0x173AC, offset: 0x173AC, size: 0x8, addend: 0x0, symName: __ZNSt3__16vectorIP10CComponentNS_9allocatorIS2_EEE21__push_back_slow_pathIS2_EEvOT_, symObjAddr: 0x14BC4, symBinAddr: 0x100017A4C, symSize: 0x3C0 }
  - { offsetInCU: 0x17411, offset: 0x17411, size: 0x8, addend: 0x0, symName: __ZNSt3__117__compressed_pairIPP10CComponentNS_9allocatorIS2_EEE5firstB7v160006Ev, symObjAddr: 0x14F84, symBinAddr: 0x100017E0C, symSize: 0x24 }
  - { offsetInCU: 0x17437, offset: 0x17437, size: 0x8, addend: 0x0, symName: __ZNSt3__122__compressed_pair_elemIPP10CComponentLi0ELb0EE5__getB7v160006Ev, symObjAddr: 0x14FA8, symBinAddr: 0x100017E30, symSize: 0x14 }
  - { offsetInCU: 0x17479, offset: 0x17479, size: 0x8, addend: 0x0, symName: __ZNSt3__16vectorIP10CComponentNS_9allocatorIS2_EEE21_ConstructTransactionC1B7v160006ERS5_m, symObjAddr: 0x14FBC, symBinAddr: 0x100017E44, symSize: 0x3C }
  - { offsetInCU: 0x174C1, offset: 0x174C1, size: 0x8, addend: 0x0, symName: __ZNSt3__116allocator_traitsINS_9allocatorIP10CComponentEEE9constructB7v160006IS3_JS3_EvvEEvRS4_PT_DpOT0_, symObjAddr: 0x14FF8, symBinAddr: 0x100017E80, symSize: 0x30 }
  - { offsetInCU: 0x17515, offset: 0x17515, size: 0x8, addend: 0x0, symName: __ZNSt3__16vectorIP10CComponentNS_9allocatorIS2_EEE7__allocB7v160006Ev, symObjAddr: 0x15028, symBinAddr: 0x100017EB0, symSize: 0x28 }
  - { offsetInCU: 0x1753B, offset: 0x1753B, size: 0x8, addend: 0x0, symName: __ZNSt3__16vectorIP10CComponentNS_9allocatorIS2_EEE21_ConstructTransactionD1B7v160006Ev, symObjAddr: 0x15064, symBinAddr: 0x100017EEC, symSize: 0x2C }
  - { offsetInCU: 0x17565, offset: 0x17565, size: 0x8, addend: 0x0, symName: __ZNSt3__16vectorIP10CComponentNS_9allocatorIS2_EEE21_ConstructTransactionC2B7v160006ERS5_m, symObjAddr: 0x15090, symBinAddr: 0x100017F18, symSize: 0x1D0 }
  - { offsetInCU: 0x175AD, offset: 0x175AD, size: 0x8, addend: 0x0, symName: __ZNKSt3__16vectorIP10CComponentNS_9allocatorIS2_EEE19__annotate_increaseB7v160006Em, symObjAddr: 0x15260, symBinAddr: 0x1000180E8, symSize: 0xD8 }
  - { offsetInCU: 0x175E2, offset: 0x175E2, size: 0x8, addend: 0x0, symName: __ZNKSt3__16vectorIP10CComponentNS_9allocatorIS2_EEE31__annotate_contiguous_containerEPKvS7_S7_S7_, symObjAddr: 0x15338, symBinAddr: 0x1000181C0, symSize: 0x58 }
  - { offsetInCU: 0x17644, offset: 0x17644, size: 0x8, addend: 0x0, symName: __ZNKSt3__16vectorIP10CComponentNS_9allocatorIS2_EEE4dataB7v160006Ev, symObjAddr: 0x15390, symBinAddr: 0x100018218, symSize: 0x64 }
  - { offsetInCU: 0x1766A, offset: 0x1766A, size: 0x8, addend: 0x0, symName: __ZNKSt3__16vectorIP10CComponentNS_9allocatorIS2_EEE8capacityB7v160006Ev, symObjAddr: 0x153F4, symBinAddr: 0x10001827C, symSize: 0xBC }
  - { offsetInCU: 0x17690, offset: 0x17690, size: 0x8, addend: 0x0, symName: __ZNKSt3__16vectorIP10CComponentNS_9allocatorIS2_EEE9__end_capB7v160006Ev, symObjAddr: 0x154B0, symBinAddr: 0x100018338, symSize: 0x28 }
  - { offsetInCU: 0x176B6, offset: 0x176B6, size: 0x8, addend: 0x0, symName: __ZNKSt3__117__compressed_pairIPP10CComponentNS_9allocatorIS2_EEE5firstB7v160006Ev, symObjAddr: 0x154D8, symBinAddr: 0x100018360, symSize: 0x24 }
  - { offsetInCU: 0x176DC, offset: 0x176DC, size: 0x8, addend: 0x0, symName: __ZNKSt3__122__compressed_pair_elemIPP10CComponentLi0ELb0EE5__getB7v160006Ev, symObjAddr: 0x154FC, symBinAddr: 0x100018384, symSize: 0x14 }
  - { offsetInCU: 0x17702, offset: 0x17702, size: 0x8, addend: 0x0, symName: __ZNSt3__117__compressed_pairIPP10CComponentNS_9allocatorIS2_EEE6secondB7v160006Ev, symObjAddr: 0x155C8, symBinAddr: 0x100018450, symSize: 0x24 }
  - { offsetInCU: 0x17728, offset: 0x17728, size: 0x8, addend: 0x0, symName: __ZNSt3__122__compressed_pair_elemINS_9allocatorIP10CComponentEELi1ELb1EE5__getB7v160006Ev, symObjAddr: 0x155EC, symBinAddr: 0x100018474, symSize: 0x14 }
  - { offsetInCU: 0x1774E, offset: 0x1774E, size: 0x8, addend: 0x0, symName: __ZNSt3__16vectorIP10CComponentNS_9allocatorIS2_EEE21_ConstructTransactionD2B7v160006Ev, symObjAddr: 0x15600, symBinAddr: 0x100018488, symSize: 0x278 }
  - { offsetInCU: 0x17778, offset: 0x17778, size: 0x8, addend: 0x0, symName: __ZNKSt3__16vectorIP10CComponentNS_9allocatorIS2_EEE17__annotate_shrinkB7v160006Em, symObjAddr: 0x15878, symBinAddr: 0x100018700, symSize: 0xC8 }
  - { offsetInCU: 0x177AD, offset: 0x177AD, size: 0x8, addend: 0x0, symName: __ZNKSt3__16vectorIP10CComponentNS_9allocatorIS2_EEE11__recommendB7v160006Em, symObjAddr: 0x15940, symBinAddr: 0x1000187C8, symSize: 0x384 }
  - { offsetInCU: 0x17809, offset: 0x17809, size: 0x8, addend: 0x0, symName: __ZNSt3__114__split_bufferIP10CComponentRNS_9allocatorIS2_EEEC1EmmS5_, symObjAddr: 0x15CC4, symBinAddr: 0x100018B4C, symSize: 0x44 }
  - { offsetInCU: 0x1785F, offset: 0x1785F, size: 0x8, addend: 0x0, symName: __ZNSt3__114__split_bufferIP10CComponentRNS_9allocatorIS2_EEED1Ev, symObjAddr: 0x1627C, symBinAddr: 0x100019104, symSize: 0x2C }
  - { offsetInCU: 0x1788B, offset: 0x1788B, size: 0x8, addend: 0x0, symName: __ZNKSt3__16vectorIP10CComponentNS_9allocatorIS2_EEE8max_sizeEv, symObjAddr: 0x162A8, symBinAddr: 0x100019130, symSize: 0x2FC }
  - { offsetInCU: 0x178B4, offset: 0x178B4, size: 0x8, addend: 0x0, symName: __ZNKSt3__16vectorIP10CComponentNS_9allocatorIS2_EEE20__throw_length_errorB7v160006Ev, symObjAddr: 0x165A4, symBinAddr: 0x10001942C, symSize: 0x20 }
  - { offsetInCU: 0x178E5, offset: 0x178E5, size: 0x8, addend: 0x0, symName: __ZNSt3__116allocator_traitsINS_9allocatorIP10CComponentEEE8max_sizeB7v160006IS4_vvEEmRKS4_, symObjAddr: 0x165C4, symBinAddr: 0x10001944C, symSize: 0x28 }
  - { offsetInCU: 0x17910, offset: 0x17910, size: 0x8, addend: 0x0, symName: __ZNKSt3__16vectorIP10CComponentNS_9allocatorIS2_EEE7__allocB7v160006Ev, symObjAddr: 0x165EC, symBinAddr: 0x100019474, symSize: 0x28 }
  - { offsetInCU: 0x17936, offset: 0x17936, size: 0x8, addend: 0x0, symName: __ZNKSt3__117__compressed_pairIPP10CComponentNS_9allocatorIS2_EEE6secondB7v160006Ev, symObjAddr: 0x16614, symBinAddr: 0x10001949C, symSize: 0x24 }
  - { offsetInCU: 0x1795C, offset: 0x1795C, size: 0x8, addend: 0x0, symName: __ZNKSt3__122__compressed_pair_elemINS_9allocatorIP10CComponentEELi1ELb1EE5__getB7v160006Ev, symObjAddr: 0x16638, symBinAddr: 0x1000194C0, symSize: 0x14 }
  - { offsetInCU: 0x17982, offset: 0x17982, size: 0x8, addend: 0x0, symName: __ZNSt3__114__split_bufferIP10CComponentRNS_9allocatorIS2_EEEC2EmmS5_, symObjAddr: 0x1664C, symBinAddr: 0x1000194D4, symSize: 0x520 }
  - { offsetInCU: 0x179FD, offset: 0x179FD, size: 0x8, addend: 0x0, symName: __ZNSt3__117__compressed_pairIPP10CComponentRNS_9allocatorIS2_EEEC1B7v160006IDnS6_EEOT_OT0_, symObjAddr: 0x16B6C, symBinAddr: 0x1000199F4, symSize: 0x3C }
  - { offsetInCU: 0x17A55, offset: 0x17A55, size: 0x8, addend: 0x0, symName: __ZNSt3__114__split_bufferIP10CComponentRNS_9allocatorIS2_EEE7__allocB7v160006Ev, symObjAddr: 0x16E34, symBinAddr: 0x100019CBC, symSize: 0x28 }
  - { offsetInCU: 0x17A7B, offset: 0x17A7B, size: 0x8, addend: 0x0, symName: __ZNSt3__114__split_bufferIP10CComponentRNS_9allocatorIS2_EEE9__end_capB7v160006Ev, symObjAddr: 0x16E5C, symBinAddr: 0x100019CE4, symSize: 0x28 }
  - { offsetInCU: 0x17AA1, offset: 0x17AA1, size: 0x8, addend: 0x0, symName: __ZNSt3__117__compressed_pairIPP10CComponentRNS_9allocatorIS2_EEEC2B7v160006IDnS6_EEOT_OT0_, symObjAddr: 0x16E84, symBinAddr: 0x100019D0C, symSize: 0x48 }
  - { offsetInCU: 0x17AF9, offset: 0x17AF9, size: 0x8, addend: 0x0, symName: __ZNSt3__122__compressed_pair_elemIRNS_9allocatorIP10CComponentEELi1ELb0EEC2B7v160006IS5_vEEOT_, symObjAddr: 0x16ECC, symBinAddr: 0x100019D54, symSize: 0x70 }
  - { offsetInCU: 0x17B3B, offset: 0x17B3B, size: 0x8, addend: 0x0, symName: __ZNSt3__19allocatorIP10CComponentE8allocateB7v160006Em, symObjAddr: 0x16F3C, symBinAddr: 0x100019DC4, symSize: 0x5C }
  - { offsetInCU: 0x17B6F, offset: 0x17B6F, size: 0x8, addend: 0x0, symName: __ZNSt3__117__compressed_pairIPP10CComponentRNS_9allocatorIS2_EEE6secondB7v160006Ev, symObjAddr: 0x16F98, symBinAddr: 0x100019E20, symSize: 0x28 }
  - { offsetInCU: 0x17B95, offset: 0x17B95, size: 0x8, addend: 0x0, symName: __ZNSt3__122__compressed_pair_elemIRNS_9allocatorIP10CComponentEELi1ELb0EE5__getB7v160006Ev, symObjAddr: 0x16FC0, symBinAddr: 0x100019E48, symSize: 0x60 }
  - { offsetInCU: 0x17BBB, offset: 0x17BBB, size: 0x8, addend: 0x0, symName: __ZNSt3__117__compressed_pairIPP10CComponentRNS_9allocatorIS2_EEE5firstB7v160006Ev, symObjAddr: 0x17020, symBinAddr: 0x100019EA8, symSize: 0x24 }
  - { offsetInCU: 0x17BE1, offset: 0x17BE1, size: 0x8, addend: 0x0, symName: __ZNKSt3__16vectorIP10CComponentNS_9allocatorIS2_EEE17__annotate_deleteB7v160006Ev, symObjAddr: 0x17044, symBinAddr: 0x100019ECC, symSize: 0xCC }
  - { offsetInCU: 0x17C07, offset: 0x17C07, size: 0x8, addend: 0x0, symName: __ZNSt3__116reverse_iteratorIPP10CComponentEC1B7v160006ES3_, symObjAddr: 0x175B8, symBinAddr: 0x10001A440, symSize: 0x34 }
  - { offsetInCU: 0x17C3F, offset: 0x17C3F, size: 0x8, addend: 0x0, symName: __ZNKSt3__116reverse_iteratorIPP10CComponentE4baseB7v160006Ev, symObjAddr: 0x175EC, symBinAddr: 0x10001A474, symSize: 0x64 }
  - { offsetInCU: 0x17C65, offset: 0x17C65, size: 0x8, addend: 0x0, symName: __ZNKSt3__16vectorIP10CComponentNS_9allocatorIS2_EEE14__annotate_newB7v160006Em, symObjAddr: 0x17784, symBinAddr: 0x10001A60C, symSize: 0xC0 }
  - { offsetInCU: 0x17CB7, offset: 0x17CB7, size: 0x8, addend: 0x0, symName: __ZNKSt3__111__move_loopINS_17_ClassicAlgPolicyEEclB7v160006INS_16reverse_iteratorIPP10CComponentEES8_S8_EENS_4pairIT_T1_EESA_T0_SB_, symObjAddr: 0x19128, symBinAddr: 0x10001BFB0, symSize: 0x3A8 }
  - { offsetInCU: 0x17D2F, offset: 0x17D2F, size: 0x8, addend: 0x0, symName: __ZNSt3__119__unwrap_range_implINS_16reverse_iteratorIPP10CComponentEES5_E8__unwrapB7v160006ES5_S5_, symObjAddr: 0x19FB0, symBinAddr: 0x10001CE38, symSize: 0x448 }
  - { offsetInCU: 0x17D6E, offset: 0x17D6E, size: 0x8, addend: 0x0, symName: __ZNSt3__14pairINS_16reverse_iteratorIPP10CComponentEES5_EC1B7v160006IS5_S5_LPv0EEEOT_OT0_, symObjAddr: 0x1A3F8, symBinAddr: 0x10001D280, symSize: 0x3C }
  - { offsetInCU: 0x17DCC, offset: 0x17DCC, size: 0x8, addend: 0x0, symName: __ZNSt3__14pairINS_16reverse_iteratorIPP10CComponentEES5_EC2B7v160006IS5_S5_LPv0EEEOT_OT0_, symObjAddr: 0x1A434, symBinAddr: 0x10001D2BC, symSize: 0x54 }
  - { offsetInCU: 0x17E2A, offset: 0x17E2A, size: 0x8, addend: 0x0, symName: __ZNSt3__18_IterOpsINS_17_ClassicAlgPolicyEE11__iter_moveB7v160006IRNS_16reverse_iteratorIPP10CComponentEEEENS_9enable_ifIXsr12is_referenceIDTdeclsr3stdE7declvalIRT_EEEEE5valueEDTclsr3stdE4movedeclsr3stdE7declvalISC_EEEEE4typeEOSB_, symObjAddr: 0x1A4D0, symBinAddr: 0x10001D358, symSize: 0x28 }
  - { offsetInCU: 0x17E56, offset: 0x17E56, size: 0x8, addend: 0x0, symName: __ZNKSt3__116reverse_iteratorIPP10CComponentEdeB7v160006Ev, symObjAddr: 0x1A4F8, symBinAddr: 0x10001D380, symSize: 0x74 }
  - { offsetInCU: 0x17E8A, offset: 0x17E8A, size: 0x8, addend: 0x0, symName: __ZNSt3__116reverse_iteratorIPP10CComponentEppB7v160006Ev, symObjAddr: 0x1A56C, symBinAddr: 0x10001D3F4, symSize: 0x6C }
  - { offsetInCU: 0x17EB0, offset: 0x17EB0, size: 0x8, addend: 0x0, symName: __ZNSt3__18_IterOpsINS_17_ClassicAlgPolicyEE25__validate_iter_referenceB7v160006IRNS_16reverse_iteratorIPP10CComponentEEEEvv, symObjAddr: 0x1A5D8, symBinAddr: 0x10001D460, symSize: 0x4 }
  - { offsetInCU: 0x17ECE, offset: 0x17ECE, size: 0x8, addend: 0x0, symName: __ZNSt3__118__unwrap_iter_implINS_16reverse_iteratorIPP10CComponentEELb0EE8__unwrapB7v160006ES5_, symObjAddr: 0x1A5DC, symBinAddr: 0x10001D464, symSize: 0x274 }
  - { offsetInCU: 0x17EF5, offset: 0x17EF5, size: 0x8, addend: 0x0, symName: __ZNSt3__119__unwrap_range_implINS_16reverse_iteratorIPP10CComponentEES5_E8__rewrapB7v160006ES5_S5_, symObjAddr: 0x1A850, symBinAddr: 0x10001D6D8, symSize: 0x3D4 }
  - { offsetInCU: 0x17F2E, offset: 0x17F2E, size: 0x8, addend: 0x0, symName: __ZNSt3__118__unwrap_iter_implINS_16reverse_iteratorIPP10CComponentEELb0EE8__rewrapB7v160006ES5_S5_, symObjAddr: 0x1AC24, symBinAddr: 0x10001DAAC, symSize: 0x2E0 }
  - { offsetInCU: 0x17F63, offset: 0x17F63, size: 0x8, addend: 0x0, symName: __ZNSt3__116reverse_iteratorIPP10CComponentEC2B7v160006ES3_, symObjAddr: 0x1AF04, symBinAddr: 0x10001DD8C, symSize: 0xB8 }
  - { offsetInCU: 0x17F9B, offset: 0x17F9B, size: 0x8, addend: 0x0, symName: __ZNSt3__114__split_bufferIP10CComponentRNS_9allocatorIS2_EEED2Ev, symObjAddr: 0x1AFBC, symBinAddr: 0x10001DE44, symSize: 0x104 }
  - { offsetInCU: 0x17FC7, offset: 0x17FC7, size: 0x8, addend: 0x0, symName: __ZNSt3__114__split_bufferIP10CComponentRNS_9allocatorIS2_EEE5clearB7v160006Ev, symObjAddr: 0x1B0C0, symBinAddr: 0x10001DF48, symSize: 0x68 }
  - { offsetInCU: 0x17FED, offset: 0x17FED, size: 0x8, addend: 0x0, symName: __ZNSt3__116allocator_traitsINS_9allocatorIP10CComponentEEE10deallocateB7v160006ERS4_PS3_m, symObjAddr: 0x1B128, symBinAddr: 0x10001DFB0, symSize: 0x34 }
  - { offsetInCU: 0x1802F, offset: 0x1802F, size: 0x8, addend: 0x0, symName: __ZNKSt3__114__split_bufferIP10CComponentRNS_9allocatorIS2_EEE8capacityB7v160006Ev, symObjAddr: 0x1B15C, symBinAddr: 0x10001DFE4, symSize: 0xBC }
  - { offsetInCU: 0x18055, offset: 0x18055, size: 0x8, addend: 0x0, symName: __ZNSt3__114__split_bufferIP10CComponentRNS_9allocatorIS2_EEE17__destruct_at_endB7v160006EPS2_, symObjAddr: 0x1B218, symBinAddr: 0x10001E0A0, symSize: 0x2C }
  - { offsetInCU: 0x18089, offset: 0x18089, size: 0x8, addend: 0x0, symName: __ZNSt3__114__split_bufferIP10CComponentRNS_9allocatorIS2_EEE17__destruct_at_endB7v160006EPS2_NS_17integral_constantIbLb0EEE, symObjAddr: 0x1B244, symBinAddr: 0x10001E0CC, symSize: 0x10C }
  - { offsetInCU: 0x180C9, offset: 0x180C9, size: 0x8, addend: 0x0, symName: __ZNSt3__116allocator_traitsINS_9allocatorIP10CComponentEEE7destroyB7v160006IS3_vvEEvRS4_PT_, symObjAddr: 0x1B350, symBinAddr: 0x10001E1D8, symSize: 0x28 }
  - { offsetInCU: 0x18103, offset: 0x18103, size: 0x8, addend: 0x0, symName: __ZNSt3__19allocatorIP10CComponentE10deallocateB7v160006EPS2_m, symObjAddr: 0x1B3AC, symBinAddr: 0x10001E234, symSize: 0x4C }
  - { offsetInCU: 0x18145, offset: 0x18145, size: 0x8, addend: 0x0, symName: __ZNKSt3__114__split_bufferIP10CComponentRNS_9allocatorIS2_EEE9__end_capB7v160006Ev, symObjAddr: 0x1B3F8, symBinAddr: 0x10001E280, symSize: 0x28 }
  - { offsetInCU: 0x1816B, offset: 0x1816B, size: 0x8, addend: 0x0, symName: __ZNKSt3__117__compressed_pairIPP10CComponentRNS_9allocatorIS2_EEE5firstB7v160006Ev, symObjAddr: 0x1B420, symBinAddr: 0x10001E2A8, symSize: 0x24 }
  - { offsetInCU: 0x18191, offset: 0x18191, size: 0x8, addend: 0x0, symName: __ZNSt3__16vectorIP10CComponentNS_9allocatorIS2_EEED2B7v160006Ev, symObjAddr: 0x1B444, symBinAddr: 0x10001E2CC, symSize: 0x1F8 }
  - { offsetInCU: 0x181BC, offset: 0x181BC, size: 0x8, addend: 0x0, symName: __ZNSt3__16vectorIP10CComponentNS_9allocatorIS2_EEE16__destroy_vectorC1ERS5_, symObjAddr: 0x1B63C, symBinAddr: 0x10001E4C4, symSize: 0x34 }
  - { offsetInCU: 0x181F5, offset: 0x181F5, size: 0x8, addend: 0x0, symName: __ZNSt3__16vectorIP10CComponentNS_9allocatorIS2_EEE16__destroy_vectorclB7v160006Ev, symObjAddr: 0x1B670, symBinAddr: 0x10001E4F8, symSize: 0x264 }
  - { offsetInCU: 0x1821B, offset: 0x1821B, size: 0x8, addend: 0x0, symName: __ZNSt3__16vectorIP10CComponentNS_9allocatorIS2_EEE16__destroy_vectorC2ERS5_, symObjAddr: 0x1B8D4, symBinAddr: 0x10001E75C, symSize: 0x70 }
  - { offsetInCU: 0x18254, offset: 0x18254, size: 0x8, addend: 0x0, symName: __ZNSt3__16vectorIP10CComponentNS_9allocatorIS2_EEE7__clearB7v160006Ev, symObjAddr: 0x1B954, symBinAddr: 0x10001E7DC, symSize: 0x64 }
  - { offsetInCU: 0x1827A, offset: 0x1827A, size: 0x8, addend: 0x0, symName: __ZNSt3__16vectorIP10CComponentNS_9allocatorIS2_EEE22__base_destruct_at_endB7v160006EPS2_, symObjAddr: 0x1B9B8, symBinAddr: 0x10001E840, symSize: 0x114 }
  - { offsetInCU: 0x182BE, offset: 0x182BE, size: 0x8, addend: 0x0, symName: __ZNSt3__16vectorINS_12basic_stringIcNS_11char_traitsIcEENS_9allocatorIcEEEENS4_IS6_EEED2B7v160006Ev, symObjAddr: 0x1BACC, symBinAddr: 0x10001E954, symSize: 0x1F8 }
  - { offsetInCU: 0x182E9, offset: 0x182E9, size: 0x8, addend: 0x0, symName: __ZN9CComputerC2ERKNSt3__112basic_stringIcNS0_11char_traitsIcEENS0_9allocatorIcEEEE, symObjAddr: 0x1BCC4, symBinAddr: 0x10001EB4C, symSize: 0x4C }
  - { offsetInCU: 0x18321, offset: 0x18321, size: 0x8, addend: 0x0, symName: __ZNSt3__16vectorINS_12basic_stringIcNS_11char_traitsIcEENS_9allocatorIcEEEENS4_IS6_EEEC1B7v160006Ev, symObjAddr: 0x1BD10, symBinAddr: 0x10001EB98, symSize: 0x2C }
  - { offsetInCU: 0x1834B, offset: 0x1834B, size: 0x8, addend: 0x0, symName: __ZNSt3__16vectorINS_12basic_stringIcNS_11char_traitsIcEENS_9allocatorIcEEEENS4_IS6_EEEC2B7v160006Ev, symObjAddr: 0x1BD3C, symBinAddr: 0x10001EBC4, symSize: 0x2F0 }
  - { offsetInCU: 0x18376, offset: 0x18376, size: 0x8, addend: 0x0, symName: __ZNSt3__117__compressed_pairIPNS_12basic_stringIcNS_11char_traitsIcEENS_9allocatorIcEEEENS4_IS6_EEEC1B7v160006IDnNS_18__default_init_tagEEEOT_OT0_, symObjAddr: 0x1C02C, symBinAddr: 0x10001EEB4, symSize: 0x3C }
  - { offsetInCU: 0x183CE, offset: 0x183CE, size: 0x8, addend: 0x0, symName: __ZNSt3__117__compressed_pairIPNS_12basic_stringIcNS_11char_traitsIcEENS_9allocatorIcEEEENS4_IS6_EEEC2B7v160006IDnNS_18__default_init_tagEEEOT_OT0_, symObjAddr: 0x1C068, symBinAddr: 0x10001EEF0, symSize: 0x40 }
  - { offsetInCU: 0x18426, offset: 0x18426, size: 0x8, addend: 0x0, symName: __ZNSt3__122__compressed_pair_elemINS_9allocatorINS_12basic_stringIcNS_11char_traitsIcEENS1_IcEEEEEELi1ELb1EEC2B7v160006ENS_18__default_init_tagE, symObjAddr: 0x1C0A8, symBinAddr: 0x10001EF30, symSize: 0x2C }
  - { offsetInCU: 0x1845A, offset: 0x1845A, size: 0x8, addend: 0x0, symName: __ZNSt3__19allocatorINS_12basic_stringIcNS_11char_traitsIcEENS0_IcEEEEEC2B7v160006Ev, symObjAddr: 0x1C0D4, symBinAddr: 0x10001EF5C, symSize: 0x2C }
  - { offsetInCU: 0x18484, offset: 0x18484, size: 0x8, addend: 0x0, symName: __ZNSt3__116__non_trivial_ifILb1ENS_9allocatorINS_12basic_stringIcNS_11char_traitsIcEENS1_IcEEEEEEEC2B7v160006Ev, symObjAddr: 0x1C100, symBinAddr: 0x10001EF88, symSize: 0x14 }
  - { offsetInCU: 0x184AE, offset: 0x184AE, size: 0x8, addend: 0x0, symName: __ZNSt3__16vectorINS_12basic_stringIcNS_11char_traitsIcEENS_9allocatorIcEEEENS4_IS6_EEE9push_backB7v160006ERKS6_, symObjAddr: 0x1C114, symBinAddr: 0x10001EF9C, symSize: 0xE0 }
  - { offsetInCU: 0x184E5, offset: 0x184E5, size: 0x8, addend: 0x0, symName: __ZNSt3__16vectorINS_12basic_stringIcNS_11char_traitsIcEENS_9allocatorIcEEEENS4_IS6_EEE22__construct_one_at_endB7v160006IJRKS6_EEEvDpOT_, symObjAddr: 0x1C1F4, symBinAddr: 0x10001F07C, symSize: 0x36C }
  - { offsetInCU: 0x1853A, offset: 0x1853A, size: 0x8, addend: 0x0, symName: __ZNSt3__16vectorINS_12basic_stringIcNS_11char_traitsIcEENS_9allocatorIcEEEENS4_IS6_EEE21__push_back_slow_pathIRKS6_EEvOT_, symObjAddr: 0x1C560, symBinAddr: 0x10001F3E8, symSize: 0x3C0 }
  - { offsetInCU: 0x1859F, offset: 0x1859F, size: 0x8, addend: 0x0, symName: __ZNSt3__116allocator_traitsINS_9allocatorINS_12basic_stringIcNS_11char_traitsIcEENS1_IcEEEEEEE9constructB7v160006IS6_JRKS6_EvvEEvRS7_PT_DpOT0_, symObjAddr: 0x1C920, symBinAddr: 0x10001F7A8, symSize: 0x30 }
  - { offsetInCU: 0x185F3, offset: 0x185F3, size: 0x8, addend: 0x0, symName: __ZNKSt3__16vectorINS_12basic_stringIcNS_11char_traitsIcEENS_9allocatorIcEEEENS4_IS6_EEE11__recommendB7v160006Em, symObjAddr: 0x1C98C, symBinAddr: 0x10001F814, symSize: 0x384 }
  - { offsetInCU: 0x1864F, offset: 0x1864F, size: 0x8, addend: 0x0, symName: __ZNSt3__114__split_bufferINS_12basic_stringIcNS_11char_traitsIcEENS_9allocatorIcEEEERNS4_IS6_EEEC1EmmS8_, symObjAddr: 0x1CD10, symBinAddr: 0x10001FB98, symSize: 0x44 }
  - { offsetInCU: 0x186A5, offset: 0x186A5, size: 0x8, addend: 0x0, symName: __ZNSt3__114__split_bufferINS_12basic_stringIcNS_11char_traitsIcEENS_9allocatorIcEEEERNS4_IS6_EEED1Ev, symObjAddr: 0x1D2C8, symBinAddr: 0x100020150, symSize: 0x2C }
  - { offsetInCU: 0x186D1, offset: 0x186D1, size: 0x8, addend: 0x0, symName: __ZNSt3__114__split_bufferINS_12basic_stringIcNS_11char_traitsIcEENS_9allocatorIcEEEERNS4_IS6_EEEC2EmmS8_, symObjAddr: 0x1D2F4, symBinAddr: 0x10002017C, symSize: 0x530 }
  - { offsetInCU: 0x1874C, offset: 0x1874C, size: 0x8, addend: 0x0, symName: __ZNSt3__117__compressed_pairIPNS_12basic_stringIcNS_11char_traitsIcEENS_9allocatorIcEEEERNS4_IS6_EEEC1B7v160006IDnS9_EEOT_OT0_, symObjAddr: 0x1D824, symBinAddr: 0x1000206AC, symSize: 0x3C }
  - { offsetInCU: 0x187A4, offset: 0x187A4, size: 0x8, addend: 0x0, symName: __ZNSt3__114__split_bufferINS_12basic_stringIcNS_11char_traitsIcEENS_9allocatorIcEEEERNS4_IS6_EEE7__allocB7v160006Ev, symObjAddr: 0x1D860, symBinAddr: 0x1000206E8, symSize: 0x28 }
  - { offsetInCU: 0x187CA, offset: 0x187CA, size: 0x8, addend: 0x0, symName: __ZNSt3__114__split_bufferINS_12basic_stringIcNS_11char_traitsIcEENS_9allocatorIcEEEERNS4_IS6_EEE9__end_capB7v160006Ev, symObjAddr: 0x1D888, symBinAddr: 0x100020710, symSize: 0x28 }
  - { offsetInCU: 0x187F0, offset: 0x187F0, size: 0x8, addend: 0x0, symName: __ZNSt3__117__compressed_pairIPNS_12basic_stringIcNS_11char_traitsIcEENS_9allocatorIcEEEERNS4_IS6_EEEC2B7v160006IDnS9_EEOT_OT0_, symObjAddr: 0x1D8B0, symBinAddr: 0x100020738, symSize: 0x48 }
  - { offsetInCU: 0x18848, offset: 0x18848, size: 0x8, addend: 0x0, symName: __ZNSt3__122__compressed_pair_elemIRNS_9allocatorINS_12basic_stringIcNS_11char_traitsIcEENS1_IcEEEEEELi1ELb0EEC2B7v160006IS8_vEEOT_, symObjAddr: 0x1D8F8, symBinAddr: 0x100020780, symSize: 0x70 }
  - { offsetInCU: 0x1888A, offset: 0x1888A, size: 0x8, addend: 0x0, symName: __ZNSt3__117__compressed_pairIPNS_12basic_stringIcNS_11char_traitsIcEENS_9allocatorIcEEEERNS4_IS6_EEE6secondB7v160006Ev, symObjAddr: 0x1D968, symBinAddr: 0x1000207F0, symSize: 0x28 }
  - { offsetInCU: 0x188B0, offset: 0x188B0, size: 0x8, addend: 0x0, symName: __ZNSt3__122__compressed_pair_elemIRNS_9allocatorINS_12basic_stringIcNS_11char_traitsIcEENS1_IcEEEEEELi1ELb0EE5__getB7v160006Ev, symObjAddr: 0x1D990, symBinAddr: 0x100020818, symSize: 0x60 }
  - { offsetInCU: 0x188D6, offset: 0x188D6, size: 0x8, addend: 0x0, symName: __ZNSt3__117__compressed_pairIPNS_12basic_stringIcNS_11char_traitsIcEENS_9allocatorIcEEEERNS4_IS6_EEE5firstB7v160006Ev, symObjAddr: 0x1D9F0, symBinAddr: 0x100020878, symSize: 0x24 }
  - { offsetInCU: 0x188FC, offset: 0x188FC, size: 0x8, addend: 0x0, symName: __ZNSt3__129_AllocatorDestroyRangeReverseINS_9allocatorINS_12basic_stringIcNS_11char_traitsIcEENS1_IcEEEEEENS_16reverse_iteratorIPS6_EEEC1B7v160006ERS7_RSA_SD_, symObjAddr: 0x1E28C, symBinAddr: 0x100021114, symSize: 0x44 }
  - { offsetInCU: 0x18959, offset: 0x18959, size: 0x8, addend: 0x0, symName: __ZNSt3__116allocator_traitsINS_9allocatorINS_12basic_stringIcNS_11char_traitsIcEENS1_IcEEEEEEE9constructB7v160006IS6_JS6_EvvEEvRS7_PT_DpOT0_, symObjAddr: 0x1E2D0, symBinAddr: 0x100021158, symSize: 0x30 }
  - { offsetInCU: 0x189AD, offset: 0x189AD, size: 0x8, addend: 0x0, symName: __ZNKSt3__116reverse_iteratorIPNS_12basic_stringIcNS_11char_traitsIcEENS_9allocatorIcEEEEEdeB7v160006Ev, symObjAddr: 0x1E300, symBinAddr: 0x100021188, symSize: 0x74 }
  - { offsetInCU: 0x189E1, offset: 0x189E1, size: 0x8, addend: 0x0, symName: __ZNSt3__128__exception_guard_exceptionsINS_29_AllocatorDestroyRangeReverseINS_9allocatorINS_12basic_stringIcNS_11char_traitsIcEENS2_IcEEEEEENS_16reverse_iteratorIPS7_EEEEE10__completeB7v160006Ev, symObjAddr: 0x1E374, symBinAddr: 0x1000211FC, symSize: 0x8C }
  - { offsetInCU: 0x18A07, offset: 0x18A07, size: 0x8, addend: 0x0, symName: __ZNSt3__128__exception_guard_exceptionsINS_29_AllocatorDestroyRangeReverseINS_9allocatorINS_12basic_stringIcNS_11char_traitsIcEENS2_IcEEEEEENS_16reverse_iteratorIPS7_EEEEED1B7v160006Ev, symObjAddr: 0x1E400, symBinAddr: 0x100021288, symSize: 0x2C }
  - { offsetInCU: 0x18A31, offset: 0x18A31, size: 0x8, addend: 0x0, symName: __ZNSt3__128__exception_guard_exceptionsINS_29_AllocatorDestroyRangeReverseINS_9allocatorINS_12basic_stringIcNS_11char_traitsIcEENS2_IcEEEEEENS_16reverse_iteratorIPS7_EEEEEC1B7v160006ESC_, symObjAddr: 0x1E42C, symBinAddr: 0x1000212B4, symSize: 0x34 }
  - { offsetInCU: 0x18A6A, offset: 0x18A6A, size: 0x8, addend: 0x0, symName: __ZNSt3__128__exception_guard_exceptionsINS_29_AllocatorDestroyRangeReverseINS_9allocatorINS_12basic_stringIcNS_11char_traitsIcEENS2_IcEEEEEENS_16reverse_iteratorIPS7_EEEEEC2B7v160006ESC_, symObjAddr: 0x1E460, symBinAddr: 0x1000212E8, symSize: 0xA4 }
  - { offsetInCU: 0x18AA3, offset: 0x18AA3, size: 0x8, addend: 0x0, symName: __ZNSt3__129_AllocatorDestroyRangeReverseINS_9allocatorINS_12basic_stringIcNS_11char_traitsIcEENS1_IcEEEEEENS_16reverse_iteratorIPS6_EEEC2B7v160006ERS7_RSA_SD_, symObjAddr: 0x1E504, symBinAddr: 0x10002138C, symSize: 0x104 }
  - { offsetInCU: 0x18AFA, offset: 0x18AFA, size: 0x8, addend: 0x0, symName: __ZNSt3__112basic_stringIcNS_11char_traitsIcEENS_9allocatorIcEEEC1B7v160006EOS5_, symObjAddr: 0x1E644, symBinAddr: 0x1000214CC, symSize: 0x34 }
  - { offsetInCU: 0x18B33, offset: 0x18B33, size: 0x8, addend: 0x0, symName: __ZNSt3__112basic_stringIcNS_11char_traitsIcEENS_9allocatorIcEEEC2B7v160006EOS5_, symObjAddr: 0x1E678, symBinAddr: 0x100021500, symSize: 0x84 }
  - { offsetInCU: 0x18B6C, offset: 0x18B6C, size: 0x8, addend: 0x0, symName: __ZNSt3__112basic_stringIcNS_11char_traitsIcEENS_9allocatorIcEEE14__default_initB7v160006Ev, symObjAddr: 0x1E6FC, symBinAddr: 0x100021584, symSize: 0x22C }
  - { offsetInCU: 0x18B93, offset: 0x18B93, size: 0x8, addend: 0x0, symName: __ZNSt3__128__exception_guard_exceptionsINS_29_AllocatorDestroyRangeReverseINS_9allocatorINS_12basic_stringIcNS_11char_traitsIcEENS2_IcEEEEEENS_16reverse_iteratorIPS7_EEEEED2B7v160006Ev, symObjAddr: 0x1E93C, symBinAddr: 0x1000217C4, symSize: 0xBC }
  - { offsetInCU: 0x18BBD, offset: 0x18BBD, size: 0x8, addend: 0x0, symName: __ZNKSt3__129_AllocatorDestroyRangeReverseINS_9allocatorINS_12basic_stringIcNS_11char_traitsIcEENS1_IcEEEEEENS_16reverse_iteratorIPS6_EEEclB7v160006Ev, symObjAddr: 0x1E9F8, symBinAddr: 0x100021880, symSize: 0x3A8 }
  - { offsetInCU: 0x18BE4, offset: 0x18BE4, size: 0x8, addend: 0x0, symName: __ZNSt3__116reverse_iteratorINS0_IPNS_12basic_stringIcNS_11char_traitsIcEENS_9allocatorIcEEEEEEEC1B7v160006ES8_, symObjAddr: 0x1EE10, symBinAddr: 0x100021C98, symSize: 0x248 }
  - { offsetInCU: 0x18C21, offset: 0x18C21, size: 0x8, addend: 0x0, symName: __ZNSt3__116reverse_iteratorINS0_IPNS_12basic_stringIcNS_11char_traitsIcEENS_9allocatorIcEEEEEEEppB7v160006Ev, symObjAddr: 0x1F348, symBinAddr: 0x1000221D0, symSize: 0x30 }
  - { offsetInCU: 0x18C47, offset: 0x18C47, size: 0x8, addend: 0x0, symName: __ZNKSt3__116reverse_iteratorINS0_IPNS_12basic_stringIcNS_11char_traitsIcEENS_9allocatorIcEEEEEEE4baseB7v160006Ev, symObjAddr: 0x1F378, symBinAddr: 0x100022200, symSize: 0x20C }
  - { offsetInCU: 0x18C74, offset: 0x18C74, size: 0x8, addend: 0x0, symName: __ZNSt3__119__to_address_helperINS_16reverse_iteratorINS1_IPNS_12basic_stringIcNS_11char_traitsIcEENS_9allocatorIcEEEEEEEEvE6__callB7v160006ERKSA_, symObjAddr: 0x1F584, symBinAddr: 0x10002240C, symSize: 0x44 }
  - { offsetInCU: 0x18C97, offset: 0x18C97, size: 0x8, addend: 0x0, symName: __ZNKSt3__116reverse_iteratorINS0_IPNS_12basic_stringIcNS_11char_traitsIcEENS_9allocatorIcEEEEEEEptB7v160006Ev, symObjAddr: 0x1F5C8, symBinAddr: 0x100022450, symSize: 0x2A0 }
  - { offsetInCU: 0x18CBE, offset: 0x18CBE, size: 0x8, addend: 0x0, symName: __ZNSt3__116reverse_iteratorIPNS_12basic_stringIcNS_11char_traitsIcEENS_9allocatorIcEEEEEpLB7v160006El, symObjAddr: 0x1FB94, symBinAddr: 0x100022A1C, symSize: 0x84 }
  - { offsetInCU: 0x18CF2, offset: 0x18CF2, size: 0x8, addend: 0x0, symName: __ZNSt3__116reverse_iteratorIPNS_12basic_stringIcNS_11char_traitsIcEENS_9allocatorIcEEEEEmmB7v160006Ev, symObjAddr: 0x1FC18, symBinAddr: 0x100022AA0, symSize: 0x6C }
  - { offsetInCU: 0x18D18, offset: 0x18D18, size: 0x8, addend: 0x0, symName: __ZNSt3__116reverse_iteratorINS0_IPNS_12basic_stringIcNS_11char_traitsIcEENS_9allocatorIcEEEEEEEC2B7v160006ES8_, symObjAddr: 0x1FC84, symBinAddr: 0x100022B0C, symSize: 0x22C }
  - { offsetInCU: 0x18D55, offset: 0x18D55, size: 0x8, addend: 0x0, symName: __ZNSt3__114__split_bufferINS_12basic_stringIcNS_11char_traitsIcEENS_9allocatorIcEEEERNS4_IS6_EEED2Ev, symObjAddr: 0x1FEB0, symBinAddr: 0x100022D38, symSize: 0x104 }
  - { offsetInCU: 0x18D81, offset: 0x18D81, size: 0x8, addend: 0x0, symName: __ZNSt3__114__split_bufferINS_12basic_stringIcNS_11char_traitsIcEENS_9allocatorIcEEEERNS4_IS6_EEE5clearB7v160006Ev, symObjAddr: 0x1FFB4, symBinAddr: 0x100022E3C, symSize: 0x68 }
  - { offsetInCU: 0x18DA7, offset: 0x18DA7, size: 0x8, addend: 0x0, symName: __ZNKSt3__114__split_bufferINS_12basic_stringIcNS_11char_traitsIcEENS_9allocatorIcEEEERNS4_IS6_EEE8capacityB7v160006Ev, symObjAddr: 0x2001C, symBinAddr: 0x100022EA4, symSize: 0xBC }
  - { offsetInCU: 0x18DCD, offset: 0x18DCD, size: 0x8, addend: 0x0, symName: __ZNSt3__114__split_bufferINS_12basic_stringIcNS_11char_traitsIcEENS_9allocatorIcEEEERNS4_IS6_EEE17__destruct_at_endB7v160006EPS6_, symObjAddr: 0x200D8, symBinAddr: 0x100022F60, symSize: 0x2C }
  - { offsetInCU: 0x18E01, offset: 0x18E01, size: 0x8, addend: 0x0, symName: __ZNSt3__114__split_bufferINS_12basic_stringIcNS_11char_traitsIcEENS_9allocatorIcEEEERNS4_IS6_EEE17__destruct_at_endB7v160006EPS6_NS_17integral_constantIbLb0EEE, symObjAddr: 0x20104, symBinAddr: 0x100022F8C, symSize: 0x10C }
  - { offsetInCU: 0x18E41, offset: 0x18E41, size: 0x8, addend: 0x0, symName: __ZNKSt3__114__split_bufferINS_12basic_stringIcNS_11char_traitsIcEENS_9allocatorIcEEEERNS4_IS6_EEE9__end_capB7v160006Ev, symObjAddr: 0x20210, symBinAddr: 0x100023098, symSize: 0x28 }
  - { offsetInCU: 0x18E67, offset: 0x18E67, size: 0x8, addend: 0x0, symName: __ZNKSt3__117__compressed_pairIPNS_12basic_stringIcNS_11char_traitsIcEENS_9allocatorIcEEEERNS4_IS6_EEE5firstB7v160006Ev, symObjAddr: 0x20238, symBinAddr: 0x1000230C0, symSize: 0x24 }
  - { offsetInCU: 0x18E8D, offset: 0x18E8D, size: 0x8, addend: 0x0, symName: __ZN4CCPUC2Eii, symObjAddr: 0x2025C, symBinAddr: 0x1000230E4, symSize: 0x164 }
  - { offsetInCU: 0x18ED3, offset: 0x18ED3, size: 0x8, addend: 0x0, symName: __ZN10CComponentC2Ev, symObjAddr: 0x203C0, symBinAddr: 0x100023248, symSize: 0x74 }
  - { offsetInCU: 0x18EFF, offset: 0x18EFF, size: 0x8, addend: 0x0, symName: __ZN4CCPUD0Ev, symObjAddr: 0x20434, symBinAddr: 0x1000232BC, symSize: 0x30 }
  - { offsetInCU: 0x18F2B, offset: 0x18F2B, size: 0x8, addend: 0x0, symName: __ZNK4CCPU5cloneEv, symObjAddr: 0x20464, symBinAddr: 0x1000232EC, symSize: 0x3C }
  - { offsetInCU: 0x18F51, offset: 0x18F51, size: 0x8, addend: 0x0, symName: __ZNK4CCPU5printERNSt3__113basic_ostreamIcNS0_11char_traitsIcEEEEbbb, symObjAddr: 0x204A0, symBinAddr: 0x100023328, symSize: 0x188 }
  - { offsetInCU: 0x18FAF, offset: 0x18FAF, size: 0x8, addend: 0x0, symName: __ZN10CComponentD1Ev, symObjAddr: 0x20628, symBinAddr: 0x1000234B0, symSize: 0x20 }
  - { offsetInCU: 0x18FD9, offset: 0x18FD9, size: 0x8, addend: 0x0, symName: __ZN10CComponentD0Ev, symObjAddr: 0x20648, symBinAddr: 0x1000234D0, symSize: 0x18 }
  - { offsetInCU: 0x19009, offset: 0x19009, size: 0x8, addend: 0x0, symName: __ZN4CCPUC1ERKS_, symObjAddr: 0x20660, symBinAddr: 0x1000234E8, symSize: 0x34 }
  - { offsetInCU: 0x1903E, offset: 0x1903E, size: 0x8, addend: 0x0, symName: __ZN4CCPUC2ERKS_, symObjAddr: 0x20694, symBinAddr: 0x10002351C, symSize: 0xA4 }
  - { offsetInCU: 0x19073, offset: 0x19073, size: 0x8, addend: 0x0, symName: __ZN10CComponentC2ERKS_, symObjAddr: 0x20738, symBinAddr: 0x1000235C0, symSize: 0x78 }
  - { offsetInCU: 0x190A8, offset: 0x190A8, size: 0x8, addend: 0x0, symName: __ZN5CDiskC2ENS_4TypeEi, symObjAddr: 0x207B0, symBinAddr: 0x100023638, symSize: 0x170 }
  - { offsetInCU: 0x190EE, offset: 0x190EE, size: 0x8, addend: 0x0, symName: __ZNSt3__16vectorINS_4pairIiNS_12basic_stringIcNS_11char_traitsIcEENS_9allocatorIcEEEEEENS5_IS8_EEEC1B7v160006Ev, symObjAddr: 0x20920, symBinAddr: 0x1000237A8, symSize: 0x2C }
  - { offsetInCU: 0x19118, offset: 0x19118, size: 0x8, addend: 0x0, symName: __ZN5CDiskD0Ev, symObjAddr: 0x2094C, symBinAddr: 0x1000237D4, symSize: 0x30 }
  - { offsetInCU: 0x19144, offset: 0x19144, size: 0x8, addend: 0x0, symName: __ZNK5CDisk5cloneEv, symObjAddr: 0x2097C, symBinAddr: 0x100023804, symSize: 0x64 }
  - { offsetInCU: 0x1916A, offset: 0x1916A, size: 0x8, addend: 0x0, symName: __ZNK5CDisk5printERNSt3__113basic_ostreamIcNS0_11char_traitsIcEEEEbbb, symObjAddr: 0x209E0, symBinAddr: 0x100023868, symSize: 0x6F4 }
  - { offsetInCU: 0x191F2, offset: 0x191F2, size: 0x8, addend: 0x0, symName: __ZNSt3__16vectorINS_4pairIiNS_12basic_stringIcNS_11char_traitsIcEENS_9allocatorIcEEEEEENS5_IS8_EEEC2B7v160006Ev, symObjAddr: 0x210D4, symBinAddr: 0x100023F5C, symSize: 0x2F4 }
  - { offsetInCU: 0x1921D, offset: 0x1921D, size: 0x8, addend: 0x0, symName: __ZNSt3__117__compressed_pairIPNS_4pairIiNS_12basic_stringIcNS_11char_traitsIcEENS_9allocatorIcEEEEEENS5_IS8_EEEC1B7v160006IDnNS_18__default_init_tagEEEOT_OT0_, symObjAddr: 0x213C8, symBinAddr: 0x100024250, symSize: 0x3C }
  - { offsetInCU: 0x19275, offset: 0x19275, size: 0x8, addend: 0x0, symName: __ZNSt3__117__compressed_pairIPNS_4pairIiNS_12basic_stringIcNS_11char_traitsIcEENS_9allocatorIcEEEEEENS5_IS8_EEEC2B7v160006IDnNS_18__default_init_tagEEEOT_OT0_, symObjAddr: 0x21414, symBinAddr: 0x10002429C, symSize: 0x40 }
  - { offsetInCU: 0x192CD, offset: 0x192CD, size: 0x8, addend: 0x0, symName: __ZNSt3__122__compressed_pair_elemIPNS_4pairIiNS_12basic_stringIcNS_11char_traitsIcEENS_9allocatorIcEEEEEELi0ELb0EEC2B7v160006IDnvEEOT_, symObjAddr: 0x21454, symBinAddr: 0x1000242DC, symSize: 0x64 }
  - { offsetInCU: 0x1930F, offset: 0x1930F, size: 0x8, addend: 0x0, symName: __ZNSt3__122__compressed_pair_elemINS_9allocatorINS_4pairIiNS_12basic_stringIcNS_11char_traitsIcEENS1_IcEEEEEEEELi1ELb1EEC2B7v160006ENS_18__default_init_tagE, symObjAddr: 0x214B8, symBinAddr: 0x100024340, symSize: 0x2C }
  - { offsetInCU: 0x19343, offset: 0x19343, size: 0x8, addend: 0x0, symName: __ZNSt3__19allocatorINS_4pairIiNS_12basic_stringIcNS_11char_traitsIcEENS0_IcEEEEEEEC2B7v160006Ev, symObjAddr: 0x214E4, symBinAddr: 0x10002436C, symSize: 0x2C }
  - { offsetInCU: 0x1936D, offset: 0x1936D, size: 0x8, addend: 0x0, symName: __ZNSt3__116__non_trivial_ifILb1ENS_9allocatorINS_4pairIiNS_12basic_stringIcNS_11char_traitsIcEENS1_IcEEEEEEEEEC2B7v160006Ev, symObjAddr: 0x21510, symBinAddr: 0x100024398, symSize: 0x14 }
  - { offsetInCU: 0x1939D, offset: 0x1939D, size: 0x8, addend: 0x0, symName: __ZN5CDiskC1ERKS_, symObjAddr: 0x21524, symBinAddr: 0x1000243AC, symSize: 0x34 }
  - { offsetInCU: 0x193D2, offset: 0x193D2, size: 0x8, addend: 0x0, symName: __ZN5CDiskC2ERKS_, symObjAddr: 0x21558, symBinAddr: 0x1000243E0, symSize: 0xE0 }
  - { offsetInCU: 0x19407, offset: 0x19407, size: 0x8, addend: 0x0, symName: __ZNSt3__16vectorINS_4pairIiNS_12basic_stringIcNS_11char_traitsIcEENS_9allocatorIcEEEEEENS5_IS8_EEEC1ERKSA_, symObjAddr: 0x21638, symBinAddr: 0x1000244C0, symSize: 0x34 }
  - { offsetInCU: 0x19442, offset: 0x19442, size: 0x8, addend: 0x0, symName: __ZN10CComponentD2Ev, symObjAddr: 0x2166C, symBinAddr: 0x1000244F4, symSize: 0x14 }
  - { offsetInCU: 0x1946C, offset: 0x1946C, size: 0x8, addend: 0x0, symName: __ZNSt3__16vectorINS_4pairIiNS_12basic_stringIcNS_11char_traitsIcEENS_9allocatorIcEEEEEENS5_IS8_EEEC2ERKSA_, symObjAddr: 0x21680, symBinAddr: 0x100024508, symSize: 0x538 }
  - { offsetInCU: 0x194DD, offset: 0x194DD, size: 0x8, addend: 0x0, symName: __ZNSt3__116allocator_traitsINS_9allocatorINS_4pairIiNS_12basic_stringIcNS_11char_traitsIcEENS1_IcEEEEEEEEE37select_on_container_copy_constructionB7v160006IS9_vvEES9_RKS9_, symObjAddr: 0x21BB8, symBinAddr: 0x100024A40, symSize: 0x10 }
  - { offsetInCU: 0x1950C, offset: 0x1950C, size: 0x8, addend: 0x0, symName: __ZNKSt3__16vectorINS_4pairIiNS_12basic_stringIcNS_11char_traitsIcEENS_9allocatorIcEEEEEENS5_IS8_EEE7__allocB7v160006Ev, symObjAddr: 0x21BC8, symBinAddr: 0x100024A50, symSize: 0x28 }
  - { offsetInCU: 0x19538, offset: 0x19538, size: 0x8, addend: 0x0, symName: __ZNSt3__117__compressed_pairIPNS_4pairIiNS_12basic_stringIcNS_11char_traitsIcEENS_9allocatorIcEEEEEENS5_IS8_EEEC1B7v160006IDnSA_EEOT_OT0_, symObjAddr: 0x21BF0, symBinAddr: 0x100024A78, symSize: 0x3C }
  - { offsetInCU: 0x19590, offset: 0x19590, size: 0x8, addend: 0x0, symName: __ZNSt3__16vectorINS_4pairIiNS_12basic_stringIcNS_11char_traitsIcEENS_9allocatorIcEEEEEENS5_IS8_EEE16__destroy_vectorC1ERSA_, symObjAddr: 0x21EA4, symBinAddr: 0x100024D2C, symSize: 0x34 }
  - { offsetInCU: 0x195C9, offset: 0x195C9, size: 0x8, addend: 0x0, symName: __ZNKSt3__16vectorINS_4pairIiNS_12basic_stringIcNS_11char_traitsIcEENS_9allocatorIcEEEEEENS5_IS8_EEE4sizeB7v160006Ev, symObjAddr: 0x21ED8, symBinAddr: 0x100024D60, symSize: 0xB0 }
  - { offsetInCU: 0x195EF, offset: 0x195EF, size: 0x8, addend: 0x0, symName: __ZNSt3__16vectorINS_4pairIiNS_12basic_stringIcNS_11char_traitsIcEENS_9allocatorIcEEEEEENS5_IS8_EEE11__vallocateB7v160006Em, symObjAddr: 0x21F88, symBinAddr: 0x100024E10, symSize: 0x420 }
  - { offsetInCU: 0x19639, offset: 0x19639, size: 0x8, addend: 0x0, symName: __ZNSt3__16vectorINS_4pairIiNS_12basic_stringIcNS_11char_traitsIcEENS_9allocatorIcEEEEEENS5_IS8_EEE18__construct_at_endIPS8_Li0EEEvT_SD_m, symObjAddr: 0x223A8, symBinAddr: 0x100025230, symSize: 0x380 }
  - { offsetInCU: 0x196B4, offset: 0x196B4, size: 0x8, addend: 0x0, symName: __ZNSt3__128__exception_guard_exceptionsINS_6vectorINS_4pairIiNS_12basic_stringIcNS_11char_traitsIcEENS_9allocatorIcEEEEEENS6_IS9_EEE16__destroy_vectorEE10__completeB7v160006Ev, symObjAddr: 0x22728, symBinAddr: 0x1000255B0, symSize: 0x8C }
  - { offsetInCU: 0x196DA, offset: 0x196DA, size: 0x8, addend: 0x0, symName: __ZNSt3__128__exception_guard_exceptionsINS_6vectorINS_4pairIiNS_12basic_stringIcNS_11char_traitsIcEENS_9allocatorIcEEEEEENS6_IS9_EEE16__destroy_vectorEED1B7v160006Ev, symObjAddr: 0x227B4, symBinAddr: 0x10002563C, symSize: 0x2C }
  - { offsetInCU: 0x19704, offset: 0x19704, size: 0x8, addend: 0x0, symName: __ZNKSt3__117__compressed_pairIPNS_4pairIiNS_12basic_stringIcNS_11char_traitsIcEENS_9allocatorIcEEEEEENS5_IS8_EEE6secondB7v160006Ev, symObjAddr: 0x227E0, symBinAddr: 0x100025668, symSize: 0x24 }
  - { offsetInCU: 0x1972A, offset: 0x1972A, size: 0x8, addend: 0x0, symName: __ZNKSt3__122__compressed_pair_elemINS_9allocatorINS_4pairIiNS_12basic_stringIcNS_11char_traitsIcEENS1_IcEEEEEEEELi1ELb1EE5__getB7v160006Ev, symObjAddr: 0x22804, symBinAddr: 0x10002568C, symSize: 0x14 }
  - { offsetInCU: 0x19750, offset: 0x19750, size: 0x8, addend: 0x0, symName: __ZNSt3__117__compressed_pairIPNS_4pairIiNS_12basic_stringIcNS_11char_traitsIcEENS_9allocatorIcEEEEEENS5_IS8_EEEC2B7v160006IDnSA_EEOT_OT0_, symObjAddr: 0x22818, symBinAddr: 0x1000256A0, symSize: 0x44 }
  - { offsetInCU: 0x197A8, offset: 0x197A8, size: 0x8, addend: 0x0, symName: __ZNSt3__122__compressed_pair_elemINS_9allocatorINS_4pairIiNS_12basic_stringIcNS_11char_traitsIcEENS1_IcEEEEEEEELi1ELb1EEC2B7v160006IS9_vEEOT_, symObjAddr: 0x2285C, symBinAddr: 0x1000256E4, symSize: 0x18 }
  - { offsetInCU: 0x197EA, offset: 0x197EA, size: 0x8, addend: 0x0, symName: __ZNSt3__128__exception_guard_exceptionsINS_6vectorINS_4pairIiNS_12basic_stringIcNS_11char_traitsIcEENS_9allocatorIcEEEEEENS6_IS9_EEE16__destroy_vectorEEC1B7v160006ESC_, symObjAddr: 0x22874, symBinAddr: 0x1000256FC, symSize: 0x238 }
  - { offsetInCU: 0x19827, offset: 0x19827, size: 0x8, addend: 0x0, symName: __ZNSt3__128__exception_guard_exceptionsINS_6vectorINS_4pairIiNS_12basic_stringIcNS_11char_traitsIcEENS_9allocatorIcEEEEEENS6_IS9_EEE16__destroy_vectorEEC2B7v160006ESC_, symObjAddr: 0x22AAC, symBinAddr: 0x100025934, symSize: 0x264 }
  - { offsetInCU: 0x19864, offset: 0x19864, size: 0x8, addend: 0x0, symName: __ZNSt3__16vectorINS_4pairIiNS_12basic_stringIcNS_11char_traitsIcEENS_9allocatorIcEEEEEENS5_IS8_EEE16__destroy_vectorC2ERSA_, symObjAddr: 0x22D10, symBinAddr: 0x100025B98, symSize: 0x70 }
  - { offsetInCU: 0x1989D, offset: 0x1989D, size: 0x8, addend: 0x0, symName: __ZNKSt3__16vectorINS_4pairIiNS_12basic_stringIcNS_11char_traitsIcEENS_9allocatorIcEEEEEENS5_IS8_EEE8max_sizeEv, symObjAddr: 0x22D80, symBinAddr: 0x100025C08, symSize: 0x2FC }
  - { offsetInCU: 0x198C6, offset: 0x198C6, size: 0x8, addend: 0x0, symName: __ZNKSt3__16vectorINS_4pairIiNS_12basic_stringIcNS_11char_traitsIcEENS_9allocatorIcEEEEEENS5_IS8_EEE20__throw_length_errorB7v160006Ev, symObjAddr: 0x2307C, symBinAddr: 0x100025F04, symSize: 0x20 }
  - { offsetInCU: 0x198EC, offset: 0x198EC, size: 0x8, addend: 0x0, symName: __ZNSt3__16vectorINS_4pairIiNS_12basic_stringIcNS_11char_traitsIcEENS_9allocatorIcEEEEEENS5_IS8_EEE7__allocB7v160006Ev, symObjAddr: 0x23328, symBinAddr: 0x1000261B0, symSize: 0x28 }
  - { offsetInCU: 0x19912, offset: 0x19912, size: 0x8, addend: 0x0, symName: __ZNSt3__16vectorINS_4pairIiNS_12basic_stringIcNS_11char_traitsIcEENS_9allocatorIcEEEEEENS5_IS8_EEE9__end_capB7v160006Ev, symObjAddr: 0x23350, symBinAddr: 0x1000261D8, symSize: 0x28 }
  - { offsetInCU: 0x19938, offset: 0x19938, size: 0x8, addend: 0x0, symName: __ZNKSt3__16vectorINS_4pairIiNS_12basic_stringIcNS_11char_traitsIcEENS_9allocatorIcEEEEEENS5_IS8_EEE14__annotate_newB7v160006Em, symObjAddr: 0x23378, symBinAddr: 0x100026200, symSize: 0xC0 }
  - { offsetInCU: 0x1996D, offset: 0x1996D, size: 0x8, addend: 0x0, symName: __ZNSt3__116allocator_traitsINS_9allocatorINS_4pairIiNS_12basic_stringIcNS_11char_traitsIcEENS1_IcEEEEEEEEE8max_sizeB7v160006IS9_vvEEmRKS9_, symObjAddr: 0x23438, symBinAddr: 0x1000262C0, symSize: 0x28 }
  - { offsetInCU: 0x19998, offset: 0x19998, size: 0x8, addend: 0x0, symName: __ZNSt3__19allocatorINS_4pairIiNS_12basic_stringIcNS_11char_traitsIcEENS0_IcEEEEEEE8allocateB7v160006Em, symObjAddr: 0x23460, symBinAddr: 0x1000262E8, symSize: 0x5C }
  - { offsetInCU: 0x199CC, offset: 0x199CC, size: 0x8, addend: 0x0, symName: __ZNSt3__117__compressed_pairIPNS_4pairIiNS_12basic_stringIcNS_11char_traitsIcEENS_9allocatorIcEEEEEENS5_IS8_EEE6secondB7v160006Ev, symObjAddr: 0x234BC, symBinAddr: 0x100026344, symSize: 0x24 }
  - { offsetInCU: 0x199F2, offset: 0x199F2, size: 0x8, addend: 0x0, symName: __ZNSt3__122__compressed_pair_elemINS_9allocatorINS_4pairIiNS_12basic_stringIcNS_11char_traitsIcEENS1_IcEEEEEEEELi1ELb1EE5__getB7v160006Ev, symObjAddr: 0x234E0, symBinAddr: 0x100026368, symSize: 0x14 }
  - { offsetInCU: 0x19A18, offset: 0x19A18, size: 0x8, addend: 0x0, symName: __ZNSt3__117__compressed_pairIPNS_4pairIiNS_12basic_stringIcNS_11char_traitsIcEENS_9allocatorIcEEEEEENS5_IS8_EEE5firstB7v160006Ev, symObjAddr: 0x234F4, symBinAddr: 0x10002637C, symSize: 0x24 }
  - { offsetInCU: 0x19A3E, offset: 0x19A3E, size: 0x8, addend: 0x0, symName: __ZNSt3__122__compressed_pair_elemIPNS_4pairIiNS_12basic_stringIcNS_11char_traitsIcEENS_9allocatorIcEEEEEELi0ELb0EE5__getB7v160006Ev, symObjAddr: 0x23518, symBinAddr: 0x1000263A0, symSize: 0x14 }
  - { offsetInCU: 0x19A64, offset: 0x19A64, size: 0x8, addend: 0x0, symName: __ZNKSt3__16vectorINS_4pairIiNS_12basic_stringIcNS_11char_traitsIcEENS_9allocatorIcEEEEEENS5_IS8_EEE31__annotate_contiguous_containerEPKvSC_SC_SC_, symObjAddr: 0x2352C, symBinAddr: 0x1000263B4, symSize: 0x58 }
  - { offsetInCU: 0x19AC6, offset: 0x19AC6, size: 0x8, addend: 0x0, symName: __ZNKSt3__16vectorINS_4pairIiNS_12basic_stringIcNS_11char_traitsIcEENS_9allocatorIcEEEEEENS5_IS8_EEE4dataB7v160006Ev, symObjAddr: 0x23584, symBinAddr: 0x10002640C, symSize: 0x64 }
  - { offsetInCU: 0x19AEC, offset: 0x19AEC, size: 0x8, addend: 0x0, symName: __ZNKSt3__16vectorINS_4pairIiNS_12basic_stringIcNS_11char_traitsIcEENS_9allocatorIcEEEEEENS5_IS8_EEE8capacityB7v160006Ev, symObjAddr: 0x235E8, symBinAddr: 0x100026470, symSize: 0xBC }
  - { offsetInCU: 0x19B12, offset: 0x19B12, size: 0x8, addend: 0x0, symName: __ZNKSt3__16vectorINS_4pairIiNS_12basic_stringIcNS_11char_traitsIcEENS_9allocatorIcEEEEEENS5_IS8_EEE9__end_capB7v160006Ev, symObjAddr: 0x236B8, symBinAddr: 0x100026540, symSize: 0x28 }
  - { offsetInCU: 0x19B38, offset: 0x19B38, size: 0x8, addend: 0x0, symName: __ZNKSt3__117__compressed_pairIPNS_4pairIiNS_12basic_stringIcNS_11char_traitsIcEENS_9allocatorIcEEEEEENS5_IS8_EEE5firstB7v160006Ev, symObjAddr: 0x236E0, symBinAddr: 0x100026568, symSize: 0x24 }
  - { offsetInCU: 0x19B5E, offset: 0x19B5E, size: 0x8, addend: 0x0, symName: __ZNKSt3__122__compressed_pair_elemIPNS_4pairIiNS_12basic_stringIcNS_11char_traitsIcEENS_9allocatorIcEEEEEELi0ELb0EE5__getB7v160006Ev, symObjAddr: 0x23704, symBinAddr: 0x10002658C, symSize: 0x14 }
  - { offsetInCU: 0x19BA0, offset: 0x19BA0, size: 0x8, addend: 0x0, symName: __ZNSt3__16vectorINS_4pairIiNS_12basic_stringIcNS_11char_traitsIcEENS_9allocatorIcEEEEEENS5_IS8_EEE21_ConstructTransactionC1B7v160006ERSA_m, symObjAddr: 0x23718, symBinAddr: 0x1000265A0, symSize: 0x3C }
  - { offsetInCU: 0x19BE8, offset: 0x19BE8, size: 0x8, addend: 0x0, symName: __ZNSt3__16vectorINS_4pairIiNS_12basic_stringIcNS_11char_traitsIcEENS_9allocatorIcEEEEEENS5_IS8_EEE21_ConstructTransactionD1B7v160006Ev, symObjAddr: 0x23C74, symBinAddr: 0x100026AFC, symSize: 0x2C }
  - { offsetInCU: 0x19C12, offset: 0x19C12, size: 0x8, addend: 0x0, symName: __ZNSt3__16vectorINS_4pairIiNS_12basic_stringIcNS_11char_traitsIcEENS_9allocatorIcEEEEEENS5_IS8_EEE21_ConstructTransactionC2B7v160006ERSA_m, symObjAddr: 0x23CA0, symBinAddr: 0x100026B28, symSize: 0x1D0 }
  - { offsetInCU: 0x19C5A, offset: 0x19C5A, size: 0x8, addend: 0x0, symName: __ZNKSt3__16vectorINS_4pairIiNS_12basic_stringIcNS_11char_traitsIcEENS_9allocatorIcEEEEEENS5_IS8_EEE19__annotate_increaseB7v160006Em, symObjAddr: 0x23E70, symBinAddr: 0x100026CF8, symSize: 0xD8 }
  - { offsetInCU: 0x19C8F, offset: 0x19C8F, size: 0x8, addend: 0x0, symName: __ZNSt3__129_AllocatorDestroyRangeReverseINS_9allocatorINS_4pairIiNS_12basic_stringIcNS_11char_traitsIcEENS1_IcEEEEEEEEPS8_EC1B7v160006ERS9_RSA_SD_, symObjAddr: 0x24140, symBinAddr: 0x100026FC8, symSize: 0x44 }
  - { offsetInCU: 0x19CE6, offset: 0x19CE6, size: 0x8, addend: 0x0, symName: __ZNSt3__116allocator_traitsINS_9allocatorINS_4pairIiNS_12basic_stringIcNS_11char_traitsIcEENS1_IcEEEEEEEEE9constructB7v160006IS8_JRS8_EvvEEvRS9_PT_DpOT0_, symObjAddr: 0x24184, symBinAddr: 0x10002700C, symSize: 0x30 }
  - { offsetInCU: 0x19D3A, offset: 0x19D3A, size: 0x8, addend: 0x0, symName: __ZNSt3__128__exception_guard_exceptionsINS_29_AllocatorDestroyRangeReverseINS_9allocatorINS_4pairIiNS_12basic_stringIcNS_11char_traitsIcEENS2_IcEEEEEEEEPS9_EEE10__completeB7v160006Ev, symObjAddr: 0x241B4, symBinAddr: 0x10002703C, symSize: 0x8C }
  - { offsetInCU: 0x19D60, offset: 0x19D60, size: 0x8, addend: 0x0, symName: __ZNSt3__128__exception_guard_exceptionsINS_29_AllocatorDestroyRangeReverseINS_9allocatorINS_4pairIiNS_12basic_stringIcNS_11char_traitsIcEENS2_IcEEEEEEEEPS9_EEED1B7v160006Ev, symObjAddr: 0x24240, symBinAddr: 0x1000270C8, symSize: 0x2C }
  - { offsetInCU: 0x19D8A, offset: 0x19D8A, size: 0x8, addend: 0x0, symName: __ZNSt3__128__exception_guard_exceptionsINS_29_AllocatorDestroyRangeReverseINS_9allocatorINS_4pairIiNS_12basic_stringIcNS_11char_traitsIcEENS2_IcEEEEEEEEPS9_EEEC1B7v160006ESC_, symObjAddr: 0x2426C, symBinAddr: 0x1000270F4, symSize: 0x34 }
  - { offsetInCU: 0x19DC3, offset: 0x19DC3, size: 0x8, addend: 0x0, symName: __ZNSt3__128__exception_guard_exceptionsINS_29_AllocatorDestroyRangeReverseINS_9allocatorINS_4pairIiNS_12basic_stringIcNS_11char_traitsIcEENS2_IcEEEEEEEEPS9_EEEC2B7v160006ESC_, symObjAddr: 0x242A0, symBinAddr: 0x100027128, symSize: 0xA4 }
  - { offsetInCU: 0x19DFC, offset: 0x19DFC, size: 0x8, addend: 0x0, symName: __ZNSt3__129_AllocatorDestroyRangeReverseINS_9allocatorINS_4pairIiNS_12basic_stringIcNS_11char_traitsIcEENS1_IcEEEEEEEEPS8_EC2B7v160006ERS9_RSA_SD_, symObjAddr: 0x24344, symBinAddr: 0x1000271CC, symSize: 0x104 }
  - { offsetInCU: 0x19E53, offset: 0x19E53, size: 0x8, addend: 0x0, symName: __ZNSt3__14pairIiNS_12basic_stringIcNS_11char_traitsIcEENS_9allocatorIcEEEEEC1ERKS7_, symObjAddr: 0x24484, symBinAddr: 0x10002730C, symSize: 0x34 }
  - { offsetInCU: 0x19E87, offset: 0x19E87, size: 0x8, addend: 0x0, symName: __ZNSt3__14pairIiNS_12basic_stringIcNS_11char_traitsIcEENS_9allocatorIcEEEEEC2ERKS7_, symObjAddr: 0x244B8, symBinAddr: 0x100027340, symSize: 0x114 }
  - { offsetInCU: 0x19EBB, offset: 0x19EBB, size: 0x8, addend: 0x0, symName: __ZNSt3__128__exception_guard_exceptionsINS_29_AllocatorDestroyRangeReverseINS_9allocatorINS_4pairIiNS_12basic_stringIcNS_11char_traitsIcEENS2_IcEEEEEEEEPS9_EEED2B7v160006Ev, symObjAddr: 0x245CC, symBinAddr: 0x100027454, symSize: 0xBC }
  - { offsetInCU: 0x19EE5, offset: 0x19EE5, size: 0x8, addend: 0x0, symName: __ZNKSt3__129_AllocatorDestroyRangeReverseINS_9allocatorINS_4pairIiNS_12basic_stringIcNS_11char_traitsIcEENS1_IcEEEEEEEEPS8_EclB7v160006Ev, symObjAddr: 0x24688, symBinAddr: 0x100027510, symSize: 0x39C }
  - { offsetInCU: 0x19F0C, offset: 0x19F0C, size: 0x8, addend: 0x0, symName: __ZNSt3__116reverse_iteratorIPNS_4pairIiNS_12basic_stringIcNS_11char_traitsIcEENS_9allocatorIcEEEEEEEC1B7v160006ES9_, symObjAddr: 0x24CDC, symBinAddr: 0x100027B64, symSize: 0x34 }
  - { offsetInCU: 0x19F44, offset: 0x19F44, size: 0x8, addend: 0x0, symName: __ZNSt3__116allocator_traitsINS_9allocatorINS_4pairIiNS_12basic_stringIcNS_11char_traitsIcEENS1_IcEEEEEEEEE7destroyB7v160006IS8_vvEEvRS9_PT_, symObjAddr: 0x24D58, symBinAddr: 0x100027BE0, symSize: 0x28 }
  - { offsetInCU: 0x19F7E, offset: 0x19F7E, size: 0x8, addend: 0x0, symName: __ZNSt3__116reverse_iteratorIPNS_4pairIiNS_12basic_stringIcNS_11char_traitsIcEENS_9allocatorIcEEEEEEEppB7v160006Ev, symObjAddr: 0x24DA4, symBinAddr: 0x100027C2C, symSize: 0x6C }
  - { offsetInCU: 0x19FA4, offset: 0x19FA4, size: 0x8, addend: 0x0, symName: __ZNKSt3__116reverse_iteratorIPNS_4pairIiNS_12basic_stringIcNS_11char_traitsIcEENS_9allocatorIcEEEEEEE4baseB7v160006Ev, symObjAddr: 0x24E10, symBinAddr: 0x100027C98, symSize: 0x64 }
  - { offsetInCU: 0x19FCA, offset: 0x19FCA, size: 0x8, addend: 0x0, symName: __ZNSt3__14pairIiNS_12basic_stringIcNS_11char_traitsIcEENS_9allocatorIcEEEEED1Ev, symObjAddr: 0x24EBC, symBinAddr: 0x100027D44, symSize: 0x2C }
  - { offsetInCU: 0x19FF6, offset: 0x19FF6, size: 0x8, addend: 0x0, symName: __ZNSt3__14pairIiNS_12basic_stringIcNS_11char_traitsIcEENS_9allocatorIcEEEEED2Ev, symObjAddr: 0x24EE8, symBinAddr: 0x100027D70, symSize: 0x30 }
  - { offsetInCU: 0x1A028, offset: 0x1A028, size: 0x8, addend: 0x0, symName: __ZNSt3__119__to_address_helperINS_16reverse_iteratorIPNS_4pairIiNS_12basic_stringIcNS_11char_traitsIcEENS_9allocatorIcEEEEEEEEvE6__callB7v160006ERKSB_, symObjAddr: 0x24F18, symBinAddr: 0x100027DA0, symSize: 0x44 }
  - { offsetInCU: 0x1A04B, offset: 0x1A04B, size: 0x8, addend: 0x0, symName: __ZNKSt3__116reverse_iteratorIPNS_4pairIiNS_12basic_stringIcNS_11char_traitsIcEENS_9allocatorIcEEEEEEEptB7v160006Ev, symObjAddr: 0x24F5C, symBinAddr: 0x100027DE4, symSize: 0x6C }
  - { offsetInCU: 0x1A071, offset: 0x1A071, size: 0x8, addend: 0x0, symName: __ZNSt3__116reverse_iteratorIPNS_4pairIiNS_12basic_stringIcNS_11char_traitsIcEENS_9allocatorIcEEEEEEEC2B7v160006ES9_, symObjAddr: 0x252EC, symBinAddr: 0x100028174, symSize: 0xB8 }
  - { offsetInCU: 0x1A0A9, offset: 0x1A0A9, size: 0x8, addend: 0x0, symName: __ZNSt3__16vectorINS_4pairIiNS_12basic_stringIcNS_11char_traitsIcEENS_9allocatorIcEEEEEENS5_IS8_EEE21_ConstructTransactionD2B7v160006Ev, symObjAddr: 0x253A4, symBinAddr: 0x10002822C, symSize: 0x278 }
  - { offsetInCU: 0x1A0D3, offset: 0x1A0D3, size: 0x8, addend: 0x0, symName: __ZNKSt3__16vectorINS_4pairIiNS_12basic_stringIcNS_11char_traitsIcEENS_9allocatorIcEEEEEENS5_IS8_EEE17__annotate_shrinkB7v160006Em, symObjAddr: 0x2561C, symBinAddr: 0x1000284A4, symSize: 0xC8 }
  - { offsetInCU: 0x1A108, offset: 0x1A108, size: 0x8, addend: 0x0, symName: __ZNSt3__128__exception_guard_exceptionsINS_6vectorINS_4pairIiNS_12basic_stringIcNS_11char_traitsIcEENS_9allocatorIcEEEEEENS6_IS9_EEE16__destroy_vectorEED2B7v160006Ev, symObjAddr: 0x256E4, symBinAddr: 0x10002856C, symSize: 0xBC }
  - { offsetInCU: 0x1A132, offset: 0x1A132, size: 0x8, addend: 0x0, symName: __ZNSt3__16vectorINS_4pairIiNS_12basic_stringIcNS_11char_traitsIcEENS_9allocatorIcEEEEEENS5_IS8_EEE16__destroy_vectorclB7v160006Ev, symObjAddr: 0x257A0, symBinAddr: 0x100028628, symSize: 0x264 }
  - { offsetInCU: 0x1A158, offset: 0x1A158, size: 0x8, addend: 0x0, symName: __ZNKSt3__16vectorINS_4pairIiNS_12basic_stringIcNS_11char_traitsIcEENS_9allocatorIcEEEEEENS5_IS8_EEE17__annotate_deleteB7v160006Ev, symObjAddr: 0x25A04, symBinAddr: 0x10002888C, symSize: 0xCC }
  - { offsetInCU: 0x1A17E, offset: 0x1A17E, size: 0x8, addend: 0x0, symName: __ZNSt3__16vectorINS_4pairIiNS_12basic_stringIcNS_11char_traitsIcEENS_9allocatorIcEEEEEENS5_IS8_EEE7__clearB7v160006Ev, symObjAddr: 0x25AE0, symBinAddr: 0x100028968, symSize: 0x64 }
  - { offsetInCU: 0x1A1A4, offset: 0x1A1A4, size: 0x8, addend: 0x0, symName: __ZNSt3__116allocator_traitsINS_9allocatorINS_4pairIiNS_12basic_stringIcNS_11char_traitsIcEENS1_IcEEEEEEEEE10deallocateB7v160006ERS9_PS8_m, symObjAddr: 0x25B44, symBinAddr: 0x1000289CC, symSize: 0x34 }
  - { offsetInCU: 0x1A1E6, offset: 0x1A1E6, size: 0x8, addend: 0x0, symName: __ZNSt3__16vectorINS_4pairIiNS_12basic_stringIcNS_11char_traitsIcEENS_9allocatorIcEEEEEENS5_IS8_EEE22__base_destruct_at_endB7v160006EPS8_, symObjAddr: 0x25B78, symBinAddr: 0x100028A00, symSize: 0x114 }
  - { offsetInCU: 0x1A22A, offset: 0x1A22A, size: 0x8, addend: 0x0, symName: __ZNSt3__19allocatorINS_4pairIiNS_12basic_stringIcNS_11char_traitsIcEENS0_IcEEEEEEE10deallocateB7v160006EPS7_m, symObjAddr: 0x25C8C, symBinAddr: 0x100028B14, symSize: 0x4C }
  - { offsetInCU: 0x1A26C, offset: 0x1A26C, size: 0x8, addend: 0x0, symName: __ZNKSt3__16vectorINS_4pairIiNS_12basic_stringIcNS_11char_traitsIcEENS_9allocatorIcEEEEEENS5_IS8_EEEixB7v160006Em, symObjAddr: 0x25CD8, symBinAddr: 0x100028B60, symSize: 0x6C }
  - { offsetInCU: 0x1A2A9, offset: 0x1A2A9, size: 0x8, addend: 0x0, symName: __ZNSt3__16vectorINS_4pairIiNS_12basic_stringIcNS_11char_traitsIcEENS_9allocatorIcEEEEEENS5_IS8_EEE12emplace_backIJRiRKS7_EEERS8_DpOT_, symObjAddr: 0x25D44, symBinAddr: 0x100028BCC, symSize: 0xF4 }
  - { offsetInCU: 0x1A2FF, offset: 0x1A2FF, size: 0x8, addend: 0x0, symName: __ZNSt3__16vectorINS_4pairIiNS_12basic_stringIcNS_11char_traitsIcEENS_9allocatorIcEEEEEENS5_IS8_EEE22__construct_one_at_endB7v160006IJRiRKS7_EEEvDpOT_, symObjAddr: 0x25E38, symBinAddr: 0x100028CC0, symSize: 0x374 }
  - { offsetInCU: 0x1A369, offset: 0x1A369, size: 0x8, addend: 0x0, symName: __ZNSt3__16vectorINS_4pairIiNS_12basic_stringIcNS_11char_traitsIcEENS_9allocatorIcEEEEEENS5_IS8_EEE24__emplace_back_slow_pathIJRiRKS7_EEEvDpOT_, symObjAddr: 0x261AC, symBinAddr: 0x100029034, symSize: 0x3C8 }
  - { offsetInCU: 0x1A3E5, offset: 0x1A3E5, size: 0x8, addend: 0x0, symName: __ZNSt3__16vectorINS_4pairIiNS_12basic_stringIcNS_11char_traitsIcEENS_9allocatorIcEEEEEENS5_IS8_EEE4backB7v160006Ev, symObjAddr: 0x26574, symBinAddr: 0x1000293FC, symSize: 0x68 }
  - { offsetInCU: 0x1A40B, offset: 0x1A40B, size: 0x8, addend: 0x0, symName: __ZNSt3__116allocator_traitsINS_9allocatorINS_4pairIiNS_12basic_stringIcNS_11char_traitsIcEENS1_IcEEEEEEEEE9constructB7v160006IS8_JRiRKS7_EvvEEvRS9_PT_DpOT0_, symObjAddr: 0x265DC, symBinAddr: 0x100029464, symSize: 0x38 }
  - { offsetInCU: 0x1A473, offset: 0x1A473, size: 0x8, addend: 0x0, symName: __ZNSt3__14pairIiNS_12basic_stringIcNS_11char_traitsIcEENS_9allocatorIcEEEEEC1B7v160006IRiRKS6_LPv0EEEOT_OT0_, symObjAddr: 0x26658, symBinAddr: 0x1000294E0, symSize: 0x3C }
  - { offsetInCU: 0x1A4D1, offset: 0x1A4D1, size: 0x8, addend: 0x0, symName: __ZNSt3__14pairIiNS_12basic_stringIcNS_11char_traitsIcEENS_9allocatorIcEEEEEC2B7v160006IRiRKS6_LPv0EEEOT_OT0_, symObjAddr: 0x26694, symBinAddr: 0x10002951C, symSize: 0x114 }
  - { offsetInCU: 0x1A52F, offset: 0x1A52F, size: 0x8, addend: 0x0, symName: __ZNKSt3__16vectorINS_4pairIiNS_12basic_stringIcNS_11char_traitsIcEENS_9allocatorIcEEEEEENS5_IS8_EEE11__recommendB7v160006Em, symObjAddr: 0x267A8, symBinAddr: 0x100029630, symSize: 0x384 }
  - { offsetInCU: 0x1A58B, offset: 0x1A58B, size: 0x8, addend: 0x0, symName: __ZNSt3__114__split_bufferINS_4pairIiNS_12basic_stringIcNS_11char_traitsIcEENS_9allocatorIcEEEEEERNS5_IS8_EEEC1EmmSA_, symObjAddr: 0x26B2C, symBinAddr: 0x1000299B4, symSize: 0x44 }
  - { offsetInCU: 0x1A5E1, offset: 0x1A5E1, size: 0x8, addend: 0x0, symName: __ZNSt3__114__split_bufferINS_4pairIiNS_12basic_stringIcNS_11char_traitsIcEENS_9allocatorIcEEEEEERNS5_IS8_EEED1Ev, symObjAddr: 0x270E4, symBinAddr: 0x100029F6C, symSize: 0x2C }
  - { offsetInCU: 0x1A60D, offset: 0x1A60D, size: 0x8, addend: 0x0, symName: __ZNSt3__114__split_bufferINS_4pairIiNS_12basic_stringIcNS_11char_traitsIcEENS_9allocatorIcEEEEEERNS5_IS8_EEEC2EmmSA_, symObjAddr: 0x27110, symBinAddr: 0x100029F98, symSize: 0x520 }
  - { offsetInCU: 0x1A688, offset: 0x1A688, size: 0x8, addend: 0x0, symName: __ZNSt3__117__compressed_pairIPNS_4pairIiNS_12basic_stringIcNS_11char_traitsIcEENS_9allocatorIcEEEEEERNS5_IS8_EEEC1B7v160006IDnSB_EEOT_OT0_, symObjAddr: 0x27630, symBinAddr: 0x10002A4B8, symSize: 0x3C }
  - { offsetInCU: 0x1A6E0, offset: 0x1A6E0, size: 0x8, addend: 0x0, symName: __ZNSt3__114__split_bufferINS_4pairIiNS_12basic_stringIcNS_11char_traitsIcEENS_9allocatorIcEEEEEERNS5_IS8_EEE7__allocB7v160006Ev, symObjAddr: 0x2766C, symBinAddr: 0x10002A4F4, symSize: 0x28 }
  - { offsetInCU: 0x1A706, offset: 0x1A706, size: 0x8, addend: 0x0, symName: __ZNSt3__114__split_bufferINS_4pairIiNS_12basic_stringIcNS_11char_traitsIcEENS_9allocatorIcEEEEEERNS5_IS8_EEE9__end_capB7v160006Ev, symObjAddr: 0x27694, symBinAddr: 0x10002A51C, symSize: 0x28 }
  - { offsetInCU: 0x1A72C, offset: 0x1A72C, size: 0x8, addend: 0x0, symName: __ZNSt3__117__compressed_pairIPNS_4pairIiNS_12basic_stringIcNS_11char_traitsIcEENS_9allocatorIcEEEEEERNS5_IS8_EEEC2B7v160006IDnSB_EEOT_OT0_, symObjAddr: 0x276BC, symBinAddr: 0x10002A544, symSize: 0x48 }
  - { offsetInCU: 0x1A784, offset: 0x1A784, size: 0x8, addend: 0x0, symName: __ZNSt3__122__compressed_pair_elemIRNS_9allocatorINS_4pairIiNS_12basic_stringIcNS_11char_traitsIcEENS1_IcEEEEEEEELi1ELb0EEC2B7v160006ISA_vEEOT_, symObjAddr: 0x27704, symBinAddr: 0x10002A58C, symSize: 0x70 }
  - { offsetInCU: 0x1A7C6, offset: 0x1A7C6, size: 0x8, addend: 0x0, symName: __ZNSt3__117__compressed_pairIPNS_4pairIiNS_12basic_stringIcNS_11char_traitsIcEENS_9allocatorIcEEEEEERNS5_IS8_EEE6secondB7v160006Ev, symObjAddr: 0x27774, symBinAddr: 0x10002A5FC, symSize: 0x28 }
  - { offsetInCU: 0x1A7EC, offset: 0x1A7EC, size: 0x8, addend: 0x0, symName: __ZNSt3__122__compressed_pair_elemIRNS_9allocatorINS_4pairIiNS_12basic_stringIcNS_11char_traitsIcEENS1_IcEEEEEEEELi1ELb0EE5__getB7v160006Ev, symObjAddr: 0x2779C, symBinAddr: 0x10002A624, symSize: 0x60 }
  - { offsetInCU: 0x1A812, offset: 0x1A812, size: 0x8, addend: 0x0, symName: __ZNSt3__117__compressed_pairIPNS_4pairIiNS_12basic_stringIcNS_11char_traitsIcEENS_9allocatorIcEEEEEERNS5_IS8_EEE5firstB7v160006Ev, symObjAddr: 0x277FC, symBinAddr: 0x10002A684, symSize: 0x24 }
  - { offsetInCU: 0x1A838, offset: 0x1A838, size: 0x8, addend: 0x0, symName: __ZNSt3__129_AllocatorDestroyRangeReverseINS_9allocatorINS_4pairIiNS_12basic_stringIcNS_11char_traitsIcEENS1_IcEEEEEEEENS_16reverse_iteratorIPS8_EEEC1B7v160006ERS9_RSC_SF_, symObjAddr: 0x28098, symBinAddr: 0x10002AF20, symSize: 0x44 }
  - { offsetInCU: 0x1A88F, offset: 0x1A88F, size: 0x8, addend: 0x0, symName: __ZNSt3__116allocator_traitsINS_9allocatorINS_4pairIiNS_12basic_stringIcNS_11char_traitsIcEENS1_IcEEEEEEEEE9constructB7v160006IS8_JS8_EvvEEvRS9_PT_DpOT0_, symObjAddr: 0x280DC, symBinAddr: 0x10002AF64, symSize: 0x30 }
  - { offsetInCU: 0x1A8E3, offset: 0x1A8E3, size: 0x8, addend: 0x0, symName: __ZNKSt3__116reverse_iteratorIPNS_4pairIiNS_12basic_stringIcNS_11char_traitsIcEENS_9allocatorIcEEEEEEEdeB7v160006Ev, symObjAddr: 0x2810C, symBinAddr: 0x10002AF94, symSize: 0x74 }
  - { offsetInCU: 0x1A917, offset: 0x1A917, size: 0x8, addend: 0x0, symName: __ZNSt3__128__exception_guard_exceptionsINS_29_AllocatorDestroyRangeReverseINS_9allocatorINS_4pairIiNS_12basic_stringIcNS_11char_traitsIcEENS2_IcEEEEEEEENS_16reverse_iteratorIPS9_EEEEE10__completeB7v160006Ev, symObjAddr: 0x28180, symBinAddr: 0x10002B008, symSize: 0x8C }
  - { offsetInCU: 0x1A93D, offset: 0x1A93D, size: 0x8, addend: 0x0, symName: __ZNSt3__128__exception_guard_exceptionsINS_29_AllocatorDestroyRangeReverseINS_9allocatorINS_4pairIiNS_12basic_stringIcNS_11char_traitsIcEENS2_IcEEEEEEEENS_16reverse_iteratorIPS9_EEEEED1B7v160006Ev, symObjAddr: 0x2820C, symBinAddr: 0x10002B094, symSize: 0x2C }
  - { offsetInCU: 0x1A967, offset: 0x1A967, size: 0x8, addend: 0x0, symName: __ZNSt3__128__exception_guard_exceptionsINS_29_AllocatorDestroyRangeReverseINS_9allocatorINS_4pairIiNS_12basic_stringIcNS_11char_traitsIcEENS2_IcEEEEEEEENS_16reverse_iteratorIPS9_EEEEEC1B7v160006ESE_, symObjAddr: 0x28238, symBinAddr: 0x10002B0C0, symSize: 0x34 }
  - { offsetInCU: 0x1A9A0, offset: 0x1A9A0, size: 0x8, addend: 0x0, symName: __ZNSt3__128__exception_guard_exceptionsINS_29_AllocatorDestroyRangeReverseINS_9allocatorINS_4pairIiNS_12basic_stringIcNS_11char_traitsIcEENS2_IcEEEEEEEENS_16reverse_iteratorIPS9_EEEEEC2B7v160006ESE_, symObjAddr: 0x2826C, symBinAddr: 0x10002B0F4, symSize: 0xA4 }
  - { offsetInCU: 0x1A9D9, offset: 0x1A9D9, size: 0x8, addend: 0x0, symName: __ZNSt3__129_AllocatorDestroyRangeReverseINS_9allocatorINS_4pairIiNS_12basic_stringIcNS_11char_traitsIcEENS1_IcEEEEEEEENS_16reverse_iteratorIPS8_EEEC2B7v160006ERS9_RSC_SF_, symObjAddr: 0x28310, symBinAddr: 0x10002B198, symSize: 0x104 }
  - { offsetInCU: 0x1AA30, offset: 0x1AA30, size: 0x8, addend: 0x0, symName: __ZNSt3__14pairIiNS_12basic_stringIcNS_11char_traitsIcEENS_9allocatorIcEEEEEC1EOS7_, symObjAddr: 0x28450, symBinAddr: 0x10002B2D8, symSize: 0x34 }
  - { offsetInCU: 0x1AA64, offset: 0x1AA64, size: 0x8, addend: 0x0, symName: __ZNSt3__14pairIiNS_12basic_stringIcNS_11char_traitsIcEENS_9allocatorIcEEEEEC2EOS7_, symObjAddr: 0x28484, symBinAddr: 0x10002B30C, symSize: 0x114 }
  - { offsetInCU: 0x1AA98, offset: 0x1AA98, size: 0x8, addend: 0x0, symName: __ZNSt3__128__exception_guard_exceptionsINS_29_AllocatorDestroyRangeReverseINS_9allocatorINS_4pairIiNS_12basic_stringIcNS_11char_traitsIcEENS2_IcEEEEEEEENS_16reverse_iteratorIPS9_EEEEED2B7v160006Ev, symObjAddr: 0x28598, symBinAddr: 0x10002B420, symSize: 0xBC }
  - { offsetInCU: 0x1AAC2, offset: 0x1AAC2, size: 0x8, addend: 0x0, symName: __ZNKSt3__129_AllocatorDestroyRangeReverseINS_9allocatorINS_4pairIiNS_12basic_stringIcNS_11char_traitsIcEENS1_IcEEEEEEEENS_16reverse_iteratorIPS8_EEEclB7v160006Ev, symObjAddr: 0x28654, symBinAddr: 0x10002B4DC, symSize: 0x3A8 }
  - { offsetInCU: 0x1AAE9, offset: 0x1AAE9, size: 0x8, addend: 0x0, symName: __ZNSt3__116reverse_iteratorINS0_IPNS_4pairIiNS_12basic_stringIcNS_11char_traitsIcEENS_9allocatorIcEEEEEEEEEC1B7v160006ESA_, symObjAddr: 0x28A6C, symBinAddr: 0x10002B8F4, symSize: 0x248 }
  - { offsetInCU: 0x1AB26, offset: 0x1AB26, size: 0x8, addend: 0x0, symName: __ZNSt3__116reverse_iteratorINS0_IPNS_4pairIiNS_12basic_stringIcNS_11char_traitsIcEENS_9allocatorIcEEEEEEEEEppB7v160006Ev, symObjAddr: 0x28FA4, symBinAddr: 0x10002BE2C, symSize: 0x30 }
  - { offsetInCU: 0x1AB4C, offset: 0x1AB4C, size: 0x8, addend: 0x0, symName: __ZNKSt3__116reverse_iteratorINS0_IPNS_4pairIiNS_12basic_stringIcNS_11char_traitsIcEENS_9allocatorIcEEEEEEEEE4baseB7v160006Ev, symObjAddr: 0x28FD4, symBinAddr: 0x10002BE5C, symSize: 0x20C }
  - { offsetInCU: 0x1AB79, offset: 0x1AB79, size: 0x8, addend: 0x0, symName: __ZNSt3__119__to_address_helperINS_16reverse_iteratorINS1_IPNS_4pairIiNS_12basic_stringIcNS_11char_traitsIcEENS_9allocatorIcEEEEEEEEEEvE6__callB7v160006ERKSC_, symObjAddr: 0x291E0, symBinAddr: 0x10002C068, symSize: 0x44 }
  - { offsetInCU: 0x1AB9C, offset: 0x1AB9C, size: 0x8, addend: 0x0, symName: __ZNKSt3__116reverse_iteratorINS0_IPNS_4pairIiNS_12basic_stringIcNS_11char_traitsIcEENS_9allocatorIcEEEEEEEEEptB7v160006Ev, symObjAddr: 0x29224, symBinAddr: 0x10002C0AC, symSize: 0x2A0 }
  - { offsetInCU: 0x1ABC3, offset: 0x1ABC3, size: 0x8, addend: 0x0, symName: __ZNSt3__116reverse_iteratorIPNS_4pairIiNS_12basic_stringIcNS_11char_traitsIcEENS_9allocatorIcEEEEEEEpLB7v160006El, symObjAddr: 0x297F0, symBinAddr: 0x10002C678, symSize: 0x84 }
  - { offsetInCU: 0x1ABF7, offset: 0x1ABF7, size: 0x8, addend: 0x0, symName: __ZNSt3__116reverse_iteratorIPNS_4pairIiNS_12basic_stringIcNS_11char_traitsIcEENS_9allocatorIcEEEEEEEmmB7v160006Ev, symObjAddr: 0x29874, symBinAddr: 0x10002C6FC, symSize: 0x6C }
  - { offsetInCU: 0x1AC1D, offset: 0x1AC1D, size: 0x8, addend: 0x0, symName: __ZNSt3__116reverse_iteratorINS0_IPNS_4pairIiNS_12basic_stringIcNS_11char_traitsIcEENS_9allocatorIcEEEEEEEEEC2B7v160006ESA_, symObjAddr: 0x298E0, symBinAddr: 0x10002C768, symSize: 0x22C }
  - { offsetInCU: 0x1AC5A, offset: 0x1AC5A, size: 0x8, addend: 0x0, symName: __ZNSt3__114__split_bufferINS_4pairIiNS_12basic_stringIcNS_11char_traitsIcEENS_9allocatorIcEEEEEERNS5_IS8_EEED2Ev, symObjAddr: 0x29B0C, symBinAddr: 0x10002C994, symSize: 0x104 }
  - { offsetInCU: 0x1AC86, offset: 0x1AC86, size: 0x8, addend: 0x0, symName: __ZNSt3__114__split_bufferINS_4pairIiNS_12basic_stringIcNS_11char_traitsIcEENS_9allocatorIcEEEEEERNS5_IS8_EEE5clearB7v160006Ev, symObjAddr: 0x29C10, symBinAddr: 0x10002CA98, symSize: 0x68 }
  - { offsetInCU: 0x1ACAC, offset: 0x1ACAC, size: 0x8, addend: 0x0, symName: __ZNKSt3__114__split_bufferINS_4pairIiNS_12basic_stringIcNS_11char_traitsIcEENS_9allocatorIcEEEEEERNS5_IS8_EEE8capacityB7v160006Ev, symObjAddr: 0x29C78, symBinAddr: 0x10002CB00, symSize: 0xBC }
  - { offsetInCU: 0x1ACD2, offset: 0x1ACD2, size: 0x8, addend: 0x0, symName: __ZNSt3__114__split_bufferINS_4pairIiNS_12basic_stringIcNS_11char_traitsIcEENS_9allocatorIcEEEEEERNS5_IS8_EEE17__destruct_at_endB7v160006EPS8_, symObjAddr: 0x29D34, symBinAddr: 0x10002CBBC, symSize: 0x2C }
  - { offsetInCU: 0x1AD06, offset: 0x1AD06, size: 0x8, addend: 0x0, symName: __ZNSt3__114__split_bufferINS_4pairIiNS_12basic_stringIcNS_11char_traitsIcEENS_9allocatorIcEEEEEERNS5_IS8_EEE17__destruct_at_endB7v160006EPS8_NS_17integral_constantIbLb0EEE, symObjAddr: 0x29D60, symBinAddr: 0x10002CBE8, symSize: 0x10C }
  - { offsetInCU: 0x1AD46, offset: 0x1AD46, size: 0x8, addend: 0x0, symName: __ZNKSt3__114__split_bufferINS_4pairIiNS_12basic_stringIcNS_11char_traitsIcEENS_9allocatorIcEEEEEERNS5_IS8_EEE9__end_capB7v160006Ev, symObjAddr: 0x29E6C, symBinAddr: 0x10002CCF4, symSize: 0x28 }
  - { offsetInCU: 0x1AD6C, offset: 0x1AD6C, size: 0x8, addend: 0x0, symName: __ZNKSt3__117__compressed_pairIPNS_4pairIiNS_12basic_stringIcNS_11char_traitsIcEENS_9allocatorIcEEEEEERNS5_IS8_EEE5firstB7v160006Ev, symObjAddr: 0x29E94, symBinAddr: 0x10002CD1C, symSize: 0x24 }
  - { offsetInCU: 0x1AD92, offset: 0x1AD92, size: 0x8, addend: 0x0, symName: __ZN7CMemoryC2Ei, symObjAddr: 0x29EB8, symBinAddr: 0x10002CD40, symSize: 0xF4 }
  - { offsetInCU: 0x1ADCA, offset: 0x1ADCA, size: 0x8, addend: 0x0, symName: __ZN7CMemoryD0Ev, symObjAddr: 0x29FAC, symBinAddr: 0x10002CE34, symSize: 0x30 }
  - { offsetInCU: 0x1ADF6, offset: 0x1ADF6, size: 0x8, addend: 0x0, symName: __ZNK7CMemory5cloneEv, symObjAddr: 0x29FDC, symBinAddr: 0x10002CE64, symSize: 0x3C }
  - { offsetInCU: 0x1AE1C, offset: 0x1AE1C, size: 0x8, addend: 0x0, symName: __ZNK7CMemory5printERNSt3__113basic_ostreamIcNS0_11char_traitsIcEEEEbbb, symObjAddr: 0x2A018, symBinAddr: 0x10002CEA0, symSize: 0x10C }
  - { offsetInCU: 0x1AE80, offset: 0x1AE80, size: 0x8, addend: 0x0, symName: __ZN7CMemoryC1ERKS_, symObjAddr: 0x2A124, symBinAddr: 0x10002CFAC, symSize: 0x34 }
  - { offsetInCU: 0x1AEB5, offset: 0x1AEB5, size: 0x8, addend: 0x0, symName: __ZN7CMemoryC2ERKS_, symObjAddr: 0x2A158, symBinAddr: 0x10002CFE0, symSize: 0x164 }
  - { offsetInCU: 0x1AEEA, offset: 0x1AEEA, size: 0x8, addend: 0x0, symName: __ZN7CMemoryD2Ev, symObjAddr: 0x2A2BC, symBinAddr: 0x10002D144, symSize: 0x2C }
  - { offsetInCU: 0x1AF16, offset: 0x1AF16, size: 0x8, addend: 0x0, symName: __ZN4CCPUD2Ev, symObjAddr: 0x2A2E8, symBinAddr: 0x10002D170, symSize: 0x2C }
  - { offsetInCU: 0x1AF42, offset: 0x1AF42, size: 0x8, addend: 0x0, symName: __ZN9CComputerD2Ev, symObjAddr: 0x2A314, symBinAddr: 0x10002D19C, symSize: 0x3E4 }
  - { offsetInCU: 0x1AFC8, offset: 0x1AFC8, size: 0x8, addend: 0x0, symName: __ZNSt3__16vectorIP10CComponentNS_9allocatorIS2_EEE5beginB7v160006Ev, symObjAddr: 0x2A6F8, symBinAddr: 0x10002D580, symSize: 0x268 }
  - { offsetInCU: 0x1AFF1, offset: 0x1AFF1, size: 0x8, addend: 0x0, symName: __ZNSt3__16vectorIP10CComponentNS_9allocatorIS2_EEE3endB7v160006Ev, symObjAddr: 0x2A960, symBinAddr: 0x10002D7E8, symSize: 0x26C }
  - { offsetInCU: 0x1B01A, offset: 0x1B01A, size: 0x8, addend: 0x0, symName: __ZNKSt3__111__wrap_iterIPP10CComponentEdeB7v160006Ev, symObjAddr: 0x2AC00, symBinAddr: 0x10002DA88, symSize: 0x60 }
  - { offsetInCU: 0x1B040, offset: 0x1B040, size: 0x8, addend: 0x0, symName: __ZNSt3__111__wrap_iterIPP10CComponentEppB7v160006Ev, symObjAddr: 0x2AC60, symBinAddr: 0x10002DAE8, symSize: 0x68 }
  - { offsetInCU: 0x1B066, offset: 0x1B066, size: 0x8, addend: 0x0, symName: __ZNSt3__16vectorIP10CComponentNS_9allocatorIS2_EEE11__make_iterB7v160006EPS2_, symObjAddr: 0x2ACC8, symBinAddr: 0x10002DB50, symSize: 0x200 }
  - { offsetInCU: 0x1B09D, offset: 0x1B09D, size: 0x8, addend: 0x0, symName: __ZNSt3__111__wrap_iterIPP10CComponentEC1B7v160006EPKvS3_, symObjAddr: 0x2AEC8, symBinAddr: 0x10002DD50, symSize: 0x3C }
  - { offsetInCU: 0x1B0E3, offset: 0x1B0E3, size: 0x8, addend: 0x0, symName: __ZNSt3__111__wrap_iterIPP10CComponentEC2B7v160006EPKvS3_, symObjAddr: 0x2AF04, symBinAddr: 0x10002DD8C, symSize: 0x74 }
  - { offsetInCU: 0x1B129, offset: 0x1B129, size: 0x8, addend: 0x0, symName: __ZNKSt3__111__wrap_iterIPP10CComponentE4baseB7v160006Ev, symObjAddr: 0x2AFC0, symBinAddr: 0x10002DE48, symSize: 0x60 }
  - { offsetInCU: 0x1B14F, offset: 0x1B14F, size: 0x8, addend: 0x0, symName: __ZN5CDiskD2Ev, symObjAddr: 0x2B020, symBinAddr: 0x10002DEA8, symSize: 0x88 }
  - { offsetInCU: 0x1B17B, offset: 0x1B17B, size: 0x8, addend: 0x0, symName: __ZNSt3__16vectorINS_4pairIiNS_12basic_stringIcNS_11char_traitsIcEENS_9allocatorIcEEEEEENS5_IS8_EEED1B7v160006Ev, symObjAddr: 0x2B0A8, symBinAddr: 0x10002DF30, symSize: 0x2C }
  - { offsetInCU: 0x1B1A5, offset: 0x1B1A5, size: 0x8, addend: 0x0, symName: __ZNSt3__16vectorINS_4pairIiNS_12basic_stringIcNS_11char_traitsIcEENS_9allocatorIcEEEEEENS5_IS8_EEED2B7v160006Ev, symObjAddr: 0x2B0D4, symBinAddr: 0x10002DF5C, symSize: 0x1F8 }
  - { offsetInCU: 0x1B1D0, offset: 0x1B1D0, size: 0x8, addend: 0x0, symName: __ZNKSt3__112basic_stringIcNS_11char_traitsIcEENS_9allocatorIcEEEcvNS_17basic_string_viewIcS2_EEB7v160006Ev, symObjAddr: 0x2B614, symBinAddr: 0x10002E49C, symSize: 0x228 }
  - { offsetInCU: 0x1B1F7, offset: 0x1B1F7, size: 0x8, addend: 0x0, symName: __ZNSt3__117basic_string_viewIcNS_11char_traitsIcEEEC1B7v160006EPKc, symObjAddr: 0x2B83C, symBinAddr: 0x10002E6C4, symSize: 0x34 }
  - { offsetInCU: 0x1B230, offset: 0x1B230, size: 0x8, addend: 0x0, symName: __ZNKSt3__117basic_string_viewIcNS_11char_traitsIcEEE4sizeB7v160006Ev, symObjAddr: 0x2B870, symBinAddr: 0x10002E6F8, symSize: 0x64 }
  - { offsetInCU: 0x1B256, offset: 0x1B256, size: 0x8, addend: 0x0, symName: __ZNKSt3__117basic_string_viewIcNS_11char_traitsIcEEE7compareES3_, symObjAddr: 0x2B8D4, symBinAddr: 0x10002E75C, symSize: 0x434 }
  - { offsetInCU: 0x1B2B0, offset: 0x1B2B0, size: 0x8, addend: 0x0, symName: __ZNSt3__111char_traitsIcE7compareEPKcS3_m, symObjAddr: 0x2BD08, symBinAddr: 0x10002EB90, symSize: 0x78 }
  - { offsetInCU: 0x1B2EF, offset: 0x1B2EF, size: 0x8, addend: 0x0, symName: __ZNKSt3__117basic_string_viewIcNS_11char_traitsIcEEE4dataB7v160006Ev, symObjAddr: 0x2BD80, symBinAddr: 0x10002EC08, symSize: 0x60 }
  - { offsetInCU: 0x1B315, offset: 0x1B315, size: 0x8, addend: 0x0, symName: __ZNSt3__117basic_string_viewIcNS_11char_traitsIcEEEC1B7v160006EPKcm, symObjAddr: 0x2BE14, symBinAddr: 0x10002EC9C, symSize: 0x3C }
  - { offsetInCU: 0x1B35D, offset: 0x1B35D, size: 0x8, addend: 0x0, symName: __ZNSt3__117basic_string_viewIcNS_11char_traitsIcEEEC2B7v160006EPKcm, symObjAddr: 0x2BE50, symBinAddr: 0x10002ECD8, symSize: 0xE0 }
  - { offsetInCU: 0x1B3A5, offset: 0x1B3A5, size: 0x8, addend: 0x0, symName: __ZNSt3__117basic_string_viewIcNS_11char_traitsIcEEEC2B7v160006EPKc, symObjAddr: 0x2BF30, symBinAddr: 0x10002EDB8, symSize: 0xC4 }
  - { offsetInCU: 0x1B3DE, offset: 0x1B3DE, size: 0x8, addend: 0x0, symName: __ZN8CNetworkC2ERKS_, symObjAddr: 0x2C018, symBinAddr: 0x10002EEA0, symSize: 0x4CC }
  - { offsetInCU: 0x1B46B, offset: 0x1B46B, size: 0x8, addend: 0x0, symName: __ZNKSt3__16vectorIP9CComputerNS_9allocatorIS2_EEE5beginB7v160006Ev, symObjAddr: 0x2C4E4, symBinAddr: 0x10002F36C, symSize: 0x268 }
  - { offsetInCU: 0x1B494, offset: 0x1B494, size: 0x8, addend: 0x0, symName: __ZNKSt3__16vectorIP9CComputerNS_9allocatorIS2_EEE3endB7v160006Ev, symObjAddr: 0x2C74C, symBinAddr: 0x10002F5D4, symSize: 0x26C }
  - { offsetInCU: 0x1B4BD, offset: 0x1B4BD, size: 0x8, addend: 0x0, symName: __ZNKSt3__111__wrap_iterIPKP9CComputerEdeB7v160006Ev, symObjAddr: 0x2C9EC, symBinAddr: 0x10002F874, symSize: 0x60 }
  - { offsetInCU: 0x1B4E3, offset: 0x1B4E3, size: 0x8, addend: 0x0, symName: __ZNSt3__111__wrap_iterIPKP9CComputerEppB7v160006Ev, symObjAddr: 0x2CA4C, symBinAddr: 0x10002F8D4, symSize: 0x68 }
  - { offsetInCU: 0x1B509, offset: 0x1B509, size: 0x8, addend: 0x0, symName: __ZNSt3__16vectorIP9CComputerNS_9allocatorIS2_EEED1B7v160006Ev, symObjAddr: 0x2CAB4, symBinAddr: 0x10002F93C, symSize: 0x2C }
  - { offsetInCU: 0x1B533, offset: 0x1B533, size: 0x8, addend: 0x0, symName: __ZNKSt3__16vectorIP9CComputerNS_9allocatorIS2_EEE11__make_iterB7v160006EPKS2_, symObjAddr: 0x2CAE0, symBinAddr: 0x10002F968, symSize: 0x200 }
  - { offsetInCU: 0x1B56A, offset: 0x1B56A, size: 0x8, addend: 0x0, symName: __ZNSt3__111__wrap_iterIPKP9CComputerEC1B7v160006EPKvS4_, symObjAddr: 0x2CCE0, symBinAddr: 0x10002FB68, symSize: 0x3C }
  - { offsetInCU: 0x1B5B0, offset: 0x1B5B0, size: 0x8, addend: 0x0, symName: __ZNSt3__111__wrap_iterIPKP9CComputerEC2B7v160006EPKvS4_, symObjAddr: 0x2CD1C, symBinAddr: 0x10002FBA4, symSize: 0x74 }
  - { offsetInCU: 0x1B5F6, offset: 0x1B5F6, size: 0x8, addend: 0x0, symName: __ZNKSt3__111__wrap_iterIPKP9CComputerE4baseB7v160006Ev, symObjAddr: 0x2CDD8, symBinAddr: 0x10002FC60, symSize: 0x60 }
  - { offsetInCU: 0x1B61C, offset: 0x1B61C, size: 0x8, addend: 0x0, symName: __ZNSt3__16vectorIP9CComputerNS_9allocatorIS2_EEED2B7v160006Ev, symObjAddr: 0x2CE38, symBinAddr: 0x10002FCC0, symSize: 0x1F8 }
  - { offsetInCU: 0x1B647, offset: 0x1B647, size: 0x8, addend: 0x0, symName: __ZNSt3__16vectorIP9CComputerNS_9allocatorIS2_EEE16__destroy_vectorC1ERS5_, symObjAddr: 0x2D030, symBinAddr: 0x10002FEB8, symSize: 0x34 }
  - { offsetInCU: 0x1B680, offset: 0x1B680, size: 0x8, addend: 0x0, symName: __ZNSt3__16vectorIP9CComputerNS_9allocatorIS2_EEE16__destroy_vectorclB7v160006Ev, symObjAddr: 0x2D064, symBinAddr: 0x10002FEEC, symSize: 0x264 }
  - { offsetInCU: 0x1B6A6, offset: 0x1B6A6, size: 0x8, addend: 0x0, symName: __ZNSt3__16vectorIP9CComputerNS_9allocatorIS2_EEE16__destroy_vectorC2ERS5_, symObjAddr: 0x2D2C8, symBinAddr: 0x100030150, symSize: 0x70 }
  - { offsetInCU: 0x1B6DF, offset: 0x1B6DF, size: 0x8, addend: 0x0, symName: __ZNSt3__16vectorIP9CComputerNS_9allocatorIS2_EEE7__clearB7v160006Ev, symObjAddr: 0x2D348, symBinAddr: 0x1000301D0, symSize: 0x64 }
  - { offsetInCU: 0x1B705, offset: 0x1B705, size: 0x8, addend: 0x0, symName: __ZNSt3__16vectorIP9CComputerNS_9allocatorIS2_EEE22__base_destruct_at_endB7v160006EPS2_, symObjAddr: 0x2D3AC, symBinAddr: 0x100030234, symSize: 0x114 }
  - { offsetInCU: 0x1B749, offset: 0x1B749, size: 0x8, addend: 0x0, symName: __ZNK9CComputer7getNameEv, symObjAddr: 0x2D6F4, symBinAddr: 0x10003057C, symSize: 0x38 }
  - { offsetInCU: 0x1B76F, offset: 0x1B76F, size: 0x8, addend: 0x0, symName: __ZN8CNetworkD2Ev, symObjAddr: 0x2D72C, symBinAddr: 0x1000305B4, symSize: 0x36C }
  - { offsetInCU: 0x1B7F5, offset: 0x1B7F5, size: 0x8, addend: 0x0, symName: __ZNSt3__16vectorIP9CComputerNS_9allocatorIS2_EEE5beginB7v160006Ev, symObjAddr: 0x2DA98, symBinAddr: 0x100030920, symSize: 0x268 }
  - { offsetInCU: 0x1B81E, offset: 0x1B81E, size: 0x8, addend: 0x0, symName: __ZNSt3__16vectorIP9CComputerNS_9allocatorIS2_EEE3endB7v160006Ev, symObjAddr: 0x2DD00, symBinAddr: 0x100030B88, symSize: 0x26C }
  - { offsetInCU: 0x1B847, offset: 0x1B847, size: 0x8, addend: 0x0, symName: __ZNKSt3__111__wrap_iterIPP9CComputerEdeB7v160006Ev, symObjAddr: 0x2DFA0, symBinAddr: 0x100030E28, symSize: 0x60 }
  - { offsetInCU: 0x1B86D, offset: 0x1B86D, size: 0x8, addend: 0x0, symName: __ZNSt3__111__wrap_iterIPP9CComputerEppB7v160006Ev, symObjAddr: 0x2E000, symBinAddr: 0x100030E88, symSize: 0x68 }
  - { offsetInCU: 0x1B893, offset: 0x1B893, size: 0x8, addend: 0x0, symName: __ZNSt3__16vectorIP9CComputerNS_9allocatorIS2_EEE11__make_iterB7v160006EPS2_, symObjAddr: 0x2E068, symBinAddr: 0x100030EF0, symSize: 0x200 }
  - { offsetInCU: 0x1B8CA, offset: 0x1B8CA, size: 0x8, addend: 0x0, symName: __ZNSt3__111__wrap_iterIPP9CComputerEC1B7v160006EPKvS3_, symObjAddr: 0x2E268, symBinAddr: 0x1000310F0, symSize: 0x3C }
  - { offsetInCU: 0x1B910, offset: 0x1B910, size: 0x8, addend: 0x0, symName: __ZNSt3__111__wrap_iterIPP9CComputerEC2B7v160006EPKvS3_, symObjAddr: 0x2E2A4, symBinAddr: 0x10003112C, symSize: 0x74 }
  - { offsetInCU: 0x1B956, offset: 0x1B956, size: 0x8, addend: 0x0, symName: __ZNKSt3__111__wrap_iterIPP9CComputerE4baseB7v160006Ev, symObjAddr: 0x2E360, symBinAddr: 0x1000311E8, symSize: 0x60 }
  - { offsetInCU: 0x1B9D8, offset: 0x1B9D8, size: 0x8, addend: 0x0, symName: __ZNSt3__119basic_ostringstreamIcNS_11char_traitsIcEENS_9allocatorIcEEEC1B7v160006Ev, symObjAddr: 0x2E3C0, symBinAddr: 0x100031248, symSize: 0x1C0 }
  - { offsetInCU: 0x1BA02, offset: 0x1BA02, size: 0x8, addend: 0x0, symName: __ZNKSt3__119basic_ostringstreamIcNS_11char_traitsIcEENS_9allocatorIcEEE3strB7v160006Ev, symObjAddr: 0x2E580, symBinAddr: 0x100031408, symSize: 0x30 }
  - { offsetInCU: 0x1BA2E, offset: 0x1BA2E, size: 0x8, addend: 0x0, symName: __ZNSt3__119basic_ostringstreamIcNS_11char_traitsIcEENS_9allocatorIcEEED1Ev, symObjAddr: 0x2E5B0, symBinAddr: 0x100031438, symSize: 0x40 }
  - { offsetInCU: 0x1BA5B, offset: 0x1BA5B, size: 0x8, addend: 0x0, symName: __ZNSt3__19basic_iosIcNS_11char_traitsIcEEEC2B7v160006Ev, symObjAddr: 0x2E5F0, symBinAddr: 0x100031478, symSize: 0x84 }
  - { offsetInCU: 0x1BA85, offset: 0x1BA85, size: 0x8, addend: 0x0, symName: __ZNSt3__113basic_ostreamIcNS_11char_traitsIcEEEC2B7v160006EPNS_15basic_streambufIcS2_EE, symObjAddr: 0x2E674, symBinAddr: 0x1000314FC, symSize: 0x1D4 }
  - { offsetInCU: 0x1BACA, offset: 0x1BACA, size: 0x8, addend: 0x0, symName: __ZNSt3__115basic_stringbufIcNS_11char_traitsIcEENS_9allocatorIcEEEC1B7v160006Ej, symObjAddr: 0x2E848, symBinAddr: 0x1000316D0, symSize: 0x34 }
  - { offsetInCU: 0x1BB02, offset: 0x1BB02, size: 0x8, addend: 0x0, symName: __ZNSt3__18ios_baseC2B7v160006Ev, symObjAddr: 0x2E87C, symBinAddr: 0x100031704, symSize: 0x74 }
  - { offsetInCU: 0x1BB2C, offset: 0x1BB2C, size: 0x8, addend: 0x0, symName: __ZNSt3__19basic_iosIcNS_11char_traitsIcEEE4initB7v160006EPNS_15basic_streambufIcS2_EE, symObjAddr: 0x2E8F0, symBinAddr: 0x100031778, symSize: 0xEC }
  - { offsetInCU: 0x1BB63, offset: 0x1BB63, size: 0x8, addend: 0x0, symName: __ZNSt3__115basic_stringbufIcNS_11char_traitsIcEENS_9allocatorIcEEEC2B7v160006Ej, symObjAddr: 0x2E9DC, symBinAddr: 0x100031864, symSize: 0x138 }
  - { offsetInCU: 0x1BB9B, offset: 0x1BB9B, size: 0x8, addend: 0x0, symName: __ZNSt3__112basic_stringIcNS_11char_traitsIcEENS_9allocatorIcEEEC1B7v160006Ev, symObjAddr: 0x2EB14, symBinAddr: 0x10003199C, symSize: 0x2C }
  - { offsetInCU: 0x1BBC5, offset: 0x1BBC5, size: 0x8, addend: 0x0, symName: __ZNSt3__112basic_stringIcNS_11char_traitsIcEENS_9allocatorIcEEEC2B7v160006Ev, symObjAddr: 0x2EB40, symBinAddr: 0x1000319C8, symSize: 0x210 }
  - { offsetInCU: 0x1BBF0, offset: 0x1BBF0, size: 0x8, addend: 0x0, symName: __ZNSt3__119basic_ostringstreamIcNS_11char_traitsIcEENS_9allocatorIcEEED2Ev, symObjAddr: 0x2ED50, symBinAddr: 0x100031BD8, symSize: 0x198 }
  - { offsetInCU: 0x1BC2A, offset: 0x1BC2A, size: 0x8, addend: 0x0, symName: __ZTv0_n24_NSt3__119basic_ostringstreamIcNS_11char_traitsIcEENS_9allocatorIcEEED1Ev, symObjAddr: 0x2EEE8, symBinAddr: 0x100031D70, symSize: 0xB0 }
  - { offsetInCU: 0x1BC47, offset: 0x1BC47, size: 0x8, addend: 0x0, symName: __ZNSt3__115basic_stringbufIcNS_11char_traitsIcEENS_9allocatorIcEEED1Ev, symObjAddr: 0x2EF98, symBinAddr: 0x100031E20, symSize: 0x2C }
  - { offsetInCU: 0x1BC74, offset: 0x1BC74, size: 0x8, addend: 0x0, symName: __ZNSt3__115basic_stringbufIcNS_11char_traitsIcEENS_9allocatorIcEEED2Ev, symObjAddr: 0x2EFC4, symBinAddr: 0x100031E4C, symSize: 0x88 }
...
